C000  4C F5 C5  JMP $C5F5                       A:00 X:00 Y:00 P:24 SP:FD CYC:  0    I  -  
C5F5  A2 00     LDX #$00                        A:00 X:00 Y:00 P:24 SP:FD CYC:  9    I  -  
C5F7  86 00     STX $00 = 00                    A:00 X:00 Y:00 P:26 SP:FD CYC: 15   ZI  -  
C5F9  86 10     STX $10 = 00                    A:00 X:00 Y:00 P:26 SP:FD CYC: 24   ZI  -  
C5FB  86 11     STX $11 = 00                    A:00 X:00 Y:00 P:26 SP:FD CYC: 33   ZI  -  
C5FD  20 2D C7  JSR $C72D                       A:00 X:00 Y:00 P:26 SP:FD CYC: 42   ZI  -  
C72D  EA        NOP                             A:00 X:00 Y:00 P:26 SP:FB CYC: 60   ZI  -  
C72E  38        SEC                             A:00 X:00 Y:00 P:26 SP:FB CYC: 66   ZI  -  
C72F  B0 04     BCS $C735                       A:00 X:00 Y:00 P:27 SP:FB CYC: 72  CZI  -  
C735  EA        NOP                             A:00 X:00 Y:00 P:27 SP:FB CYC: 81  CZI  -  
C736  18        CLC                             A:00 X:00 Y:00 P:27 SP:FB CYC: 87  CZI  -  
C737  B0 03     BCS $C73C                       A:00 X:00 Y:00 P:26 SP:FB CYC: 93   ZI  -  
C739  4C 40 C7  JMP $C740                       A:00 X:00 Y:00 P:26 SP:FB CYC: 99   ZI  -  
C740  EA        NOP                             A:00 X:00 Y:00 P:26 SP:FB CYC:108   ZI  -  
C741  38        SEC                             A:00 X:00 Y:00 P:26 SP:FB CYC:114   ZI  -  
C742  90 03     BCC $C747                       A:00 X:00 Y:00 P:27 SP:FB CYC:120  CZI  -  
C744  4C 4B C7  JMP $C74B                       A:00 X:00 Y:00 P:27 SP:FB CYC:126  CZI  -  
C74B  EA        NOP                             A:00 X:00 Y:00 P:27 SP:FB CYC:135  CZI  -  
C74C  18        CLC                             A:00 X:00 Y:00 P:27 SP:FB CYC:141  CZI  -  
C74D  90 04     BCC $C753                       A:00 X:00 Y:00 P:26 SP:FB CYC:147   ZI  -  
C753  EA        NOP                             A:00 X:00 Y:00 P:26 SP:FB CYC:156   ZI  -  
C754  A9 00     LDA #$00                        A:00 X:00 Y:00 P:26 SP:FB CYC:162   ZI  -  
C756  F0 04     BEQ $C75C                       A:00 X:00 Y:00 P:26 SP:FB CYC:168   ZI  -  
C75C  EA        NOP                             A:00 X:00 Y:00 P:26 SP:FB CYC:177   ZI  -  
C75D  A9 40     LDA #$40                        A:00 X:00 Y:00 P:26 SP:FB CYC:183   ZI  -  
C75F  F0 03     BEQ $C764                       A:40 X:00 Y:00 P:24 SP:FB CYC:189    I  -  
C761  4C 68 C7  JMP $C768                       A:40 X:00 Y:00 P:24 SP:FB CYC:195    I  -  
C768  EA        NOP                             A:40 X:00 Y:00 P:24 SP:FB CYC:204    I  -  
C769  A9 40     LDA #$40                        A:40 X:00 Y:00 P:24 SP:FB CYC:210    I  -  
C76B  D0 04     BNE $C771                       A:40 X:00 Y:00 P:24 SP:FB CYC:216    I  -  
C771  EA        NOP                             A:40 X:00 Y:00 P:24 SP:FB CYC:225    I  -  
C772  A9 00     LDA #$00                        A:40 X:00 Y:00 P:24 SP:FB CYC:231    I  -  
C774  D0 03     BNE $C779                       A:00 X:00 Y:00 P:26 SP:FB CYC:237   ZI  -  
C776  4C 7D C7  JMP $C77D                       A:00 X:00 Y:00 P:26 SP:FB CYC:243   ZI  -  
C77D  EA        NOP                             A:00 X:00 Y:00 P:26 SP:FB CYC:252   ZI  -  
C77E  A9 FF     LDA #$FF                        A:00 X:00 Y:00 P:26 SP:FB CYC:258   ZI  -  
C780  85 01     STA $01 = 00                    A:FF X:00 Y:00 P:A4 SP:FB CYC:264    I  - N
C782  24 01     BIT $01 = FF                    A:FF X:00 Y:00 P:A4 SP:FB CYC:273    I  - N
C784  70 04     BVS $C78A                       A:FF X:00 Y:00 P:E4 SP:FB CYC:282    I  -VN
C78A  EA        NOP                             A:FF X:00 Y:00 P:E4 SP:FB CYC:291    I  -VN
C78B  24 01     BIT $01 = FF                    A:FF X:00 Y:00 P:E4 SP:FB CYC:297    I  -VN
C78D  50 03     BVC $C792                       A:FF X:00 Y:00 P:E4 SP:FB CYC:306    I  -VN
C78F  4C 96 C7  JMP $C796                       A:FF X:00 Y:00 P:E4 SP:FB CYC:312    I  -VN
C796  EA        NOP                             A:FF X:00 Y:00 P:E4 SP:FB CYC:321    I  -VN
C797  A9 00     LDA #$00                        A:FF X:00 Y:00 P:E4 SP:FB CYC:327    I  -VN
C799  85 01     STA $01 = FF                    A:00 X:00 Y:00 P:66 SP:FB CYC:333   ZI  -V 
C79B  24 01     BIT $01 = 00                    A:00 X:00 Y:00 P:66 SP:FB CYC:  1   ZI  -V 
C79D  50 04     BVC $C7A3                       A:00 X:00 Y:00 P:26 SP:FB CYC: 10   ZI  -  
C7A3  EA        NOP                             A:00 X:00 Y:00 P:26 SP:FB CYC: 19   ZI  -  
C7A4  24 01     BIT $01 = 00                    A:00 X:00 Y:00 P:26 SP:FB CYC: 25   ZI  -  
C7A6  70 03     BVS $C7AB                       A:00 X:00 Y:00 P:26 SP:FB CYC: 34   ZI  -  
C7A8  4C AF C7  JMP $C7AF                       A:00 X:00 Y:00 P:26 SP:FB CYC: 40   ZI  -  
C7AF  EA        NOP                             A:00 X:00 Y:00 P:26 SP:FB CYC: 49   ZI  -  
C7B0  A9 00     LDA #$00                        A:00 X:00 Y:00 P:26 SP:FB CYC: 55   ZI  -  
C7B2  10 04     BPL $C7B8                       A:00 X:00 Y:00 P:26 SP:FB CYC: 61   ZI  -  
C7B8  EA        NOP                             A:00 X:00 Y:00 P:26 SP:FB CYC: 70   ZI  -  
C7B9  A9 80     LDA #$80                        A:00 X:00 Y:00 P:26 SP:FB CYC: 76   ZI  -  
C7BB  10 03     BPL $C7C0                       A:80 X:00 Y:00 P:A4 SP:FB CYC: 82    I  - N
C7BD  4C D9 C7  JMP $C7D9                       A:80 X:00 Y:00 P:A4 SP:FB CYC: 88    I  - N
C7D9  EA        NOP                             A:80 X:00 Y:00 P:A4 SP:FB CYC: 97    I  - N
C7DA  60        RTS                             A:80 X:00 Y:00 P:A4 SP:FB CYC:103    I  - N
C600  20 DB C7  JSR $C7DB                       A:80 X:00 Y:00 P:A4 SP:FD CYC:121    I  - N
C7DB  EA        NOP                             A:80 X:00 Y:00 P:A4 SP:FB CYC:139    I  - N
C7DC  A9 FF     LDA #$FF                        A:80 X:00 Y:00 P:A4 SP:FB CYC:145    I  - N
C7DE  85 01     STA $01 = 00                    A:FF X:00 Y:00 P:A4 SP:FB CYC:151    I  - N
C7E0  24 01     BIT $01 = FF                    A:FF X:00 Y:00 P:A4 SP:FB CYC:160    I  - N
C7E2  A9 00     LDA #$00                        A:FF X:00 Y:00 P:E4 SP:FB CYC:169    I  -VN
C7E4  38        SEC                             A:00 X:00 Y:00 P:66 SP:FB CYC:175   ZI  -V 
C7E5  78        SEI                             A:00 X:00 Y:00 P:67 SP:FB CYC:181  CZI  -V 
C7E6  F8        SED                             A:00 X:00 Y:00 P:67 SP:FB CYC:187  CZI  -V 
C7E7  08        PHP                             A:00 X:00 Y:00 P:6F SP:FB CYC:193  CZID -V 
C7E8  68        PLA                             A:00 X:00 Y:00 P:6F SP:FA CYC:202  CZID -V 
C7E9  29 EF     AND #$EF                        A:7F X:00 Y:00 P:6D SP:FB CYC:214  C ID -V 
C7EB  C9 6F     CMP #$6F                        A:6F X:00 Y:00 P:6D SP:FB CYC:220  C ID -V 
C7ED  F0 04     BEQ $C7F3                       A:6F X:00 Y:00 P:6F SP:FB CYC:226  CZID -V 
C7F3  EA        NOP                             A:6F X:00 Y:00 P:6F SP:FB CYC:235  CZID -V 
C7F4  A9 40     LDA #$40                        A:6F X:00 Y:00 P:6F SP:FB CYC:241  CZID -V 
C7F6  85 01     STA $01 = FF                    A:40 X:00 Y:00 P:6D SP:FB CYC:247  C ID -V 
C7F8  24 01     BIT $01 = 40                    A:40 X:00 Y:00 P:6D SP:FB CYC:256  C ID -V 
C7FA  D8        CLD                             A:40 X:00 Y:00 P:6D SP:FB CYC:265  C ID -V 
C7FB  A9 10     LDA #$10                        A:40 X:00 Y:00 P:65 SP:FB CYC:271  C I  -V 
C7FD  18        CLC                             A:10 X:00 Y:00 P:65 SP:FB CYC:277  C I  -V 
C7FE  08        PHP                             A:10 X:00 Y:00 P:64 SP:FB CYC:283    I  -V 
C7FF  68        PLA                             A:10 X:00 Y:00 P:64 SP:FA CYC:292    I  -V 
C800  29 EF     AND #$EF                        A:74 X:00 Y:00 P:64 SP:FB CYC:304    I  -V 
C802  C9 64     CMP #$64                        A:64 X:00 Y:00 P:64 SP:FB CYC:310    I  -V 
C804  F0 04     BEQ $C80A                       A:64 X:00 Y:00 P:67 SP:FB CYC:316  CZI  -V 
C80A  EA        NOP                             A:64 X:00 Y:00 P:67 SP:FB CYC:325  CZI  -V 
C80B  A9 80     LDA #$80                        A:64 X:00 Y:00 P:67 SP:FB CYC:331  CZI  -V 
C80D  85 01     STA $01 = 40                    A:80 X:00 Y:00 P:E5 SP:FB CYC:337  C I  -VN
C80F  24 01     BIT $01 = 80                    A:80 X:00 Y:00 P:E5 SP:FB CYC:  5  C I  -VN
C811  F8        SED                             A:80 X:00 Y:00 P:A5 SP:FB CYC: 14  C I  - N
C812  A9 00     LDA #$00                        A:80 X:00 Y:00 P:AD SP:FB CYC: 20  C ID - N
C814  38        SEC                             A:00 X:00 Y:00 P:2F SP:FB CYC: 26  CZID -  
C815  08        PHP                             A:00 X:00 Y:00 P:2F SP:FB CYC: 32  CZID -  
C816  68        PLA                             A:00 X:00 Y:00 P:2F SP:FA CYC: 41  CZID -  
C817  29 EF     AND #$EF                        A:3F X:00 Y:00 P:2D SP:FB CYC: 53  C ID -  
C819  C9 2F     CMP #$2F                        A:2F X:00 Y:00 P:2D SP:FB CYC: 59  C ID -  
C81B  F0 04     BEQ $C821                       A:2F X:00 Y:00 P:2F SP:FB CYC: 65  CZID -  
C821  EA        NOP                             A:2F X:00 Y:00 P:2F SP:FB CYC: 74  CZID -  
C822  A9 FF     LDA #$FF                        A:2F X:00 Y:00 P:2F SP:FB CYC: 80  CZID -  
C824  48        PHA                             A:FF X:00 Y:00 P:AD SP:FB CYC: 86  C ID - N
C825  28        PLP                             A:FF X:00 Y:00 P:AD SP:FA CYC: 95  C ID - N
C826  D0 09     BNE $C831                       A:FF X:00 Y:00 P:EF SP:FB CYC:107  CZID -VN
C828  10 07     BPL $C831                       A:FF X:00 Y:00 P:EF SP:FB CYC:113  CZID -VN
C82A  50 05     BVC $C831                       A:FF X:00 Y:00 P:EF SP:FB CYC:119  CZID -VN
C82C  90 03     BCC $C831                       A:FF X:00 Y:00 P:EF SP:FB CYC:125  CZID -VN
C82E  4C 35 C8  JMP $C835                       A:FF X:00 Y:00 P:EF SP:FB CYC:131  CZID -VN
C835  EA        NOP                             A:FF X:00 Y:00 P:EF SP:FB CYC:140  CZID -VN
C836  A9 04     LDA #$04                        A:FF X:00 Y:00 P:EF SP:FB CYC:146  CZID -VN
C838  48        PHA                             A:04 X:00 Y:00 P:6D SP:FB CYC:152  C ID -V 
C839  28        PLP                             A:04 X:00 Y:00 P:6D SP:FA CYC:161  C ID -V 
C83A  F0 09     BEQ $C845                       A:04 X:00 Y:00 P:24 SP:FB CYC:173    I  -  
C83C  30 07     BMI $C845                       A:04 X:00 Y:00 P:24 SP:FB CYC:179    I  -  
C83E  70 05     BVS $C845                       A:04 X:00 Y:00 P:24 SP:FB CYC:185    I  -  
C840  B0 03     BCS $C845                       A:04 X:00 Y:00 P:24 SP:FB CYC:191    I  -  
C842  4C 49 C8  JMP $C849                       A:04 X:00 Y:00 P:24 SP:FB CYC:197    I  -  
C849  EA        NOP                             A:04 X:00 Y:00 P:24 SP:FB CYC:206    I  -  
C84A  F8        SED                             A:04 X:00 Y:00 P:24 SP:FB CYC:212    I  -  
C84B  A9 FF     LDA #$FF                        A:04 X:00 Y:00 P:2C SP:FB CYC:218    ID -  
C84D  85 01     STA $01 = 80                    A:FF X:00 Y:00 P:AC SP:FB CYC:224    ID - N
C84F  24 01     BIT $01 = FF                    A:FF X:00 Y:00 P:AC SP:FB CYC:233    ID - N
C851  18        CLC                             A:FF X:00 Y:00 P:EC SP:FB CYC:242    ID -VN
C852  A9 00     LDA #$00                        A:FF X:00 Y:00 P:EC SP:FB CYC:248    ID -VN
C854  48        PHA                             A:00 X:00 Y:00 P:6E SP:FB CYC:254   ZID -V 
C855  A9 FF     LDA #$FF                        A:00 X:00 Y:00 P:6E SP:FA CYC:263   ZID -V 
C857  68        PLA                             A:FF X:00 Y:00 P:EC SP:FA CYC:269    ID -VN
C858  D0 09     BNE $C863                       A:00 X:00 Y:00 P:6E SP:FB CYC:281   ZID -V 
C85A  30 07     BMI $C863                       A:00 X:00 Y:00 P:6E SP:FB CYC:287   ZID -V 
C85C  50 05     BVC $C863                       A:00 X:00 Y:00 P:6E SP:FB CYC:293   ZID -V 
C85E  B0 03     BCS $C863                       A:00 X:00 Y:00 P:6E SP:FB CYC:299   ZID -V 
C860  4C 67 C8  JMP $C867                       A:00 X:00 Y:00 P:6E SP:FB CYC:305   ZID -V 
C867  EA        NOP                             A:00 X:00 Y:00 P:6E SP:FB CYC:314   ZID -V 
C868  A9 00     LDA #$00                        A:00 X:00 Y:00 P:6E SP:FB CYC:320   ZID -V 
C86A  85 01     STA $01 = FF                    A:00 X:00 Y:00 P:6E SP:FB CYC:326   ZID -V 
C86C  24 01     BIT $01 = 00                    A:00 X:00 Y:00 P:6E SP:FB CYC:335   ZID -V 
C86E  38        SEC                             A:00 X:00 Y:00 P:2E SP:FB CYC:  3   ZID -  
C86F  A9 FF     LDA #$FF                        A:00 X:00 Y:00 P:2F SP:FB CYC:  9  CZID -  
C871  48        PHA                             A:FF X:00 Y:00 P:AD SP:FB CYC: 15  C ID - N
C872  A9 00     LDA #$00                        A:FF X:00 Y:00 P:AD SP:FA CYC: 24  C ID - N
C874  68        PLA                             A:00 X:00 Y:00 P:2F SP:FA CYC: 30  CZID -  
C875  F0 09     BEQ $C880                       A:FF X:00 Y:00 P:AD SP:FB CYC: 42  C ID - N
C877  10 07     BPL $C880                       A:FF X:00 Y:00 P:AD SP:FB CYC: 48  C ID - N
C879  70 05     BVS $C880                       A:FF X:00 Y:00 P:AD SP:FB CYC: 54  C ID - N
C87B  90 03     BCC $C880                       A:FF X:00 Y:00 P:AD SP:FB CYC: 60  C ID - N
C87D  4C 84 C8  JMP $C884                       A:FF X:00 Y:00 P:AD SP:FB CYC: 66  C ID - N
C884  60        RTS                             A:FF X:00 Y:00 P:AD SP:FB CYC: 75  C ID - N
C603  20 85 C8  JSR $C885                       A:FF X:00 Y:00 P:AD SP:FD CYC: 93  C ID - N
C885  EA        NOP                             A:FF X:00 Y:00 P:AD SP:FB CYC:111  C ID - N
C886  18        CLC                             A:FF X:00 Y:00 P:AD SP:FB CYC:117  C ID - N
C887  A9 FF     LDA #$FF                        A:FF X:00 Y:00 P:AC SP:FB CYC:123    ID - N
C889  85 01     STA $01 = 00                    A:FF X:00 Y:00 P:AC SP:FB CYC:129    ID - N
C88B  24 01     BIT $01 = FF                    A:FF X:00 Y:00 P:AC SP:FB CYC:138    ID - N
C88D  A9 55     LDA #$55                        A:FF X:00 Y:00 P:EC SP:FB CYC:147    ID -VN
C88F  09 AA     ORA #$AA                        A:55 X:00 Y:00 P:6C SP:FB CYC:153    ID -V 
C891  B0 0B     BCS $C89E                       A:FF X:00 Y:00 P:EC SP:FB CYC:159    ID -VN
C893  10 09     BPL $C89E                       A:FF X:00 Y:00 P:EC SP:FB CYC:165    ID -VN
C895  C9 FF     CMP #$FF                        A:FF X:00 Y:00 P:EC SP:FB CYC:171    ID -VN
C897  D0 05     BNE $C89E                       A:FF X:00 Y:00 P:6F SP:FB CYC:177  CZID -V 
C899  50 03     BVC $C89E                       A:FF X:00 Y:00 P:6F SP:FB CYC:183  CZID -V 
C89B  4C A2 C8  JMP $C8A2                       A:FF X:00 Y:00 P:6F SP:FB CYC:189  CZID -V 
C8A2  EA        NOP                             A:FF X:00 Y:00 P:6F SP:FB CYC:198  CZID -V 
C8A3  38        SEC                             A:FF X:00 Y:00 P:6F SP:FB CYC:204  CZID -V 
C8A4  B8        CLV                             A:FF X:00 Y:00 P:6F SP:FB CYC:210  CZID -V 
C8A5  A9 00     LDA #$00                        A:FF X:00 Y:00 P:2F SP:FB CYC:216  CZID -  
C8A7  09 00     ORA #$00                        A:00 X:00 Y:00 P:2F SP:FB CYC:222  CZID -  
C8A9  D0 09     BNE $C8B4                       A:00 X:00 Y:00 P:2F SP:FB CYC:228  CZID -  
C8AB  70 07     BVS $C8B4                       A:00 X:00 Y:00 P:2F SP:FB CYC:234  CZID -  
C8AD  90 05     BCC $C8B4                       A:00 X:00 Y:00 P:2F SP:FB CYC:240  CZID -  
C8AF  30 03     BMI $C8B4                       A:00 X:00 Y:00 P:2F SP:FB CYC:246  CZID -  
C8B1  4C B8 C8  JMP $C8B8                       A:00 X:00 Y:00 P:2F SP:FB CYC:252  CZID -  
C8B8  EA        NOP                             A:00 X:00 Y:00 P:2F SP:FB CYC:261  CZID -  
C8B9  18        CLC                             A:00 X:00 Y:00 P:2F SP:FB CYC:267  CZID -  
C8BA  24 01     BIT $01 = FF                    A:00 X:00 Y:00 P:2E SP:FB CYC:273   ZID -  
C8BC  A9 55     LDA #$55                        A:00 X:00 Y:00 P:EE SP:FB CYC:282   ZID -VN
C8BE  29 AA     AND #$AA                        A:55 X:00 Y:00 P:6C SP:FB CYC:288    ID -V 
C8C0  D0 09     BNE $C8CB                       A:00 X:00 Y:00 P:6E SP:FB CYC:294   ZID -V 
C8C2  50 07     BVC $C8CB                       A:00 X:00 Y:00 P:6E SP:FB CYC:300   ZID -V 
C8C4  B0 05     BCS $C8CB                       A:00 X:00 Y:00 P:6E SP:FB CYC:306   ZID -V 
C8C6  30 03     BMI $C8CB                       A:00 X:00 Y:00 P:6E SP:FB CYC:312   ZID -V 
C8C8  4C CF C8  JMP $C8CF                       A:00 X:00 Y:00 P:6E SP:FB CYC:318   ZID -V 
C8CF  EA        NOP                             A:00 X:00 Y:00 P:6E SP:FB CYC:327   ZID -V 
C8D0  38        SEC                             A:00 X:00 Y:00 P:6E SP:FB CYC:333   ZID -V 
C8D1  B8        CLV                             A:00 X:00 Y:00 P:6F SP:FB CYC:339  CZID -V 
C8D2  A9 F8     LDA #$F8                        A:00 X:00 Y:00 P:2F SP:FB CYC:  4  CZID -  
C8D4  29 EF     AND #$EF                        A:F8 X:00 Y:00 P:AD SP:FB CYC: 10  C ID - N
C8D6  90 0B     BCC $C8E3                       A:E8 X:00 Y:00 P:AD SP:FB CYC: 16  C ID - N
C8D8  10 09     BPL $C8E3                       A:E8 X:00 Y:00 P:AD SP:FB CYC: 22  C ID - N
C8DA  C9 E8     CMP #$E8                        A:E8 X:00 Y:00 P:AD SP:FB CYC: 28  C ID - N
C8DC  D0 05     BNE $C8E3                       A:E8 X:00 Y:00 P:2F SP:FB CYC: 34  CZID -  
C8DE  70 03     BVS $C8E3                       A:E8 X:00 Y:00 P:2F SP:FB CYC: 40  CZID -  
C8E0  4C E7 C8  JMP $C8E7                       A:E8 X:00 Y:00 P:2F SP:FB CYC: 46  CZID -  
C8E7  EA        NOP                             A:E8 X:00 Y:00 P:2F SP:FB CYC: 55  CZID -  
C8E8  18        CLC                             A:E8 X:00 Y:00 P:2F SP:FB CYC: 61  CZID -  
C8E9  24 01     BIT $01 = FF                    A:E8 X:00 Y:00 P:2E SP:FB CYC: 67   ZID -  
C8EB  A9 5F     LDA #$5F                        A:E8 X:00 Y:00 P:EC SP:FB CYC: 76    ID -VN
C8ED  49 AA     EOR #$AA                        A:5F X:00 Y:00 P:6C SP:FB CYC: 82    ID -V 
C8EF  B0 0B     BCS $C8FC                       A:F5 X:00 Y:00 P:EC SP:FB CYC: 88    ID -VN
C8F1  10 09     BPL $C8FC                       A:F5 X:00 Y:00 P:EC SP:FB CYC: 94    ID -VN
C8F3  C9 F5     CMP #$F5                        A:F5 X:00 Y:00 P:EC SP:FB CYC:100    ID -VN
C8F5  D0 05     BNE $C8FC                       A:F5 X:00 Y:00 P:6F SP:FB CYC:106  CZID -V 
C8F7  50 03     BVC $C8FC                       A:F5 X:00 Y:00 P:6F SP:FB CYC:112  CZID -V 
C8F9  4C 00 C9  JMP $C900                       A:F5 X:00 Y:00 P:6F SP:FB CYC:118  CZID -V 
C900  EA        NOP                             A:F5 X:00 Y:00 P:6F SP:FB CYC:127  CZID -V 
C901  38        SEC                             A:F5 X:00 Y:00 P:6F SP:FB CYC:133  CZID -V 
C902  B8        CLV                             A:F5 X:00 Y:00 P:6F SP:FB CYC:139  CZID -V 
C903  A9 70     LDA #$70                        A:F5 X:00 Y:00 P:2F SP:FB CYC:145  CZID -  
C905  49 70     EOR #$70                        A:70 X:00 Y:00 P:2D SP:FB CYC:151  C ID -  
C907  D0 09     BNE $C912                       A:00 X:00 Y:00 P:2F SP:FB CYC:157  CZID -  
C909  70 07     BVS $C912                       A:00 X:00 Y:00 P:2F SP:FB CYC:163  CZID -  
C90B  90 05     BCC $C912                       A:00 X:00 Y:00 P:2F SP:FB CYC:169  CZID -  
C90D  30 03     BMI $C912                       A:00 X:00 Y:00 P:2F SP:FB CYC:175  CZID -  
C90F  4C 16 C9  JMP $C916                       A:00 X:00 Y:00 P:2F SP:FB CYC:181  CZID -  
C916  EA        NOP                             A:00 X:00 Y:00 P:2F SP:FB CYC:190  CZID -  
C917  18        CLC                             A:00 X:00 Y:00 P:2F SP:FB CYC:196  CZID -  
C918  24 01     BIT $01 = FF                    A:00 X:00 Y:00 P:2E SP:FB CYC:202   ZID -  
C91A  A9 00     LDA #$00                        A:00 X:00 Y:00 P:EE SP:FB CYC:211   ZID -VN
C91C  69 69     ADC #$69                        A:00 X:00 Y:00 P:6E SP:FB CYC:217   ZID -V 
C91E  30 0B     BMI $C92B                       A:69 X:00 Y:00 P:2C SP:FB CYC:223    ID -  
C920  B0 09     BCS $C92B                       A:69 X:00 Y:00 P:2C SP:FB CYC:229    ID -  
C922  C9 69     CMP #$69                        A:69 X:00 Y:00 P:2C SP:FB CYC:235    ID -  
C924  D0 05     BNE $C92B                       A:69 X:00 Y:00 P:2F SP:FB CYC:241  CZID -  
C926  70 03     BVS $C92B                       A:69 X:00 Y:00 P:2F SP:FB CYC:247  CZID -  
C928  4C 2F C9  JMP $C92F                       A:69 X:00 Y:00 P:2F SP:FB CYC:253  CZID -  
C92F  EA        NOP                             A:69 X:00 Y:00 P:2F SP:FB CYC:262  CZID -  
C930  38        SEC                             A:69 X:00 Y:00 P:2F SP:FB CYC:268  CZID -  
C931  F8        SED                             A:69 X:00 Y:00 P:2F SP:FB CYC:274  CZID -  
C932  24 01     BIT $01 = FF                    A:69 X:00 Y:00 P:2F SP:FB CYC:280  CZID -  
C934  A9 01     LDA #$01                        A:69 X:00 Y:00 P:ED SP:FB CYC:289  C ID -VN
C936  69 69     ADC #$69                        A:01 X:00 Y:00 P:6D SP:FB CYC:295  C ID -V 
C938  30 0B     BMI $C945                       A:6B X:00 Y:00 P:2C SP:FB CYC:301    ID -  
C93A  B0 09     BCS $C945                       A:6B X:00 Y:00 P:2C SP:FB CYC:307    ID -  
C93C  C9 6B     CMP #$6B                        A:6B X:00 Y:00 P:2C SP:FB CYC:313    ID -  
C93E  D0 05     BNE $C945                       A:6B X:00 Y:00 P:2F SP:FB CYC:319  CZID -  
C940  70 03     BVS $C945                       A:6B X:00 Y:00 P:2F SP:FB CYC:325  CZID -  
C942  4C 49 C9  JMP $C949                       A:6B X:00 Y:00 P:2F SP:FB CYC:331  CZID -  
C949  EA        NOP                             A:6B X:00 Y:00 P:2F SP:FB CYC:340  CZID -  
C94A  D8        CLD                             A:6B X:00 Y:00 P:2F SP:FB CYC:  5  CZID -  
C94B  38        SEC                             A:6B X:00 Y:00 P:27 SP:FB CYC: 11  CZI  -  
C94C  B8        CLV                             A:6B X:00 Y:00 P:27 SP:FB CYC: 17  CZI  -  
C94D  A9 7F     LDA #$7F                        A:6B X:00 Y:00 P:27 SP:FB CYC: 23  CZI  -  
C94F  69 7F     ADC #$7F                        A:7F X:00 Y:00 P:25 SP:FB CYC: 29  C I  -  
C951  10 0B     BPL $C95E                       A:FF X:00 Y:00 P:E4 SP:FB CYC: 35    I  -VN
C953  B0 09     BCS $C95E                       A:FF X:00 Y:00 P:E4 SP:FB CYC: 41    I  -VN
C955  C9 FF     CMP #$FF                        A:FF X:00 Y:00 P:E4 SP:FB CYC: 47    I  -VN
C957  D0 05     BNE $C95E                       A:FF X:00 Y:00 P:67 SP:FB CYC: 53  CZI  -V 
C959  50 03     BVC $C95E                       A:FF X:00 Y:00 P:67 SP:FB CYC: 59  CZI  -V 
C95B  4C 62 C9  JMP $C962                       A:FF X:00 Y:00 P:67 SP:FB CYC: 65  CZI  -V 
C962  EA        NOP                             A:FF X:00 Y:00 P:67 SP:FB CYC: 74  CZI  -V 
C963  18        CLC                             A:FF X:00 Y:00 P:67 SP:FB CYC: 80  CZI  -V 
C964  24 01     BIT $01 = FF                    A:FF X:00 Y:00 P:66 SP:FB CYC: 86   ZI  -V 
C966  A9 7F     LDA #$7F                        A:FF X:00 Y:00 P:E4 SP:FB CYC: 95    I  -VN
C968  69 80     ADC #$80                        A:7F X:00 Y:00 P:64 SP:FB CYC:101    I  -V 
C96A  10 0B     BPL $C977                       A:FF X:00 Y:00 P:A4 SP:FB CYC:107    I  - N
C96C  B0 09     BCS $C977                       A:FF X:00 Y:00 P:A4 SP:FB CYC:113    I  - N
C96E  C9 FF     CMP #$FF                        A:FF X:00 Y:00 P:A4 SP:FB CYC:119    I  - N
C970  D0 05     BNE $C977                       A:FF X:00 Y:00 P:27 SP:FB CYC:125  CZI  -  
C972  70 03     BVS $C977                       A:FF X:00 Y:00 P:27 SP:FB CYC:131  CZI  -  
C974  4C 7B C9  JMP $C97B                       A:FF X:00 Y:00 P:27 SP:FB CYC:137  CZI  -  
C97B  EA        NOP                             A:FF X:00 Y:00 P:27 SP:FB CYC:146  CZI  -  
C97C  38        SEC                             A:FF X:00 Y:00 P:27 SP:FB CYC:152  CZI  -  
C97D  B8        CLV                             A:FF X:00 Y:00 P:27 SP:FB CYC:158  CZI  -  
C97E  A9 7F     LDA #$7F                        A:FF X:00 Y:00 P:27 SP:FB CYC:164  CZI  -  
C980  69 80     ADC #$80                        A:7F X:00 Y:00 P:25 SP:FB CYC:170  C I  -  
C982  D0 09     BNE $C98D                       A:00 X:00 Y:00 P:27 SP:FB CYC:176  CZI  -  
C984  30 07     BMI $C98D                       A:00 X:00 Y:00 P:27 SP:FB CYC:182  CZI  -  
C986  70 05     BVS $C98D                       A:00 X:00 Y:00 P:27 SP:FB CYC:188  CZI  -  
C988  90 03     BCC $C98D                       A:00 X:00 Y:00 P:27 SP:FB CYC:194  CZI  -  
C98A  4C 91 C9  JMP $C991                       A:00 X:00 Y:00 P:27 SP:FB CYC:200  CZI  -  
C991  EA        NOP                             A:00 X:00 Y:00 P:27 SP:FB CYC:209  CZI  -  
C992  38        SEC                             A:00 X:00 Y:00 P:27 SP:FB CYC:215  CZI  -  
C993  B8        CLV                             A:00 X:00 Y:00 P:27 SP:FB CYC:221  CZI  -  
C994  A9 9F     LDA #$9F                        A:00 X:00 Y:00 P:27 SP:FB CYC:227  CZI  -  
C996  F0 09     BEQ $C9A1                       A:9F X:00 Y:00 P:A5 SP:FB CYC:233  C I  - N
C998  10 07     BPL $C9A1                       A:9F X:00 Y:00 P:A5 SP:FB CYC:239  C I  - N
C99A  70 05     BVS $C9A1                       A:9F X:00 Y:00 P:A5 SP:FB CYC:245  C I  - N
C99C  90 03     BCC $C9A1                       A:9F X:00 Y:00 P:A5 SP:FB CYC:251  C I  - N
C99E  4C A5 C9  JMP $C9A5                       A:9F X:00 Y:00 P:A5 SP:FB CYC:257  C I  - N
C9A5  EA        NOP                             A:9F X:00 Y:00 P:A5 SP:FB CYC:266  C I  - N
C9A6  18        CLC                             A:9F X:00 Y:00 P:A5 SP:FB CYC:272  C I  - N
C9A7  24 01     BIT $01 = FF                    A:9F X:00 Y:00 P:A4 SP:FB CYC:278    I  - N
C9A9  A9 00     LDA #$00                        A:9F X:00 Y:00 P:E4 SP:FB CYC:287    I  -VN
C9AB  D0 09     BNE $C9B6                       A:00 X:00 Y:00 P:66 SP:FB CYC:293   ZI  -V 
C9AD  30 07     BMI $C9B6                       A:00 X:00 Y:00 P:66 SP:FB CYC:299   ZI  -V 
C9AF  50 05     BVC $C9B6                       A:00 X:00 Y:00 P:66 SP:FB CYC:305   ZI  -V 
C9B1  B0 03     BCS $C9B6                       A:00 X:00 Y:00 P:66 SP:FB CYC:311   ZI  -V 
C9B3  4C BA C9  JMP $C9BA                       A:00 X:00 Y:00 P:66 SP:FB CYC:317   ZI  -V 
C9BA  EA        NOP                             A:00 X:00 Y:00 P:66 SP:FB CYC:326   ZI  -V 
C9BB  24 01     BIT $01 = FF                    A:00 X:00 Y:00 P:66 SP:FB CYC:332   ZI  -V 
C9BD  A9 40     LDA #$40                        A:00 X:00 Y:00 P:E6 SP:FB CYC:  0   ZI  -VN
C9BF  C9 40     CMP #$40                        A:40 X:00 Y:00 P:64 SP:FB CYC:  6    I  -V 
C9C1  30 09     BMI $C9CC                       A:40 X:00 Y:00 P:67 SP:FB CYC: 12  CZI  -V 
C9C3  90 07     BCC $C9CC                       A:40 X:00 Y:00 P:67 SP:FB CYC: 18  CZI  -V 
C9C5  D0 05     BNE $C9CC                       A:40 X:00 Y:00 P:67 SP:FB CYC: 24  CZI  -V 
C9C7  50 03     BVC $C9CC                       A:40 X:00 Y:00 P:67 SP:FB CYC: 30  CZI  -V 
C9C9  4C D0 C9  JMP $C9D0                       A:40 X:00 Y:00 P:67 SP:FB CYC: 36  CZI  -V 
C9D0  EA        NOP                             A:40 X:00 Y:00 P:67 SP:FB CYC: 45  CZI  -V 
C9D1  B8        CLV                             A:40 X:00 Y:00 P:67 SP:FB CYC: 51  CZI  -V 
C9D2  C9 3F     CMP #$3F                        A:40 X:00 Y:00 P:27 SP:FB CYC: 57  CZI  -  
C9D4  F0 09     BEQ $C9DF                       A:40 X:00 Y:00 P:25 SP:FB CYC: 63  C I  -  
C9D6  30 07     BMI $C9DF                       A:40 X:00 Y:00 P:25 SP:FB CYC: 69  C I  -  
C9D8  90 05     BCC $C9DF                       A:40 X:00 Y:00 P:25 SP:FB CYC: 75  C I  -  
C9DA  70 03     BVS $C9DF                       A:40 X:00 Y:00 P:25 SP:FB CYC: 81  C I  -  
C9DC  4C E3 C9  JMP $C9E3                       A:40 X:00 Y:00 P:25 SP:FB CYC: 87  C I  -  
C9E3  EA        NOP                             A:40 X:00 Y:00 P:25 SP:FB CYC: 96  C I  -  
C9E4  C9 41     CMP #$41                        A:40 X:00 Y:00 P:25 SP:FB CYC:102  C I  -  
C9E6  F0 07     BEQ $C9EF                       A:40 X:00 Y:00 P:A4 SP:FB CYC:108    I  - N
C9E8  10 05     BPL $C9EF                       A:40 X:00 Y:00 P:A4 SP:FB CYC:114    I  - N
C9EA  10 03     BPL $C9EF                       A:40 X:00 Y:00 P:A4 SP:FB CYC:120    I  - N
C9EC  4C F3 C9  JMP $C9F3                       A:40 X:00 Y:00 P:A4 SP:FB CYC:126    I  - N
C9F3  EA        NOP                             A:40 X:00 Y:00 P:A4 SP:FB CYC:135    I  - N
C9F4  A9 80     LDA #$80                        A:40 X:00 Y:00 P:A4 SP:FB CYC:141    I  - N
C9F6  C9 00     CMP #$00                        A:80 X:00 Y:00 P:A4 SP:FB CYC:147    I  - N
C9F8  F0 07     BEQ $CA01                       A:80 X:00 Y:00 P:A5 SP:FB CYC:153  C I  - N
C9FA  10 05     BPL $CA01                       A:80 X:00 Y:00 P:A5 SP:FB CYC:159  C I  - N
C9FC  90 03     BCC $CA01                       A:80 X:00 Y:00 P:A5 SP:FB CYC:165  C I  - N
C9FE  4C 05 CA  JMP $CA05                       A:80 X:00 Y:00 P:A5 SP:FB CYC:171  C I  - N
CA05  EA        NOP                             A:80 X:00 Y:00 P:A5 SP:FB CYC:180  C I  - N
CA06  C9 80     CMP #$80                        A:80 X:00 Y:00 P:A5 SP:FB CYC:186  C I  - N
CA08  D0 07     BNE $CA11                       A:80 X:00 Y:00 P:27 SP:FB CYC:192  CZI  -  
CA0A  30 05     BMI $CA11                       A:80 X:00 Y:00 P:27 SP:FB CYC:198  CZI  -  
CA0C  90 03     BCC $CA11                       A:80 X:00 Y:00 P:27 SP:FB CYC:204  CZI  -  
CA0E  4C 15 CA  JMP $CA15                       A:80 X:00 Y:00 P:27 SP:FB CYC:210  CZI  -  
CA15  EA        NOP                             A:80 X:00 Y:00 P:27 SP:FB CYC:219  CZI  -  
CA16  C9 81     CMP #$81                        A:80 X:00 Y:00 P:27 SP:FB CYC:225  CZI  -  
CA18  B0 07     BCS $CA21                       A:80 X:00 Y:00 P:A4 SP:FB CYC:231    I  - N
CA1A  F0 05     BEQ $CA21                       A:80 X:00 Y:00 P:A4 SP:FB CYC:237    I  - N
CA1C  10 03     BPL $CA21                       A:80 X:00 Y:00 P:A4 SP:FB CYC:243    I  - N
CA1E  4C 25 CA  JMP $CA25                       A:80 X:00 Y:00 P:A4 SP:FB CYC:249    I  - N
CA25  EA        NOP                             A:80 X:00 Y:00 P:A4 SP:FB CYC:258    I  - N
CA26  C9 7F     CMP #$7F                        A:80 X:00 Y:00 P:A4 SP:FB CYC:264    I  - N
CA28  90 07     BCC $CA31                       A:80 X:00 Y:00 P:25 SP:FB CYC:270  C I  -  
CA2A  F0 05     BEQ $CA31                       A:80 X:00 Y:00 P:25 SP:FB CYC:276  C I  -  
CA2C  30 03     BMI $CA31                       A:80 X:00 Y:00 P:25 SP:FB CYC:282  C I  -  
CA2E  4C 35 CA  JMP $CA35                       A:80 X:00 Y:00 P:25 SP:FB CYC:288  C I  -  
CA35  EA        NOP                             A:80 X:00 Y:00 P:25 SP:FB CYC:297  C I  -  
CA36  24 01     BIT $01 = FF                    A:80 X:00 Y:00 P:25 SP:FB CYC:303  C I  -  
CA38  A0 40     LDY #$40                        A:80 X:00 Y:00 P:E5 SP:FB CYC:312  C I  -VN
CA3A  C0 40     CPY #$40                        A:80 X:00 Y:40 P:65 SP:FB CYC:318  C I  -V 
CA3C  D0 09     BNE $CA47                       A:80 X:00 Y:40 P:67 SP:FB CYC:324  CZI  -V 
CA3E  30 07     BMI $CA47                       A:80 X:00 Y:40 P:67 SP:FB CYC:330  CZI  -V 
CA40  90 05     BCC $CA47                       A:80 X:00 Y:40 P:67 SP:FB CYC:336  CZI  -V 
CA42  50 03     BVC $CA47                       A:80 X:00 Y:40 P:67 SP:FB CYC:  1  CZI  -V 
CA44  4C 4B CA  JMP $CA4B                       A:80 X:00 Y:40 P:67 SP:FB CYC:  7  CZI  -V 
CA4B  EA        NOP                             A:80 X:00 Y:40 P:67 SP:FB CYC: 16  CZI  -V 
CA4C  B8        CLV                             A:80 X:00 Y:40 P:67 SP:FB CYC: 22  CZI  -V 
CA4D  C0 3F     CPY #$3F                        A:80 X:00 Y:40 P:27 SP:FB CYC: 28  CZI  -  
CA4F  F0 09     BEQ $CA5A                       A:80 X:00 Y:40 P:25 SP:FB CYC: 34  C I  -  
CA51  30 07     BMI $CA5A                       A:80 X:00 Y:40 P:25 SP:FB CYC: 40  C I  -  
CA53  90 05     BCC $CA5A                       A:80 X:00 Y:40 P:25 SP:FB CYC: 46  C I  -  
CA55  70 03     BVS $CA5A                       A:80 X:00 Y:40 P:25 SP:FB CYC: 52  C I  -  
CA57  4C 5E CA  JMP $CA5E                       A:80 X:00 Y:40 P:25 SP:FB CYC: 58  C I  -  
CA5E  EA        NOP                             A:80 X:00 Y:40 P:25 SP:FB CYC: 67  C I  -  
CA5F  C0 41     CPY #$41                        A:80 X:00 Y:40 P:25 SP:FB CYC: 73  C I  -  
CA61  F0 07     BEQ $CA6A                       A:80 X:00 Y:40 P:A4 SP:FB CYC: 79    I  - N
CA63  10 05     BPL $CA6A                       A:80 X:00 Y:40 P:A4 SP:FB CYC: 85    I  - N
CA65  10 03     BPL $CA6A                       A:80 X:00 Y:40 P:A4 SP:FB CYC: 91    I  - N
CA67  4C 6E CA  JMP $CA6E                       A:80 X:00 Y:40 P:A4 SP:FB CYC: 97    I  - N
CA6E  EA        NOP                             A:80 X:00 Y:40 P:A4 SP:FB CYC:106    I  - N
CA6F  A0 80     LDY #$80                        A:80 X:00 Y:40 P:A4 SP:FB CYC:112    I  - N
CA71  C0 00     CPY #$00                        A:80 X:00 Y:80 P:A4 SP:FB CYC:118    I  - N
CA73  F0 07     BEQ $CA7C                       A:80 X:00 Y:80 P:A5 SP:FB CYC:124  C I  - N
CA75  10 05     BPL $CA7C                       A:80 X:00 Y:80 P:A5 SP:FB CYC:130  C I  - N
CA77  90 03     BCC $CA7C                       A:80 X:00 Y:80 P:A5 SP:FB CYC:136  C I  - N
CA79  4C 80 CA  JMP $CA80                       A:80 X:00 Y:80 P:A5 SP:FB CYC:142  C I  - N
CA80  EA        NOP                             A:80 X:00 Y:80 P:A5 SP:FB CYC:151  C I  - N
CA81  C0 80     CPY #$80                        A:80 X:00 Y:80 P:A5 SP:FB CYC:157  C I  - N
CA83  D0 07     BNE $CA8C                       A:80 X:00 Y:80 P:27 SP:FB CYC:163  CZI  -  
CA85  30 05     BMI $CA8C                       A:80 X:00 Y:80 P:27 SP:FB CYC:169  CZI  -  
CA87  90 03     BCC $CA8C                       A:80 X:00 Y:80 P:27 SP:FB CYC:175  CZI  -  
CA89  4C 90 CA  JMP $CA90                       A:80 X:00 Y:80 P:27 SP:FB CYC:181  CZI  -  
CA90  EA        NOP                             A:80 X:00 Y:80 P:27 SP:FB CYC:190  CZI  -  
CA91  C0 81     CPY #$81                        A:80 X:00 Y:80 P:27 SP:FB CYC:196  CZI  -  
CA93  B0 07     BCS $CA9C                       A:80 X:00 Y:80 P:A4 SP:FB CYC:202    I  - N
CA95  F0 05     BEQ $CA9C                       A:80 X:00 Y:80 P:A4 SP:FB CYC:208    I  - N
CA97  10 03     BPL $CA9C                       A:80 X:00 Y:80 P:A4 SP:FB CYC:214    I  - N
CA99  4C A0 CA  JMP $CAA0                       A:80 X:00 Y:80 P:A4 SP:FB CYC:220    I  - N
CAA0  EA        NOP                             A:80 X:00 Y:80 P:A4 SP:FB CYC:229    I  - N
CAA1  C0 7F     CPY #$7F                        A:80 X:00 Y:80 P:A4 SP:FB CYC:235    I  - N
CAA3  90 07     BCC $CAAC                       A:80 X:00 Y:80 P:25 SP:FB CYC:241  C I  -  
CAA5  F0 05     BEQ $CAAC                       A:80 X:00 Y:80 P:25 SP:FB CYC:247  C I  -  
CAA7  30 03     BMI $CAAC                       A:80 X:00 Y:80 P:25 SP:FB CYC:253  C I  -  
CAA9  4C B0 CA  JMP $CAB0                       A:80 X:00 Y:80 P:25 SP:FB CYC:259  C I  -  
CAB0  EA        NOP                             A:80 X:00 Y:80 P:25 SP:FB CYC:268  C I  -  
CAB1  24 01     BIT $01 = FF                    A:80 X:00 Y:80 P:25 SP:FB CYC:274  C I  -  
CAB3  A2 40     LDX #$40                        A:80 X:00 Y:80 P:E5 SP:FB CYC:283  C I  -VN
CAB5  E0 40     CPX #$40                        A:80 X:40 Y:80 P:65 SP:FB CYC:289  C I  -V 
CAB7  D0 09     BNE $CAC2                       A:80 X:40 Y:80 P:67 SP:FB CYC:295  CZI  -V 
CAB9  30 07     BMI $CAC2                       A:80 X:40 Y:80 P:67 SP:FB CYC:301  CZI  -V 
CABB  90 05     BCC $CAC2                       A:80 X:40 Y:80 P:67 SP:FB CYC:307  CZI  -V 
CABD  50 03     BVC $CAC2                       A:80 X:40 Y:80 P:67 SP:FB CYC:313  CZI  -V 
CABF  4C C6 CA  JMP $CAC6                       A:80 X:40 Y:80 P:67 SP:FB CYC:319  CZI  -V 
CAC6  EA        NOP                             A:80 X:40 Y:80 P:67 SP:FB CYC:328  CZI  -V 
CAC7  B8        CLV                             A:80 X:40 Y:80 P:67 SP:FB CYC:334  CZI  -V 
CAC8  E0 3F     CPX #$3F                        A:80 X:40 Y:80 P:27 SP:FB CYC:340  CZI  -  
CACA  F0 09     BEQ $CAD5                       A:80 X:40 Y:80 P:25 SP:FB CYC:  5  C I  -  
CACC  30 07     BMI $CAD5                       A:80 X:40 Y:80 P:25 SP:FB CYC: 11  C I  -  
CACE  90 05     BCC $CAD5                       A:80 X:40 Y:80 P:25 SP:FB CYC: 17  C I  -  
CAD0  70 03     BVS $CAD5                       A:80 X:40 Y:80 P:25 SP:FB CYC: 23  C I  -  
CAD2  4C D9 CA  JMP $CAD9                       A:80 X:40 Y:80 P:25 SP:FB CYC: 29  C I  -  
CAD9  EA        NOP                             A:80 X:40 Y:80 P:25 SP:FB CYC: 38  C I  -  
CADA  E0 41     CPX #$41                        A:80 X:40 Y:80 P:25 SP:FB CYC: 44  C I  -  
CADC  F0 07     BEQ $CAE5                       A:80 X:40 Y:80 P:A4 SP:FB CYC: 50    I  - N
CADE  10 05     BPL $CAE5                       A:80 X:40 Y:80 P:A4 SP:FB CYC: 56    I  - N
CAE0  10 03     BPL $CAE5                       A:80 X:40 Y:80 P:A4 SP:FB CYC: 62    I  - N
CAE2  4C E9 CA  JMP $CAE9                       A:80 X:40 Y:80 P:A4 SP:FB CYC: 68    I  - N
CAE9  EA        NOP                             A:80 X:40 Y:80 P:A4 SP:FB CYC: 77    I  - N
CAEA  A2 80     LDX #$80                        A:80 X:40 Y:80 P:A4 SP:FB CYC: 83    I  - N
CAEC  E0 00     CPX #$00                        A:80 X:80 Y:80 P:A4 SP:FB CYC: 89    I  - N
CAEE  F0 07     BEQ $CAF7                       A:80 X:80 Y:80 P:A5 SP:FB CYC: 95  C I  - N
CAF0  10 05     BPL $CAF7                       A:80 X:80 Y:80 P:A5 SP:FB CYC:101  C I  - N
CAF2  90 03     BCC $CAF7                       A:80 X:80 Y:80 P:A5 SP:FB CYC:107  C I  - N
CAF4  4C FB CA  JMP $CAFB                       A:80 X:80 Y:80 P:A5 SP:FB CYC:113  C I  - N
CAFB  EA        NOP                             A:80 X:80 Y:80 P:A5 SP:FB CYC:122  C I  - N
CAFC  E0 80     CPX #$80                        A:80 X:80 Y:80 P:A5 SP:FB CYC:128  C I  - N
CAFE  D0 07     BNE $CB07                       A:80 X:80 Y:80 P:27 SP:FB CYC:134  CZI  -  
CB00  30 05     BMI $CB07                       A:80 X:80 Y:80 P:27 SP:FB CYC:140  CZI  -  
CB02  90 03     BCC $CB07                       A:80 X:80 Y:80 P:27 SP:FB CYC:146  CZI  -  
CB04  4C 0B CB  JMP $CB0B                       A:80 X:80 Y:80 P:27 SP:FB CYC:152  CZI  -  
CB0B  EA        NOP                             A:80 X:80 Y:80 P:27 SP:FB CYC:161  CZI  -  
CB0C  E0 81     CPX #$81                        A:80 X:80 Y:80 P:27 SP:FB CYC:167  CZI  -  
CB0E  B0 07     BCS $CB17                       A:80 X:80 Y:80 P:A4 SP:FB CYC:173    I  - N
CB10  F0 05     BEQ $CB17                       A:80 X:80 Y:80 P:A4 SP:FB CYC:179    I  - N
CB12  10 03     BPL $CB17                       A:80 X:80 Y:80 P:A4 SP:FB CYC:185    I  - N
CB14  4C 1B CB  JMP $CB1B                       A:80 X:80 Y:80 P:A4 SP:FB CYC:191    I  - N
CB1B  EA        NOP                             A:80 X:80 Y:80 P:A4 SP:FB CYC:200    I  - N
CB1C  E0 7F     CPX #$7F                        A:80 X:80 Y:80 P:A4 SP:FB CYC:206    I  - N
CB1E  90 07     BCC $CB27                       A:80 X:80 Y:80 P:25 SP:FB CYC:212  C I  -  
CB20  F0 05     BEQ $CB27                       A:80 X:80 Y:80 P:25 SP:FB CYC:218  C I  -  
CB22  30 03     BMI $CB27                       A:80 X:80 Y:80 P:25 SP:FB CYC:224  C I  -  
CB24  4C 2B CB  JMP $CB2B                       A:80 X:80 Y:80 P:25 SP:FB CYC:230  C I  -  
CB2B  EA        NOP                             A:80 X:80 Y:80 P:25 SP:FB CYC:239  C I  -  
CB2C  38        SEC                             A:80 X:80 Y:80 P:25 SP:FB CYC:245  C I  -  
CB2D  B8        CLV                             A:80 X:80 Y:80 P:25 SP:FB CYC:251  C I  -  
CB2E  A2 9F     LDX #$9F                        A:80 X:80 Y:80 P:25 SP:FB CYC:257  C I  -  
CB30  F0 09     BEQ $CB3B                       A:80 X:9F Y:80 P:A5 SP:FB CYC:263  C I  - N
CB32  10 07     BPL $CB3B                       A:80 X:9F Y:80 P:A5 SP:FB CYC:269  C I  - N
CB34  70 05     BVS $CB3B                       A:80 X:9F Y:80 P:A5 SP:FB CYC:275  C I  - N
CB36  90 03     BCC $CB3B                       A:80 X:9F Y:80 P:A5 SP:FB CYC:281  C I  - N
CB38  4C 3F CB  JMP $CB3F                       A:80 X:9F Y:80 P:A5 SP:FB CYC:287  C I  - N
CB3F  EA        NOP                             A:80 X:9F Y:80 P:A5 SP:FB CYC:296  C I  - N
CB40  18        CLC                             A:80 X:9F Y:80 P:A5 SP:FB CYC:302  C I  - N
CB41  24 01     BIT $01 = FF                    A:80 X:9F Y:80 P:A4 SP:FB CYC:308    I  - N
CB43  A2 00     LDX #$00                        A:80 X:9F Y:80 P:E4 SP:FB CYC:317    I  -VN
CB45  D0 09     BNE $CB50                       A:80 X:00 Y:80 P:66 SP:FB CYC:323   ZI  -V 
CB47  30 07     BMI $CB50                       A:80 X:00 Y:80 P:66 SP:FB CYC:329   ZI  -V 
CB49  50 05     BVC $CB50                       A:80 X:00 Y:80 P:66 SP:FB CYC:335   ZI  -V 
CB4B  B0 03     BCS $CB50                       A:80 X:00 Y:80 P:66 SP:FB CYC:  0   ZI  -V 
CB4D  4C 54 CB  JMP $CB54                       A:80 X:00 Y:80 P:66 SP:FB CYC:  6   ZI  -V 
CB54  EA        NOP                             A:80 X:00 Y:80 P:66 SP:FB CYC: 15   ZI  -V 
CB55  38        SEC                             A:80 X:00 Y:80 P:66 SP:FB CYC: 21   ZI  -V 
CB56  B8        CLV                             A:80 X:00 Y:80 P:67 SP:FB CYC: 27  CZI  -V 
CB57  A0 9F     LDY #$9F                        A:80 X:00 Y:80 P:27 SP:FB CYC: 33  CZI  -  
CB59  F0 09     BEQ $CB64                       A:80 X:00 Y:9F P:A5 SP:FB CYC: 39  C I  - N
CB5B  10 07     BPL $CB64                       A:80 X:00 Y:9F P:A5 SP:FB CYC: 45  C I  - N
CB5D  70 05     BVS $CB64                       A:80 X:00 Y:9F P:A5 SP:FB CYC: 51  C I  - N
CB5F  90 03     BCC $CB64                       A:80 X:00 Y:9F P:A5 SP:FB CYC: 57  C I  - N
CB61  4C 68 CB  JMP $CB68                       A:80 X:00 Y:9F P:A5 SP:FB CYC: 63  C I  - N
CB68  EA        NOP                             A:80 X:00 Y:9F P:A5 SP:FB CYC: 72  C I  - N
CB69  18        CLC                             A:80 X:00 Y:9F P:A5 SP:FB CYC: 78  C I  - N
CB6A  24 01     BIT $01 = FF                    A:80 X:00 Y:9F P:A4 SP:FB CYC: 84    I  - N
CB6C  A0 00     LDY #$00                        A:80 X:00 Y:9F P:E4 SP:FB CYC: 93    I  -VN
CB6E  D0 09     BNE $CB79                       A:80 X:00 Y:00 P:66 SP:FB CYC: 99   ZI  -V 
CB70  30 07     BMI $CB79                       A:80 X:00 Y:00 P:66 SP:FB CYC:105   ZI  -V 
CB72  50 05     BVC $CB79                       A:80 X:00 Y:00 P:66 SP:FB CYC:111   ZI  -V 
CB74  B0 03     BCS $CB79                       A:80 X:00 Y:00 P:66 SP:FB CYC:117   ZI  -V 
CB76  4C 7D CB  JMP $CB7D                       A:80 X:00 Y:00 P:66 SP:FB CYC:123   ZI  -V 
CB7D  EA        NOP                             A:80 X:00 Y:00 P:66 SP:FB CYC:132   ZI  -V 
CB7E  A9 55     LDA #$55                        A:80 X:00 Y:00 P:66 SP:FB CYC:138   ZI  -V 
CB80  A2 AA     LDX #$AA                        A:55 X:00 Y:00 P:64 SP:FB CYC:144    I  -V 
CB82  A0 33     LDY #$33                        A:55 X:AA Y:00 P:E4 SP:FB CYC:150    I  -VN
CB84  C9 55     CMP #$55                        A:55 X:AA Y:33 P:64 SP:FB CYC:156    I  -V 
CB86  D0 23     BNE $CBAB                       A:55 X:AA Y:33 P:67 SP:FB CYC:162  CZI  -V 
CB88  E0 AA     CPX #$AA                        A:55 X:AA Y:33 P:67 SP:FB CYC:168  CZI  -V 
CB8A  D0 1F     BNE $CBAB                       A:55 X:AA Y:33 P:67 SP:FB CYC:174  CZI  -V 
CB8C  C0 33     CPY #$33                        A:55 X:AA Y:33 P:67 SP:FB CYC:180  CZI  -V 
CB8E  D0 1B     BNE $CBAB                       A:55 X:AA Y:33 P:67 SP:FB CYC:186  CZI  -V 
CB90  C9 55     CMP #$55                        A:55 X:AA Y:33 P:67 SP:FB CYC:192  CZI  -V 
CB92  D0 17     BNE $CBAB                       A:55 X:AA Y:33 P:67 SP:FB CYC:198  CZI  -V 
CB94  E0 AA     CPX #$AA                        A:55 X:AA Y:33 P:67 SP:FB CYC:204  CZI  -V 
CB96  D0 13     BNE $CBAB                       A:55 X:AA Y:33 P:67 SP:FB CYC:210  CZI  -V 
CB98  C0 33     CPY #$33                        A:55 X:AA Y:33 P:67 SP:FB CYC:216  CZI  -V 
CB9A  D0 0F     BNE $CBAB                       A:55 X:AA Y:33 P:67 SP:FB CYC:222  CZI  -V 
CB9C  C9 56     CMP #$56                        A:55 X:AA Y:33 P:67 SP:FB CYC:228  CZI  -V 
CB9E  F0 0B     BEQ $CBAB                       A:55 X:AA Y:33 P:E4 SP:FB CYC:234    I  -VN
CBA0  E0 AB     CPX #$AB                        A:55 X:AA Y:33 P:E4 SP:FB CYC:240    I  -VN
CBA2  F0 07     BEQ $CBAB                       A:55 X:AA Y:33 P:E4 SP:FB CYC:246    I  -VN
CBA4  C0 34     CPY #$34                        A:55 X:AA Y:33 P:E4 SP:FB CYC:252    I  -VN
CBA6  F0 03     BEQ $CBAB                       A:55 X:AA Y:33 P:E4 SP:FB CYC:258    I  -VN
CBA8  4C AF CB  JMP $CBAF                       A:55 X:AA Y:33 P:E4 SP:FB CYC:264    I  -VN
CBAF  A0 71     LDY #$71                        A:55 X:AA Y:33 P:E4 SP:FB CYC:273    I  -VN
CBB1  20 31 F9  JSR $F931                       A:55 X:AA Y:71 P:64 SP:FB CYC:279    I  -V 
F931  24 01     BIT $01 = FF                    A:55 X:AA Y:71 P:64 SP:F9 CYC:297    I  -V 
F933  A9 40     LDA #$40                        A:55 X:AA Y:71 P:E4 SP:F9 CYC:306    I  -VN
F935  38        SEC                             A:40 X:AA Y:71 P:64 SP:F9 CYC:312    I  -V 
F936  60        RTS                             A:40 X:AA Y:71 P:65 SP:F9 CYC:318  C I  -V 
CBB4  E9 40     SBC #$40                        A:40 X:AA Y:71 P:65 SP:FB CYC:336  C I  -V 
CBB6  20 37 F9  JSR $F937                       A:00 X:AA Y:71 P:27 SP:FB CYC:  1  CZI  -  
F937  30 0B     BMI $F944                       A:00 X:AA Y:71 P:27 SP:F9 CYC: 19  CZI  -  
F939  90 09     BCC $F944                       A:00 X:AA Y:71 P:27 SP:F9 CYC: 25  CZI  -  
F93B  D0 07     BNE $F944                       A:00 X:AA Y:71 P:27 SP:F9 CYC: 31  CZI  -  
F93D  70 05     BVS $F944                       A:00 X:AA Y:71 P:27 SP:F9 CYC: 37  CZI  -  
F93F  C9 00     CMP #$00                        A:00 X:AA Y:71 P:27 SP:F9 CYC: 43  CZI  -  
F941  D0 01     BNE $F944                       A:00 X:AA Y:71 P:27 SP:F9 CYC: 49  CZI  -  
F943  60        RTS                             A:00 X:AA Y:71 P:27 SP:F9 CYC: 55  CZI  -  
CBB9  C8        INY                             A:00 X:AA Y:71 P:27 SP:FB CYC: 73  CZI  -  
CBBA  20 47 F9  JSR $F947                       A:00 X:AA Y:72 P:25 SP:FB CYC: 79  C I  -  
F947  B8        CLV                             A:00 X:AA Y:72 P:25 SP:F9 CYC: 97  C I  -  
F948  38        SEC                             A:00 X:AA Y:72 P:25 SP:F9 CYC:103  C I  -  
F949  A9 40     LDA #$40                        A:00 X:AA Y:72 P:25 SP:F9 CYC:109  C I  -  
F94B  60        RTS                             A:40 X:AA Y:72 P:25 SP:F9 CYC:115  C I  -  
CBBD  E9 3F     SBC #$3F                        A:40 X:AA Y:72 P:25 SP:FB CYC:133  C I  -  
CBBF  20 4C F9  JSR $F94C                       A:01 X:AA Y:72 P:25 SP:FB CYC:139  C I  -  
F94C  F0 0B     BEQ $F959                       A:01 X:AA Y:72 P:25 SP:F9 CYC:157  C I  -  
F94E  30 09     BMI $F959                       A:01 X:AA Y:72 P:25 SP:F9 CYC:163  C I  -  
F950  90 07     BCC $F959                       A:01 X:AA Y:72 P:25 SP:F9 CYC:169  C I  -  
F952  70 05     BVS $F959                       A:01 X:AA Y:72 P:25 SP:F9 CYC:175  C I  -  
F954  C9 01     CMP #$01                        A:01 X:AA Y:72 P:25 SP:F9 CYC:181  C I  -  
F956  D0 01     BNE $F959                       A:01 X:AA Y:72 P:27 SP:F9 CYC:187  CZI  -  
F958  60        RTS                             A:01 X:AA Y:72 P:27 SP:F9 CYC:193  CZI  -  
CBC2  C8        INY                             A:01 X:AA Y:72 P:27 SP:FB CYC:211  CZI  -  
CBC3  20 5C F9  JSR $F95C                       A:01 X:AA Y:73 P:25 SP:FB CYC:217  C I  -  
F95C  A9 40     LDA #$40                        A:01 X:AA Y:73 P:25 SP:F9 CYC:235  C I  -  
F95E  38        SEC                             A:40 X:AA Y:73 P:25 SP:F9 CYC:241  C I  -  
F95F  24 01     BIT $01 = FF                    A:40 X:AA Y:73 P:25 SP:F9 CYC:247  C I  -  
F961  60        RTS                             A:40 X:AA Y:73 P:E5 SP:F9 CYC:256  C I  -VN
CBC6  E9 41     SBC #$41                        A:40 X:AA Y:73 P:E5 SP:FB CYC:274  C I  -VN
CBC8  20 62 F9  JSR $F962                       A:FF X:AA Y:73 P:A4 SP:FB CYC:280    I  - N
F962  B0 0B     BCS $F96F                       A:FF X:AA Y:73 P:A4 SP:F9 CYC:298    I  - N
F964  F0 09     BEQ $F96F                       A:FF X:AA Y:73 P:A4 SP:F9 CYC:304    I  - N
F966  10 07     BPL $F96F                       A:FF X:AA Y:73 P:A4 SP:F9 CYC:310    I  - N
F968  70 05     BVS $F96F                       A:FF X:AA Y:73 P:A4 SP:F9 CYC:316    I  - N
F96A  C9 FF     CMP #$FF                        A:FF X:AA Y:73 P:A4 SP:F9 CYC:322    I  - N
F96C  D0 01     BNE $F96F                       A:FF X:AA Y:73 P:27 SP:F9 CYC:328  CZI  -  
F96E  60        RTS                             A:FF X:AA Y:73 P:27 SP:F9 CYC:334  CZI  -  
CBCB  C8        INY                             A:FF X:AA Y:73 P:27 SP:FB CYC: 11  CZI  -  
CBCC  20 72 F9  JSR $F972                       A:FF X:AA Y:74 P:25 SP:FB CYC: 17  C I  -  
F972  18        CLC                             A:FF X:AA Y:74 P:25 SP:F9 CYC: 35  C I  -  
F973  A9 80     LDA #$80                        A:FF X:AA Y:74 P:24 SP:F9 CYC: 41    I  -  
F975  60        RTS                             A:80 X:AA Y:74 P:A4 SP:F9 CYC: 47    I  - N
CBCF  E9 00     SBC #$00                        A:80 X:AA Y:74 P:A4 SP:FB CYC: 65    I  - N
CBD1  20 76 F9  JSR $F976                       A:7F X:AA Y:74 P:65 SP:FB CYC: 71  C I  -V 
F976  90 05     BCC $F97D                       A:7F X:AA Y:74 P:65 SP:F9 CYC: 89  C I  -V 
F978  C9 7F     CMP #$7F                        A:7F X:AA Y:74 P:65 SP:F9 CYC: 95  C I  -V 
F97A  D0 01     BNE $F97D                       A:7F X:AA Y:74 P:67 SP:F9 CYC:101  CZI  -V 
F97C  60        RTS                             A:7F X:AA Y:74 P:67 SP:F9 CYC:107  CZI  -V 
CBD4  C8        INY                             A:7F X:AA Y:74 P:67 SP:FB CYC:125  CZI  -V 
CBD5  20 80 F9  JSR $F980                       A:7F X:AA Y:75 P:65 SP:FB CYC:131  C I  -V 
F980  38        SEC                             A:7F X:AA Y:75 P:65 SP:F9 CYC:149  C I  -V 
F981  A9 81     LDA #$81                        A:7F X:AA Y:75 P:65 SP:F9 CYC:155  C I  -V 
F983  60        RTS                             A:81 X:AA Y:75 P:E5 SP:F9 CYC:161  C I  -VN
CBD8  E9 7F     SBC #$7F                        A:81 X:AA Y:75 P:E5 SP:FB CYC:179  C I  -VN
CBDA  20 84 F9  JSR $F984                       A:02 X:AA Y:75 P:65 SP:FB CYC:185  C I  -V 
F984  50 07     BVC $F98D                       A:02 X:AA Y:75 P:65 SP:F9 CYC:203  C I  -V 
F986  90 05     BCC $F98D                       A:02 X:AA Y:75 P:65 SP:F9 CYC:209  C I  -V 
F988  C9 02     CMP #$02                        A:02 X:AA Y:75 P:65 SP:F9 CYC:215  C I  -V 
F98A  D0 01     BNE $F98D                       A:02 X:AA Y:75 P:67 SP:F9 CYC:221  CZI  -V 
F98C  60        RTS                             A:02 X:AA Y:75 P:67 SP:F9 CYC:227  CZI  -V 
CBDD  60        RTS                             A:02 X:AA Y:75 P:67 SP:FB CYC:245  CZI  -V 
C606  20 DE CB  JSR $CBDE                       A:02 X:AA Y:75 P:67 SP:FD CYC:263  CZI  -V 
CBDE  EA        NOP                             A:02 X:AA Y:75 P:67 SP:FB CYC:281  CZI  -V 
CBDF  A9 FF     LDA #$FF                        A:02 X:AA Y:75 P:67 SP:FB CYC:287  CZI  -V 
CBE1  85 01     STA $01 = FF                    A:FF X:AA Y:75 P:E5 SP:FB CYC:293  C I  -VN
CBE3  A9 44     LDA #$44                        A:FF X:AA Y:75 P:E5 SP:FB CYC:302  C I  -VN
CBE5  A2 55     LDX #$55                        A:44 X:AA Y:75 P:65 SP:FB CYC:308  C I  -V 
CBE7  A0 66     LDY #$66                        A:44 X:55 Y:75 P:65 SP:FB CYC:314  C I  -V 
CBE9  E8        INX                             A:44 X:55 Y:66 P:65 SP:FB CYC:320  C I  -V 
CBEA  88        DEY                             A:44 X:56 Y:66 P:65 SP:FB CYC:326  C I  -V 
CBEB  E0 56     CPX #$56                        A:44 X:56 Y:65 P:65 SP:FB CYC:332  C I  -V 
CBED  D0 21     BNE $CC10                       A:44 X:56 Y:65 P:67 SP:FB CYC:338  CZI  -V 
CBEF  C0 65     CPY #$65                        A:44 X:56 Y:65 P:67 SP:FB CYC:  3  CZI  -V 
CBF1  D0 1D     BNE $CC10                       A:44 X:56 Y:65 P:67 SP:FB CYC:  9  CZI  -V 
CBF3  E8        INX                             A:44 X:56 Y:65 P:67 SP:FB CYC: 15  CZI  -V 
CBF4  E8        INX                             A:44 X:57 Y:65 P:65 SP:FB CYC: 21  C I  -V 
CBF5  88        DEY                             A:44 X:58 Y:65 P:65 SP:FB CYC: 27  C I  -V 
CBF6  88        DEY                             A:44 X:58 Y:64 P:65 SP:FB CYC: 33  C I  -V 
CBF7  E0 58     CPX #$58                        A:44 X:58 Y:63 P:65 SP:FB CYC: 39  C I  -V 
CBF9  D0 15     BNE $CC10                       A:44 X:58 Y:63 P:67 SP:FB CYC: 45  CZI  -V 
CBFB  C0 63     CPY #$63                        A:44 X:58 Y:63 P:67 SP:FB CYC: 51  CZI  -V 
CBFD  D0 11     BNE $CC10                       A:44 X:58 Y:63 P:67 SP:FB CYC: 57  CZI  -V 
CBFF  CA        DEX                             A:44 X:58 Y:63 P:67 SP:FB CYC: 63  CZI  -V 
CC00  C8        INY                             A:44 X:57 Y:63 P:65 SP:FB CYC: 69  C I  -V 
CC01  E0 57     CPX #$57                        A:44 X:57 Y:64 P:65 SP:FB CYC: 75  C I  -V 
CC03  D0 0B     BNE $CC10                       A:44 X:57 Y:64 P:67 SP:FB CYC: 81  CZI  -V 
CC05  C0 64     CPY #$64                        A:44 X:57 Y:64 P:67 SP:FB CYC: 87  CZI  -V 
CC07  D0 07     BNE $CC10                       A:44 X:57 Y:64 P:67 SP:FB CYC: 93  CZI  -V 
CC09  C9 44     CMP #$44                        A:44 X:57 Y:64 P:67 SP:FB CYC: 99  CZI  -V 
CC0B  D0 03     BNE $CC10                       A:44 X:57 Y:64 P:67 SP:FB CYC:105  CZI  -V 
CC0D  4C 14 CC  JMP $CC14                       A:44 X:57 Y:64 P:67 SP:FB CYC:111  CZI  -V 
CC14  EA        NOP                             A:44 X:57 Y:64 P:67 SP:FB CYC:120  CZI  -V 
CC15  38        SEC                             A:44 X:57 Y:64 P:67 SP:FB CYC:126  CZI  -V 
CC16  A2 69     LDX #$69                        A:44 X:57 Y:64 P:67 SP:FB CYC:132  CZI  -V 
CC18  A9 96     LDA #$96                        A:44 X:69 Y:64 P:65 SP:FB CYC:138  C I  -V 
CC1A  24 01     BIT $01 = FF                    A:96 X:69 Y:64 P:E5 SP:FB CYC:144  C I  -VN
CC1C  A0 FF     LDY #$FF                        A:96 X:69 Y:64 P:E5 SP:FB CYC:153  C I  -VN
CC1E  C8        INY                             A:96 X:69 Y:FF P:E5 SP:FB CYC:159  C I  -VN
CC1F  D0 3D     BNE $CC5E                       A:96 X:69 Y:00 P:67 SP:FB CYC:165  CZI  -V 
CC21  30 3B     BMI $CC5E                       A:96 X:69 Y:00 P:67 SP:FB CYC:171  CZI  -V 
CC23  90 39     BCC $CC5E                       A:96 X:69 Y:00 P:67 SP:FB CYC:177  CZI  -V 
CC25  50 37     BVC $CC5E                       A:96 X:69 Y:00 P:67 SP:FB CYC:183  CZI  -V 
CC27  C0 00     CPY #$00                        A:96 X:69 Y:00 P:67 SP:FB CYC:189  CZI  -V 
CC29  D0 33     BNE $CC5E                       A:96 X:69 Y:00 P:67 SP:FB CYC:195  CZI  -V 
CC2B  C8        INY                             A:96 X:69 Y:00 P:67 SP:FB CYC:201  CZI  -V 
CC2C  F0 30     BEQ $CC5E                       A:96 X:69 Y:01 P:65 SP:FB CYC:207  C I  -V 
CC2E  30 2E     BMI $CC5E                       A:96 X:69 Y:01 P:65 SP:FB CYC:213  C I  -V 
CC30  90 2C     BCC $CC5E                       A:96 X:69 Y:01 P:65 SP:FB CYC:219  C I  -V 
CC32  50 2A     BVC $CC5E                       A:96 X:69 Y:01 P:65 SP:FB CYC:225  C I  -V 
CC34  18        CLC                             A:96 X:69 Y:01 P:65 SP:FB CYC:231  C I  -V 
CC35  B8        CLV                             A:96 X:69 Y:01 P:64 SP:FB CYC:237    I  -V 
CC36  A0 00     LDY #$00                        A:96 X:69 Y:01 P:24 SP:FB CYC:243    I  -  
CC38  88        DEY                             A:96 X:69 Y:00 P:26 SP:FB CYC:249   ZI  -  
CC39  F0 23     BEQ $CC5E                       A:96 X:69 Y:FF P:A4 SP:FB CYC:255    I  - N
CC3B  10 21     BPL $CC5E                       A:96 X:69 Y:FF P:A4 SP:FB CYC:261    I  - N
CC3D  B0 1F     BCS $CC5E                       A:96 X:69 Y:FF P:A4 SP:FB CYC:267    I  - N
CC3F  70 1D     BVS $CC5E                       A:96 X:69 Y:FF P:A4 SP:FB CYC:273    I  - N
CC41  C0 FF     CPY #$FF                        A:96 X:69 Y:FF P:A4 SP:FB CYC:279    I  - N
CC43  D0 19     BNE $CC5E                       A:96 X:69 Y:FF P:27 SP:FB CYC:285  CZI  -  
CC45  18        CLC                             A:96 X:69 Y:FF P:27 SP:FB CYC:291  CZI  -  
CC46  88        DEY                             A:96 X:69 Y:FF P:26 SP:FB CYC:297   ZI  -  
CC47  F0 15     BEQ $CC5E                       A:96 X:69 Y:FE P:A4 SP:FB CYC:303    I  - N
CC49  10 13     BPL $CC5E                       A:96 X:69 Y:FE P:A4 SP:FB CYC:309    I  - N
CC4B  B0 11     BCS $CC5E                       A:96 X:69 Y:FE P:A4 SP:FB CYC:315    I  - N
CC4D  70 0F     BVS $CC5E                       A:96 X:69 Y:FE P:A4 SP:FB CYC:321    I  - N
CC4F  C0 FE     CPY #$FE                        A:96 X:69 Y:FE P:A4 SP:FB CYC:327    I  - N
CC51  D0 0B     BNE $CC5E                       A:96 X:69 Y:FE P:27 SP:FB CYC:333  CZI  -  
CC53  C9 96     CMP #$96                        A:96 X:69 Y:FE P:27 SP:FB CYC:339  CZI  -  
CC55  D0 07     BNE $CC5E                       A:96 X:69 Y:FE P:27 SP:FB CYC:  4  CZI  -  
CC57  E0 69     CPX #$69                        A:96 X:69 Y:FE P:27 SP:FB CYC: 10  CZI  -  
CC59  D0 03     BNE $CC5E                       A:96 X:69 Y:FE P:27 SP:FB CYC: 16  CZI  -  
CC5B  4C 62 CC  JMP $CC62                       A:96 X:69 Y:FE P:27 SP:FB CYC: 22  CZI  -  
CC62  EA        NOP                             A:96 X:69 Y:FE P:27 SP:FB CYC: 31  CZI  -  
CC63  38        SEC                             A:96 X:69 Y:FE P:27 SP:FB CYC: 37  CZI  -  
CC64  A0 69     LDY #$69                        A:96 X:69 Y:FE P:27 SP:FB CYC: 43  CZI  -  
CC66  A9 96     LDA #$96                        A:96 X:69 Y:69 P:25 SP:FB CYC: 49  C I  -  
CC68  24 01     BIT $01 = FF                    A:96 X:69 Y:69 P:A5 SP:FB CYC: 55  C I  - N
CC6A  A2 FF     LDX #$FF                        A:96 X:69 Y:69 P:E5 SP:FB CYC: 64  C I  -VN
CC6C  E8        INX                             A:96 X:FF Y:69 P:E5 SP:FB CYC: 70  C I  -VN
CC6D  D0 3D     BNE $CCAC                       A:96 X:00 Y:69 P:67 SP:FB CYC: 76  CZI  -V 
CC6F  30 3B     BMI $CCAC                       A:96 X:00 Y:69 P:67 SP:FB CYC: 82  CZI  -V 
CC71  90 39     BCC $CCAC                       A:96 X:00 Y:69 P:67 SP:FB CYC: 88  CZI  -V 
CC73  50 37     BVC $CCAC                       A:96 X:00 Y:69 P:67 SP:FB CYC: 94  CZI  -V 
CC75  E0 00     CPX #$00                        A:96 X:00 Y:69 P:67 SP:FB CYC:100  CZI  -V 
CC77  D0 33     BNE $CCAC                       A:96 X:00 Y:69 P:67 SP:FB CYC:106  CZI  -V 
CC79  E8        INX                             A:96 X:00 Y:69 P:67 SP:FB CYC:112  CZI  -V 
CC7A  F0 30     BEQ $CCAC                       A:96 X:01 Y:69 P:65 SP:FB CYC:118  C I  -V 
CC7C  30 2E     BMI $CCAC                       A:96 X:01 Y:69 P:65 SP:FB CYC:124  C I  -V 
CC7E  90 2C     BCC $CCAC                       A:96 X:01 Y:69 P:65 SP:FB CYC:130  C I  -V 
CC80  50 2A     BVC $CCAC                       A:96 X:01 Y:69 P:65 SP:FB CYC:136  C I  -V 
CC82  18        CLC                             A:96 X:01 Y:69 P:65 SP:FB CYC:142  C I  -V 
CC83  B8        CLV                             A:96 X:01 Y:69 P:64 SP:FB CYC:148    I  -V 
CC84  A2 00     LDX #$00                        A:96 X:01 Y:69 P:24 SP:FB CYC:154    I  -  
CC86  CA        DEX                             A:96 X:00 Y:69 P:26 SP:FB CYC:160   ZI  -  
CC87  F0 23     BEQ $CCAC                       A:96 X:FF Y:69 P:A4 SP:FB CYC:166    I  - N
CC89  10 21     BPL $CCAC                       A:96 X:FF Y:69 P:A4 SP:FB CYC:172    I  - N
CC8B  B0 1F     BCS $CCAC                       A:96 X:FF Y:69 P:A4 SP:FB CYC:178    I  - N
CC8D  70 1D     BVS $CCAC                       A:96 X:FF Y:69 P:A4 SP:FB CYC:184    I  - N
CC8F  E0 FF     CPX #$FF                        A:96 X:FF Y:69 P:A4 SP:FB CYC:190    I  - N
CC91  D0 19     BNE $CCAC                       A:96 X:FF Y:69 P:27 SP:FB CYC:196  CZI  -  
CC93  18        CLC                             A:96 X:FF Y:69 P:27 SP:FB CYC:202  CZI  -  
CC94  CA        DEX                             A:96 X:FF Y:69 P:26 SP:FB CYC:208   ZI  -  
CC95  F0 15     BEQ $CCAC                       A:96 X:FE Y:69 P:A4 SP:FB CYC:214    I  - N
CC97  10 13     BPL $CCAC                       A:96 X:FE Y:69 P:A4 SP:FB CYC:220    I  - N
CC99  B0 11     BCS $CCAC                       A:96 X:FE Y:69 P:A4 SP:FB CYC:226    I  - N
CC9B  70 0F     BVS $CCAC                       A:96 X:FE Y:69 P:A4 SP:FB CYC:232    I  - N
CC9D  E0 FE     CPX #$FE                        A:96 X:FE Y:69 P:A4 SP:FB CYC:238    I  - N
CC9F  D0 0B     BNE $CCAC                       A:96 X:FE Y:69 P:27 SP:FB CYC:244  CZI  -  
CCA1  C9 96     CMP #$96                        A:96 X:FE Y:69 P:27 SP:FB CYC:250  CZI  -  
CCA3  D0 07     BNE $CCAC                       A:96 X:FE Y:69 P:27 SP:FB CYC:256  CZI  -  
CCA5  C0 69     CPY #$69                        A:96 X:FE Y:69 P:27 SP:FB CYC:262  CZI  -  
CCA7  D0 03     BNE $CCAC                       A:96 X:FE Y:69 P:27 SP:FB CYC:268  CZI  -  
CCA9  4C B0 CC  JMP $CCB0                       A:96 X:FE Y:69 P:27 SP:FB CYC:274  CZI  -  
CCB0  EA        NOP                             A:96 X:FE Y:69 P:27 SP:FB CYC:283  CZI  -  
CCB1  A9 85     LDA #$85                        A:96 X:FE Y:69 P:27 SP:FB CYC:289  CZI  -  
CCB3  A2 34     LDX #$34                        A:85 X:FE Y:69 P:A5 SP:FB CYC:295  C I  - N
CCB5  A0 99     LDY #$99                        A:85 X:34 Y:69 P:25 SP:FB CYC:301  C I  -  
CCB7  18        CLC                             A:85 X:34 Y:99 P:A5 SP:FB CYC:307  C I  - N
CCB8  24 01     BIT $01 = FF                    A:85 X:34 Y:99 P:A4 SP:FB CYC:313    I  - N
CCBA  A8        TAY                             A:85 X:34 Y:99 P:E4 SP:FB CYC:322    I  -VN
CCBB  F0 2E     BEQ $CCEB                       A:85 X:34 Y:85 P:E4 SP:FB CYC:328    I  -VN
CCBD  B0 2C     BCS $CCEB                       A:85 X:34 Y:85 P:E4 SP:FB CYC:334    I  -VN
CCBF  50 2A     BVC $CCEB                       A:85 X:34 Y:85 P:E4 SP:FB CYC:340    I  -VN
CCC1  10 28     BPL $CCEB                       A:85 X:34 Y:85 P:E4 SP:FB CYC:  5    I  -VN
CCC3  C9 85     CMP #$85                        A:85 X:34 Y:85 P:E4 SP:FB CYC: 11    I  -VN
CCC5  D0 24     BNE $CCEB                       A:85 X:34 Y:85 P:67 SP:FB CYC: 17  CZI  -V 
CCC7  E0 34     CPX #$34                        A:85 X:34 Y:85 P:67 SP:FB CYC: 23  CZI  -V 
CCC9  D0 20     BNE $CCEB                       A:85 X:34 Y:85 P:67 SP:FB CYC: 29  CZI  -V 
CCCB  C0 85     CPY #$85                        A:85 X:34 Y:85 P:67 SP:FB CYC: 35  CZI  -V 
CCCD  D0 1C     BNE $CCEB                       A:85 X:34 Y:85 P:67 SP:FB CYC: 41  CZI  -V 
CCCF  A9 00     LDA #$00                        A:85 X:34 Y:85 P:67 SP:FB CYC: 47  CZI  -V 
CCD1  38        SEC                             A:00 X:34 Y:85 P:67 SP:FB CYC: 53  CZI  -V 
CCD2  B8        CLV                             A:00 X:34 Y:85 P:67 SP:FB CYC: 59  CZI  -V 
CCD3  A8        TAY                             A:00 X:34 Y:85 P:27 SP:FB CYC: 65  CZI  -  
CCD4  D0 15     BNE $CCEB                       A:00 X:34 Y:00 P:27 SP:FB CYC: 71  CZI  -  
CCD6  90 13     BCC $CCEB                       A:00 X:34 Y:00 P:27 SP:FB CYC: 77  CZI  -  
CCD8  70 11     BVS $CCEB                       A:00 X:34 Y:00 P:27 SP:FB CYC: 83  CZI  -  
CCDA  30 0F     BMI $CCEB                       A:00 X:34 Y:00 P:27 SP:FB CYC: 89  CZI  -  
CCDC  C9 00     CMP #$00                        A:00 X:34 Y:00 P:27 SP:FB CYC: 95  CZI  -  
CCDE  D0 0B     BNE $CCEB                       A:00 X:34 Y:00 P:27 SP:FB CYC:101  CZI  -  
CCE0  E0 34     CPX #$34                        A:00 X:34 Y:00 P:27 SP:FB CYC:107  CZI  -  
CCE2  D0 07     BNE $CCEB                       A:00 X:34 Y:00 P:27 SP:FB CYC:113  CZI  -  
CCE4  C0 00     CPY #$00                        A:00 X:34 Y:00 P:27 SP:FB CYC:119  CZI  -  
CCE6  D0 03     BNE $CCEB                       A:00 X:34 Y:00 P:27 SP:FB CYC:125  CZI  -  
CCE8  4C EF CC  JMP $CCEF                       A:00 X:34 Y:00 P:27 SP:FB CYC:131  CZI  -  
CCEF  EA        NOP                             A:00 X:34 Y:00 P:27 SP:FB CYC:140  CZI  -  
CCF0  A9 85     LDA #$85                        A:00 X:34 Y:00 P:27 SP:FB CYC:146  CZI  -  
CCF2  A2 34     LDX #$34                        A:85 X:34 Y:00 P:A5 SP:FB CYC:152  C I  - N
CCF4  A0 99     LDY #$99                        A:85 X:34 Y:00 P:25 SP:FB CYC:158  C I  -  
CCF6  18        CLC                             A:85 X:34 Y:99 P:A5 SP:FB CYC:164  C I  - N
CCF7  24 01     BIT $01 = FF                    A:85 X:34 Y:99 P:A4 SP:FB CYC:170    I  - N
CCF9  AA        TAX                             A:85 X:34 Y:99 P:E4 SP:FB CYC:179    I  -VN
CCFA  F0 2E     BEQ $CD2A                       A:85 X:85 Y:99 P:E4 SP:FB CYC:185    I  -VN
CCFC  B0 2C     BCS $CD2A                       A:85 X:85 Y:99 P:E4 SP:FB CYC:191    I  -VN
CCFE  50 2A     BVC $CD2A                       A:85 X:85 Y:99 P:E4 SP:FB CYC:197    I  -VN
CD00  10 28     BPL $CD2A                       A:85 X:85 Y:99 P:E4 SP:FB CYC:203    I  -VN
CD02  C9 85     CMP #$85                        A:85 X:85 Y:99 P:E4 SP:FB CYC:209    I  -VN
CD04  D0 24     BNE $CD2A                       A:85 X:85 Y:99 P:67 SP:FB CYC:215  CZI  -V 
CD06  E0 85     CPX #$85                        A:85 X:85 Y:99 P:67 SP:FB CYC:221  CZI  -V 
CD08  D0 20     BNE $CD2A                       A:85 X:85 Y:99 P:67 SP:FB CYC:227  CZI  -V 
CD0A  C0 99     CPY #$99                        A:85 X:85 Y:99 P:67 SP:FB CYC:233  CZI  -V 
CD0C  D0 1C     BNE $CD2A                       A:85 X:85 Y:99 P:67 SP:FB CYC:239  CZI  -V 
CD0E  A9 00     LDA #$00                        A:85 X:85 Y:99 P:67 SP:FB CYC:245  CZI  -V 
CD10  38        SEC                             A:00 X:85 Y:99 P:67 SP:FB CYC:251  CZI  -V 
CD11  B8        CLV                             A:00 X:85 Y:99 P:67 SP:FB CYC:257  CZI  -V 
CD12  AA        TAX                             A:00 X:85 Y:99 P:27 SP:FB CYC:263  CZI  -  
CD13  D0 15     BNE $CD2A                       A:00 X:00 Y:99 P:27 SP:FB CYC:269  CZI  -  
CD15  90 13     BCC $CD2A                       A:00 X:00 Y:99 P:27 SP:FB CYC:275  CZI  -  
CD17  70 11     BVS $CD2A                       A:00 X:00 Y:99 P:27 SP:FB CYC:281  CZI  -  
CD19  30 0F     BMI $CD2A                       A:00 X:00 Y:99 P:27 SP:FB CYC:287  CZI  -  
CD1B  C9 00     CMP #$00                        A:00 X:00 Y:99 P:27 SP:FB CYC:293  CZI  -  
CD1D  D0 0B     BNE $CD2A                       A:00 X:00 Y:99 P:27 SP:FB CYC:299  CZI  -  
CD1F  E0 00     CPX #$00                        A:00 X:00 Y:99 P:27 SP:FB CYC:305  CZI  -  
CD21  D0 07     BNE $CD2A                       A:00 X:00 Y:99 P:27 SP:FB CYC:311  CZI  -  
CD23  C0 99     CPY #$99                        A:00 X:00 Y:99 P:27 SP:FB CYC:317  CZI  -  
CD25  D0 03     BNE $CD2A                       A:00 X:00 Y:99 P:27 SP:FB CYC:323  CZI  -  
CD27  4C 2E CD  JMP $CD2E                       A:00 X:00 Y:99 P:27 SP:FB CYC:329  CZI  -  
CD2E  EA        NOP                             A:00 X:00 Y:99 P:27 SP:FB CYC:338  CZI  -  
CD2F  A9 85     LDA #$85                        A:00 X:00 Y:99 P:27 SP:FB CYC:  3  CZI  -  
CD31  A2 34     LDX #$34                        A:85 X:00 Y:99 P:A5 SP:FB CYC:  9  C I  - N
CD33  A0 99     LDY #$99                        A:85 X:34 Y:99 P:25 SP:FB CYC: 15  C I  -  
CD35  18        CLC                             A:85 X:34 Y:99 P:A5 SP:FB CYC: 21  C I  - N
CD36  24 01     BIT $01 = FF                    A:85 X:34 Y:99 P:A4 SP:FB CYC: 27    I  - N
CD38  98        TYA                             A:85 X:34 Y:99 P:E4 SP:FB CYC: 36    I  -VN
CD39  F0 2E     BEQ $CD69                       A:99 X:34 Y:99 P:E4 SP:FB CYC: 42    I  -VN
CD3B  B0 2C     BCS $CD69                       A:99 X:34 Y:99 P:E4 SP:FB CYC: 48    I  -VN
CD3D  50 2A     BVC $CD69                       A:99 X:34 Y:99 P:E4 SP:FB CYC: 54    I  -VN
CD3F  10 28     BPL $CD69                       A:99 X:34 Y:99 P:E4 SP:FB CYC: 60    I  -VN
CD41  C9 99     CMP #$99                        A:99 X:34 Y:99 P:E4 SP:FB CYC: 66    I  -VN
CD43  D0 24     BNE $CD69                       A:99 X:34 Y:99 P:67 SP:FB CYC: 72  CZI  -V 
CD45  E0 34     CPX #$34                        A:99 X:34 Y:99 P:67 SP:FB CYC: 78  CZI  -V 
CD47  D0 20     BNE $CD69                       A:99 X:34 Y:99 P:67 SP:FB CYC: 84  CZI  -V 
CD49  C0 99     CPY #$99                        A:99 X:34 Y:99 P:67 SP:FB CYC: 90  CZI  -V 
CD4B  D0 1C     BNE $CD69                       A:99 X:34 Y:99 P:67 SP:FB CYC: 96  CZI  -V 
CD4D  A0 00     LDY #$00                        A:99 X:34 Y:99 P:67 SP:FB CYC:102  CZI  -V 
CD4F  38        SEC                             A:99 X:34 Y:00 P:67 SP:FB CYC:108  CZI  -V 
CD50  B8        CLV                             A:99 X:34 Y:00 P:67 SP:FB CYC:114  CZI  -V 
CD51  98        TYA                             A:99 X:34 Y:00 P:27 SP:FB CYC:120  CZI  -  
CD52  D0 15     BNE $CD69                       A:00 X:34 Y:00 P:27 SP:FB CYC:126  CZI  -  
CD54  90 13     BCC $CD69                       A:00 X:34 Y:00 P:27 SP:FB CYC:132  CZI  -  
CD56  70 11     BVS $CD69                       A:00 X:34 Y:00 P:27 SP:FB CYC:138  CZI  -  
CD58  30 0F     BMI $CD69                       A:00 X:34 Y:00 P:27 SP:FB CYC:144  CZI  -  
CD5A  C9 00     CMP #$00                        A:00 X:34 Y:00 P:27 SP:FB CYC:150  CZI  -  
CD5C  D0 0B     BNE $CD69                       A:00 X:34 Y:00 P:27 SP:FB CYC:156  CZI  -  
CD5E  E0 34     CPX #$34                        A:00 X:34 Y:00 P:27 SP:FB CYC:162  CZI  -  
CD60  D0 07     BNE $CD69                       A:00 X:34 Y:00 P:27 SP:FB CYC:168  CZI  -  
CD62  C0 00     CPY #$00                        A:00 X:34 Y:00 P:27 SP:FB CYC:174  CZI  -  
CD64  D0 03     BNE $CD69                       A:00 X:34 Y:00 P:27 SP:FB CYC:180  CZI  -  
CD66  4C 6D CD  JMP $CD6D                       A:00 X:34 Y:00 P:27 SP:FB CYC:186  CZI  -  
CD6D  EA        NOP                             A:00 X:34 Y:00 P:27 SP:FB CYC:195  CZI  -  
CD6E  A9 85     LDA #$85                        A:00 X:34 Y:00 P:27 SP:FB CYC:201  CZI  -  
CD70  A2 34     LDX #$34                        A:85 X:34 Y:00 P:A5 SP:FB CYC:207  C I  - N
CD72  A0 99     LDY #$99                        A:85 X:34 Y:00 P:25 SP:FB CYC:213  C I  -  
CD74  18        CLC                             A:85 X:34 Y:99 P:A5 SP:FB CYC:219  C I  - N
CD75  24 01     BIT $01 = FF                    A:85 X:34 Y:99 P:A4 SP:FB CYC:225    I  - N
CD77  8A        TXA                             A:85 X:34 Y:99 P:E4 SP:FB CYC:234    I  -VN
CD78  F0 2E     BEQ $CDA8                       A:34 X:34 Y:99 P:64 SP:FB CYC:240    I  -V 
CD7A  B0 2C     BCS $CDA8                       A:34 X:34 Y:99 P:64 SP:FB CYC:246    I  -V 
CD7C  50 2A     BVC $CDA8                       A:34 X:34 Y:99 P:64 SP:FB CYC:252    I  -V 
CD7E  30 28     BMI $CDA8                       A:34 X:34 Y:99 P:64 SP:FB CYC:258    I  -V 
CD80  C9 34     CMP #$34                        A:34 X:34 Y:99 P:64 SP:FB CYC:264    I  -V 
CD82  D0 24     BNE $CDA8                       A:34 X:34 Y:99 P:67 SP:FB CYC:270  CZI  -V 
CD84  E0 34     CPX #$34                        A:34 X:34 Y:99 P:67 SP:FB CYC:276  CZI  -V 
CD86  D0 20     BNE $CDA8                       A:34 X:34 Y:99 P:67 SP:FB CYC:282  CZI  -V 
CD88  C0 99     CPY #$99                        A:34 X:34 Y:99 P:67 SP:FB CYC:288  CZI  -V 
CD8A  D0 1C     BNE $CDA8                       A:34 X:34 Y:99 P:67 SP:FB CYC:294  CZI  -V 
CD8C  A2 00     LDX #$00                        A:34 X:34 Y:99 P:67 SP:FB CYC:300  CZI  -V 
CD8E  38        SEC                             A:34 X:00 Y:99 P:67 SP:FB CYC:306  CZI  -V 
CD8F  B8        CLV                             A:34 X:00 Y:99 P:67 SP:FB CYC:312  CZI  -V 
CD90  8A        TXA                             A:34 X:00 Y:99 P:27 SP:FB CYC:318  CZI  -  
CD91  D0 15     BNE $CDA8                       A:00 X:00 Y:99 P:27 SP:FB CYC:324  CZI  -  
CD93  90 13     BCC $CDA8                       A:00 X:00 Y:99 P:27 SP:FB CYC:330  CZI  -  
CD95  70 11     BVS $CDA8                       A:00 X:00 Y:99 P:27 SP:FB CYC:336  CZI  -  
CD97  30 0F     BMI $CDA8                       A:00 X:00 Y:99 P:27 SP:FB CYC:  1  CZI  -  
CD99  C9 00     CMP #$00                        A:00 X:00 Y:99 P:27 SP:FB CYC:  7  CZI  -  
CD9B  D0 0B     BNE $CDA8                       A:00 X:00 Y:99 P:27 SP:FB CYC: 13  CZI  -  
CD9D  E0 00     CPX #$00                        A:00 X:00 Y:99 P:27 SP:FB CYC: 19  CZI  -  
CD9F  D0 07     BNE $CDA8                       A:00 X:00 Y:99 P:27 SP:FB CYC: 25  CZI  -  
CDA1  C0 99     CPY #$99                        A:00 X:00 Y:99 P:27 SP:FB CYC: 31  CZI  -  
CDA3  D0 03     BNE $CDA8                       A:00 X:00 Y:99 P:27 SP:FB CYC: 37  CZI  -  
CDA5  4C AC CD  JMP $CDAC                       A:00 X:00 Y:99 P:27 SP:FB CYC: 43  CZI  -  
CDAC  EA        NOP                             A:00 X:00 Y:99 P:27 SP:FB CYC: 52  CZI  -  
CDAD  BA        TSX                             A:00 X:00 Y:99 P:27 SP:FB CYC: 58  CZI  -  
CDAE  8E FF 07  STX $07FF = 00                  A:00 X:FB Y:99 P:A5 SP:FB CYC: 64  C I  - N
CDB1  A0 33     LDY #$33                        A:00 X:FB Y:99 P:A5 SP:FB CYC: 76  C I  - N
CDB3  A2 69     LDX #$69                        A:00 X:FB Y:33 P:25 SP:FB CYC: 82  C I  -  
CDB5  A9 84     LDA #$84                        A:00 X:69 Y:33 P:25 SP:FB CYC: 88  C I  -  
CDB7  18        CLC                             A:84 X:69 Y:33 P:A5 SP:FB CYC: 94  C I  - N
CDB8  24 01     BIT $01 = FF                    A:84 X:69 Y:33 P:A4 SP:FB CYC:100    I  - N
CDBA  9A        TXS                             A:84 X:69 Y:33 P:E4 SP:FB CYC:109    I  -VN
CDBB  F0 32     BEQ $CDEF                       A:84 X:69 Y:33 P:E4 SP:69 CYC:115    I  -VN
CDBD  10 30     BPL $CDEF                       A:84 X:69 Y:33 P:E4 SP:69 CYC:121    I  -VN
CDBF  B0 2E     BCS $CDEF                       A:84 X:69 Y:33 P:E4 SP:69 CYC:127    I  -VN
CDC1  50 2C     BVC $CDEF                       A:84 X:69 Y:33 P:E4 SP:69 CYC:133    I  -VN
CDC3  C9 84     CMP #$84                        A:84 X:69 Y:33 P:E4 SP:69 CYC:139    I  -VN
CDC5  D0 28     BNE $CDEF                       A:84 X:69 Y:33 P:67 SP:69 CYC:145  CZI  -V 
CDC7  E0 69     CPX #$69                        A:84 X:69 Y:33 P:67 SP:69 CYC:151  CZI  -V 
CDC9  D0 24     BNE $CDEF                       A:84 X:69 Y:33 P:67 SP:69 CYC:157  CZI  -V 
CDCB  C0 33     CPY #$33                        A:84 X:69 Y:33 P:67 SP:69 CYC:163  CZI  -V 
CDCD  D0 20     BNE $CDEF                       A:84 X:69 Y:33 P:67 SP:69 CYC:169  CZI  -V 
CDCF  A0 01     LDY #$01                        A:84 X:69 Y:33 P:67 SP:69 CYC:175  CZI  -V 
CDD1  A9 04     LDA #$04                        A:84 X:69 Y:01 P:65 SP:69 CYC:181  C I  -V 
CDD3  38        SEC                             A:04 X:69 Y:01 P:65 SP:69 CYC:187  C I  -V 
CDD4  B8        CLV                             A:04 X:69 Y:01 P:65 SP:69 CYC:193  C I  -V 
CDD5  A2 00     LDX #$00                        A:04 X:69 Y:01 P:25 SP:69 CYC:199  C I  -  
CDD7  BA        TSX                             A:04 X:00 Y:01 P:27 SP:69 CYC:205  CZI  -  
CDD8  F0 15     BEQ $CDEF                       A:04 X:69 Y:01 P:25 SP:69 CYC:211  C I  -  
CDDA  30 13     BMI $CDEF                       A:04 X:69 Y:01 P:25 SP:69 CYC:217  C I  -  
CDDC  90 11     BCC $CDEF                       A:04 X:69 Y:01 P:25 SP:69 CYC:223  C I  -  
CDDE  70 0F     BVS $CDEF                       A:04 X:69 Y:01 P:25 SP:69 CYC:229  C I  -  
CDE0  E0 69     CPX #$69                        A:04 X:69 Y:01 P:25 SP:69 CYC:235  C I  -  
CDE2  D0 0B     BNE $CDEF                       A:04 X:69 Y:01 P:27 SP:69 CYC:241  CZI  -  
CDE4  C9 04     CMP #$04                        A:04 X:69 Y:01 P:27 SP:69 CYC:247  CZI  -  
CDE6  D0 07     BNE $CDEF                       A:04 X:69 Y:01 P:27 SP:69 CYC:253  CZI  -  
CDE8  C0 01     CPY #$01                        A:04 X:69 Y:01 P:27 SP:69 CYC:259  CZI  -  
CDEA  D0 03     BNE $CDEF                       A:04 X:69 Y:01 P:27 SP:69 CYC:265  CZI  -  
CDEC  4C F3 CD  JMP $CDF3                       A:04 X:69 Y:01 P:27 SP:69 CYC:271  CZI  -  
CDF3  AE FF 07  LDX $07FF = FB                  A:04 X:69 Y:01 P:27 SP:69 CYC:280  CZI  -  
CDF6  9A        TXS                             A:04 X:FB Y:01 P:A5 SP:69 CYC:292  C I  - N
CDF7  60        RTS                             A:04 X:FB Y:01 P:A5 SP:FB CYC:298  C I  - N
C609  20 F8 CD  JSR $CDF8                       A:04 X:FB Y:01 P:A5 SP:FD CYC:316  C I  - N
CDF8  A9 FF     LDA #$FF                        A:04 X:FB Y:01 P:A5 SP:FB CYC:334  C I  - N
CDFA  85 01     STA $01 = FF                    A:FF X:FB Y:01 P:A5 SP:FB CYC:340  C I  - N
CDFC  BA        TSX                             A:FF X:FB Y:01 P:A5 SP:FB CYC:  8  C I  - N
CDFD  8E FF 07  STX $07FF = FB                  A:FF X:FB Y:01 P:A5 SP:FB CYC: 14  C I  - N
CE00  EA        NOP                             A:FF X:FB Y:01 P:A5 SP:FB CYC: 26  C I  - N
CE01  A2 80     LDX #$80                        A:FF X:FB Y:01 P:A5 SP:FB CYC: 32  C I  - N
CE03  9A        TXS                             A:FF X:80 Y:01 P:A5 SP:FB CYC: 38  C I  - N
CE04  A9 33     LDA #$33                        A:FF X:80 Y:01 P:A5 SP:80 CYC: 44  C I  - N
CE06  48        PHA                             A:33 X:80 Y:01 P:25 SP:80 CYC: 50  C I  -  
CE07  A9 69     LDA #$69                        A:33 X:80 Y:01 P:25 SP:7F CYC: 59  C I  -  
CE09  48        PHA                             A:69 X:80 Y:01 P:25 SP:7F CYC: 65  C I  -  
CE0A  BA        TSX                             A:69 X:80 Y:01 P:25 SP:7E CYC: 74  C I  -  
CE0B  E0 7E     CPX #$7E                        A:69 X:7E Y:01 P:25 SP:7E CYC: 80  C I  -  
CE0D  D0 20     BNE $CE2F                       A:69 X:7E Y:01 P:27 SP:7E CYC: 86  CZI  -  
CE0F  68        PLA                             A:69 X:7E Y:01 P:27 SP:7E CYC: 92  CZI  -  
CE10  C9 69     CMP #$69                        A:69 X:7E Y:01 P:25 SP:7F CYC:104  C I  -  
CE12  D0 1B     BNE $CE2F                       A:69 X:7E Y:01 P:27 SP:7F CYC:110  CZI  -  
CE14  68        PLA                             A:69 X:7E Y:01 P:27 SP:7F CYC:116  CZI  -  
CE15  C9 33     CMP #$33                        A:33 X:7E Y:01 P:25 SP:80 CYC:128  C I  -  
CE17  D0 16     BNE $CE2F                       A:33 X:7E Y:01 P:27 SP:80 CYC:134  CZI  -  
CE19  BA        TSX                             A:33 X:7E Y:01 P:27 SP:80 CYC:140  CZI  -  
CE1A  E0 80     CPX #$80                        A:33 X:80 Y:01 P:A5 SP:80 CYC:146  C I  - N
CE1C  D0 11     BNE $CE2F                       A:33 X:80 Y:01 P:27 SP:80 CYC:152  CZI  -  
CE1E  AD 80 01  LDA $0180 = 33                  A:33 X:80 Y:01 P:27 SP:80 CYC:158  CZI  -  
CE21  C9 33     CMP #$33                        A:33 X:80 Y:01 P:25 SP:80 CYC:170  C I  -  
CE23  D0 0A     BNE $CE2F                       A:33 X:80 Y:01 P:27 SP:80 CYC:176  CZI  -  
CE25  AD 7F 01  LDA $017F = 69                  A:33 X:80 Y:01 P:27 SP:80 CYC:182  CZI  -  
CE28  C9 69     CMP #$69                        A:69 X:80 Y:01 P:25 SP:80 CYC:194  C I  -  
CE2A  D0 03     BNE $CE2F                       A:69 X:80 Y:01 P:27 SP:80 CYC:200  CZI  -  
CE2C  4C 33 CE  JMP $CE33                       A:69 X:80 Y:01 P:27 SP:80 CYC:206  CZI  -  
CE33  EA        NOP                             A:69 X:80 Y:01 P:27 SP:80 CYC:215  CZI  -  
CE34  A2 80     LDX #$80                        A:69 X:80 Y:01 P:27 SP:80 CYC:221  CZI  -  
CE36  9A        TXS                             A:69 X:80 Y:01 P:A5 SP:80 CYC:227  C I  - N
CE37  20 3D CE  JSR $CE3D                       A:69 X:80 Y:01 P:A5 SP:80 CYC:233  C I  - N
CE3D  BA        TSX                             A:69 X:80 Y:01 P:A5 SP:7E CYC:251  C I  - N
CE3E  E0 7E     CPX #$7E                        A:69 X:7E Y:01 P:25 SP:7E CYC:257  C I  -  
CE40  D0 19     BNE $CE5B                       A:69 X:7E Y:01 P:27 SP:7E CYC:263  CZI  -  
CE42  68        PLA                             A:69 X:7E Y:01 P:27 SP:7E CYC:269  CZI  -  
CE43  68        PLA                             A:39 X:7E Y:01 P:25 SP:7F CYC:281  C I  -  
CE44  BA        TSX                             A:CE X:7E Y:01 P:A5 SP:80 CYC:293  C I  - N
CE45  E0 80     CPX #$80                        A:CE X:80 Y:01 P:A5 SP:80 CYC:299  C I  - N
CE47  D0 12     BNE $CE5B                       A:CE X:80 Y:01 P:27 SP:80 CYC:305  CZI  -  
CE49  A9 00     LDA #$00                        A:CE X:80 Y:01 P:27 SP:80 CYC:311  CZI  -  
CE4B  20 4E CE  JSR $CE4E                       A:00 X:80 Y:01 P:27 SP:80 CYC:317  CZI  -  
CE4E  68        PLA                             A:00 X:80 Y:01 P:27 SP:7E CYC:335  CZI  -  
CE4F  C9 4D     CMP #$4D                        A:4D X:80 Y:01 P:25 SP:7F CYC:  6  C I  -  
CE51  D0 08     BNE $CE5B                       A:4D X:80 Y:01 P:27 SP:7F CYC: 12  CZI  -  
CE53  68        PLA                             A:4D X:80 Y:01 P:27 SP:7F CYC: 18  CZI  -  
CE54  C9 CE     CMP #$CE                        A:CE X:80 Y:01 P:A5 SP:80 CYC: 30  C I  - N
CE56  D0 03     BNE $CE5B                       A:CE X:80 Y:01 P:27 SP:80 CYC: 36  CZI  -  
CE58  4C 5F CE  JMP $CE5F                       A:CE X:80 Y:01 P:27 SP:80 CYC: 42  CZI  -  
CE5F  EA        NOP                             A:CE X:80 Y:01 P:27 SP:80 CYC: 51  CZI  -  
CE60  A9 CE     LDA #$CE                        A:CE X:80 Y:01 P:27 SP:80 CYC: 57  CZI  -  
CE62  48        PHA                             A:CE X:80 Y:01 P:A5 SP:80 CYC: 63  C I  - N
CE63  A9 66     LDA #$66                        A:CE X:80 Y:01 P:A5 SP:7F CYC: 72  C I  - N
CE65  48        PHA                             A:66 X:80 Y:01 P:25 SP:7F CYC: 78  C I  -  
CE66  60        RTS                             A:66 X:80 Y:01 P:25 SP:7E CYC: 87  C I  -  
CE67  A2 77     LDX #$77                        A:66 X:80 Y:01 P:25 SP:80 CYC:105  C I  -  
CE69  A0 69     LDY #$69                        A:66 X:77 Y:01 P:25 SP:80 CYC:111  C I  -  
CE6B  18        CLC                             A:66 X:77 Y:69 P:25 SP:80 CYC:117  C I  -  
CE6C  24 01     BIT $01 = FF                    A:66 X:77 Y:69 P:24 SP:80 CYC:123    I  -  
CE6E  A9 83     LDA #$83                        A:66 X:77 Y:69 P:E4 SP:80 CYC:132    I  -VN
CE70  20 66 CE  JSR $CE66                       A:83 X:77 Y:69 P:E4 SP:80 CYC:138    I  -VN
CE66  60        RTS                             A:83 X:77 Y:69 P:E4 SP:7E CYC:156    I  -VN
CE73  F0 24     BEQ $CE99                       A:83 X:77 Y:69 P:E4 SP:80 CYC:174    I  -VN
CE75  10 22     BPL $CE99                       A:83 X:77 Y:69 P:E4 SP:80 CYC:180    I  -VN
CE77  B0 20     BCS $CE99                       A:83 X:77 Y:69 P:E4 SP:80 CYC:186    I  -VN
CE79  50 1E     BVC $CE99                       A:83 X:77 Y:69 P:E4 SP:80 CYC:192    I  -VN
CE7B  C9 83     CMP #$83                        A:83 X:77 Y:69 P:E4 SP:80 CYC:198    I  -VN
CE7D  D0 1A     BNE $CE99                       A:83 X:77 Y:69 P:67 SP:80 CYC:204  CZI  -V 
CE7F  C0 69     CPY #$69                        A:83 X:77 Y:69 P:67 SP:80 CYC:210  CZI  -V 
CE81  D0 16     BNE $CE99                       A:83 X:77 Y:69 P:67 SP:80 CYC:216  CZI  -V 
CE83  E0 77     CPX #$77                        A:83 X:77 Y:69 P:67 SP:80 CYC:222  CZI  -V 
CE85  D0 12     BNE $CE99                       A:83 X:77 Y:69 P:67 SP:80 CYC:228  CZI  -V 
CE87  38        SEC                             A:83 X:77 Y:69 P:67 SP:80 CYC:234  CZI  -V 
CE88  B8        CLV                             A:83 X:77 Y:69 P:67 SP:80 CYC:240  CZI  -V 
CE89  A9 00     LDA #$00                        A:83 X:77 Y:69 P:27 SP:80 CYC:246  CZI  -  
CE8B  20 66 CE  JSR $CE66                       A:00 X:77 Y:69 P:27 SP:80 CYC:252  CZI  -  
CE66  60        RTS                             A:00 X:77 Y:69 P:27 SP:7E CYC:270  CZI  -  
CE8E  D0 09     BNE $CE99                       A:00 X:77 Y:69 P:27 SP:80 CYC:288  CZI  -  
CE90  30 07     BMI $CE99                       A:00 X:77 Y:69 P:27 SP:80 CYC:294  CZI  -  
CE92  90 05     BCC $CE99                       A:00 X:77 Y:69 P:27 SP:80 CYC:300  CZI  -  
CE94  70 03     BVS $CE99                       A:00 X:77 Y:69 P:27 SP:80 CYC:306  CZI  -  
CE96  4C 9D CE  JMP $CE9D                       A:00 X:77 Y:69 P:27 SP:80 CYC:312  CZI  -  
CE9D  EA        NOP                             A:00 X:77 Y:69 P:27 SP:80 CYC:321  CZI  -  
CE9E  A9 CE     LDA #$CE                        A:00 X:77 Y:69 P:27 SP:80 CYC:327  CZI  -  
CEA0  48        PHA                             A:CE X:77 Y:69 P:A5 SP:80 CYC:333  C I  - N
CEA1  A9 AE     LDA #$AE                        A:CE X:77 Y:69 P:A5 SP:7F CYC:  1  C I  - N
CEA3  48        PHA                             A:AE X:77 Y:69 P:A5 SP:7F CYC:  7  C I  - N
CEA4  A9 65     LDA #$65                        A:AE X:77 Y:69 P:A5 SP:7E CYC: 16  C I  - N
CEA6  48        PHA                             A:65 X:77 Y:69 P:25 SP:7E CYC: 22  C I  -  
CEA7  A9 55     LDA #$55                        A:65 X:77 Y:69 P:25 SP:7D CYC: 31  C I  -  
CEA9  A0 88     LDY #$88                        A:55 X:77 Y:69 P:25 SP:7D CYC: 37  C I  -  
CEAB  A2 99     LDX #$99                        A:55 X:77 Y:88 P:A5 SP:7D CYC: 43  C I  - N
CEAD  40        RTI                             A:55 X:99 Y:88 P:A5 SP:7D CYC: 49  C I  - N
CEAE  30 35     BMI $CEE5                       A:55 X:99 Y:88 P:65 SP:80 CYC: 67  C I  -V 
CEB0  50 33     BVC $CEE5                       A:55 X:99 Y:88 P:65 SP:80 CYC: 73  C I  -V 
CEB2  F0 31     BEQ $CEE5                       A:55 X:99 Y:88 P:65 SP:80 CYC: 79  C I  -V 
CEB4  90 2F     BCC $CEE5                       A:55 X:99 Y:88 P:65 SP:80 CYC: 85  C I  -V 
CEB6  C9 55     CMP #$55                        A:55 X:99 Y:88 P:65 SP:80 CYC: 91  C I  -V 
CEB8  D0 2B     BNE $CEE5                       A:55 X:99 Y:88 P:67 SP:80 CYC: 97  CZI  -V 
CEBA  C0 88     CPY #$88                        A:55 X:99 Y:88 P:67 SP:80 CYC:103  CZI  -V 
CEBC  D0 27     BNE $CEE5                       A:55 X:99 Y:88 P:67 SP:80 CYC:109  CZI  -V 
CEBE  E0 99     CPX #$99                        A:55 X:99 Y:88 P:67 SP:80 CYC:115  CZI  -V 
CEC0  D0 23     BNE $CEE5                       A:55 X:99 Y:88 P:67 SP:80 CYC:121  CZI  -V 
CEC2  A9 CE     LDA #$CE                        A:55 X:99 Y:88 P:67 SP:80 CYC:127  CZI  -V 
CEC4  48        PHA                             A:CE X:99 Y:88 P:E5 SP:80 CYC:133  C I  -VN
CEC5  A9 CE     LDA #$CE                        A:CE X:99 Y:88 P:E5 SP:7F CYC:142  C I  -VN
CEC7  48        PHA                             A:CE X:99 Y:88 P:E5 SP:7F CYC:148  C I  -VN
CEC8  A9 87     LDA #$87                        A:CE X:99 Y:88 P:E5 SP:7E CYC:157  C I  -VN
CECA  48        PHA                             A:87 X:99 Y:88 P:E5 SP:7E CYC:163  C I  -VN
CECB  A9 55     LDA #$55                        A:87 X:99 Y:88 P:E5 SP:7D CYC:172  C I  -VN
CECD  40        RTI                             A:55 X:99 Y:88 P:65 SP:7D CYC:178  C I  -V 
CECE  10 15     BPL $CEE5                       A:55 X:99 Y:88 P:A7 SP:80 CYC:196  CZI  - N
CED0  70 13     BVS $CEE5                       A:55 X:99 Y:88 P:A7 SP:80 CYC:202  CZI  - N
CED2  D0 11     BNE $CEE5                       A:55 X:99 Y:88 P:A7 SP:80 CYC:208  CZI  - N
CED4  90 0F     BCC $CEE5                       A:55 X:99 Y:88 P:A7 SP:80 CYC:214  CZI  - N
CED6  C9 55     CMP #$55                        A:55 X:99 Y:88 P:A7 SP:80 CYC:220  CZI  - N
CED8  D0 0B     BNE $CEE5                       A:55 X:99 Y:88 P:27 SP:80 CYC:226  CZI  -  
CEDA  C0 88     CPY #$88                        A:55 X:99 Y:88 P:27 SP:80 CYC:232  CZI  -  
CEDC  D0 07     BNE $CEE5                       A:55 X:99 Y:88 P:27 SP:80 CYC:238  CZI  -  
CEDE  E0 99     CPX #$99                        A:55 X:99 Y:88 P:27 SP:80 CYC:244  CZI  -  
CEE0  D0 03     BNE $CEE5                       A:55 X:99 Y:88 P:27 SP:80 CYC:250  CZI  -  
CEE2  4C E9 CE  JMP $CEE9                       A:55 X:99 Y:88 P:27 SP:80 CYC:256  CZI  -  
CEE9  AE FF 07  LDX $07FF = FB                  A:55 X:99 Y:88 P:27 SP:80 CYC:265  CZI  -  
CEEC  9A        TXS                             A:55 X:FB Y:88 P:A5 SP:80 CYC:277  C I  - N
CEED  60        RTS                             A:55 X:FB Y:88 P:A5 SP:FB CYC:283  C I  - N
C60C  20 EE CE  JSR $CEEE                       A:55 X:FB Y:88 P:A5 SP:FD CYC:301  C I  - N
CEEE  A2 55     LDX #$55                        A:55 X:FB Y:88 P:A5 SP:FB CYC:319  C I  - N
CEF0  A0 69     LDY #$69                        A:55 X:55 Y:88 P:25 SP:FB CYC:325  C I  -  
CEF2  A9 FF     LDA #$FF                        A:55 X:55 Y:69 P:25 SP:FB CYC:331  C I  -  
CEF4  85 01     STA $01 = FF                    A:FF X:55 Y:69 P:A5 SP:FB CYC:337  C I  - N
CEF6  EA        NOP                             A:FF X:55 Y:69 P:A5 SP:FB CYC:  5  C I  - N
CEF7  24 01     BIT $01 = FF                    A:FF X:55 Y:69 P:A5 SP:FB CYC: 11  C I  - N
CEF9  38        SEC                             A:FF X:55 Y:69 P:E5 SP:FB CYC: 20  C I  -VN
CEFA  A9 01     LDA #$01                        A:FF X:55 Y:69 P:E5 SP:FB CYC: 26  C I  -VN
CEFC  4A        LSR A                           A:01 X:55 Y:69 P:65 SP:FB CYC: 32  C I  -V 
CEFD  90 1D     BCC $CF1C                       A:00 X:55 Y:69 P:67 SP:FB CYC: 38  CZI  -V 
CEFF  D0 1B     BNE $CF1C                       A:00 X:55 Y:69 P:67 SP:FB CYC: 44  CZI  -V 
CF01  30 19     BMI $CF1C                       A:00 X:55 Y:69 P:67 SP:FB CYC: 50  CZI  -V 
CF03  50 17     BVC $CF1C                       A:00 X:55 Y:69 P:67 SP:FB CYC: 56  CZI  -V 
CF05  C9 00     CMP #$00                        A:00 X:55 Y:69 P:67 SP:FB CYC: 62  CZI  -V 
CF07  D0 13     BNE $CF1C                       A:00 X:55 Y:69 P:67 SP:FB CYC: 68  CZI  -V 
CF09  B8        CLV                             A:00 X:55 Y:69 P:67 SP:FB CYC: 74  CZI  -V 
CF0A  A9 AA     LDA #$AA                        A:00 X:55 Y:69 P:27 SP:FB CYC: 80  CZI  -  
CF0C  4A        LSR A                           A:AA X:55 Y:69 P:A5 SP:FB CYC: 86  C I  - N
CF0D  B0 0D     BCS $CF1C                       A:55 X:55 Y:69 P:24 SP:FB CYC: 92    I  -  
CF0F  F0 0B     BEQ $CF1C                       A:55 X:55 Y:69 P:24 SP:FB CYC: 98    I  -  
CF11  30 09     BMI $CF1C                       A:55 X:55 Y:69 P:24 SP:FB CYC:104    I  -  
CF13  70 07     BVS $CF1C                       A:55 X:55 Y:69 P:24 SP:FB CYC:110    I  -  
CF15  C9 55     CMP #$55                        A:55 X:55 Y:69 P:24 SP:FB CYC:116    I  -  
CF17  D0 03     BNE $CF1C                       A:55 X:55 Y:69 P:27 SP:FB CYC:122  CZI  -  
CF19  4C 20 CF  JMP $CF20                       A:55 X:55 Y:69 P:27 SP:FB CYC:128  CZI  -  
CF20  EA        NOP                             A:55 X:55 Y:69 P:27 SP:FB CYC:137  CZI  -  
CF21  24 01     BIT $01 = FF                    A:55 X:55 Y:69 P:27 SP:FB CYC:143  CZI  -  
CF23  38        SEC                             A:55 X:55 Y:69 P:E5 SP:FB CYC:152  C I  -VN
CF24  A9 80     LDA #$80                        A:55 X:55 Y:69 P:E5 SP:FB CYC:158  C I  -VN
CF26  0A        ASL A                           A:80 X:55 Y:69 P:E5 SP:FB CYC:164  C I  -VN
CF27  90 1E     BCC $CF47                       A:00 X:55 Y:69 P:67 SP:FB CYC:170  CZI  -V 
CF29  D0 1C     BNE $CF47                       A:00 X:55 Y:69 P:67 SP:FB CYC:176  CZI  -V 
CF2B  30 1A     BMI $CF47                       A:00 X:55 Y:69 P:67 SP:FB CYC:182  CZI  -V 
CF2D  50 18     BVC $CF47                       A:00 X:55 Y:69 P:67 SP:FB CYC:188  CZI  -V 
CF2F  C9 00     CMP #$00                        A:00 X:55 Y:69 P:67 SP:FB CYC:194  CZI  -V 
CF31  D0 14     BNE $CF47                       A:00 X:55 Y:69 P:67 SP:FB CYC:200  CZI  -V 
CF33  B8        CLV                             A:00 X:55 Y:69 P:67 SP:FB CYC:206  CZI  -V 
CF34  38        SEC                             A:00 X:55 Y:69 P:27 SP:FB CYC:212  CZI  -  
CF35  A9 55     LDA #$55                        A:00 X:55 Y:69 P:27 SP:FB CYC:218  CZI  -  
CF37  0A        ASL A                           A:55 X:55 Y:69 P:25 SP:FB CYC:224  C I  -  
CF38  B0 0D     BCS $CF47                       A:AA X:55 Y:69 P:A4 SP:FB CYC:230    I  - N
CF3A  F0 0B     BEQ $CF47                       A:AA X:55 Y:69 P:A4 SP:FB CYC:236    I  - N
CF3C  10 09     BPL $CF47                       A:AA X:55 Y:69 P:A4 SP:FB CYC:242    I  - N
CF3E  70 07     BVS $CF47                       A:AA X:55 Y:69 P:A4 SP:FB CYC:248    I  - N
CF40  C9 AA     CMP #$AA                        A:AA X:55 Y:69 P:A4 SP:FB CYC:254    I  - N
CF42  D0 03     BNE $CF47                       A:AA X:55 Y:69 P:27 SP:FB CYC:260  CZI  -  
CF44  4C 4B CF  JMP $CF4B                       A:AA X:55 Y:69 P:27 SP:FB CYC:266  CZI  -  
CF4B  EA        NOP                             A:AA X:55 Y:69 P:27 SP:FB CYC:275  CZI  -  
CF4C  24 01     BIT $01 = FF                    A:AA X:55 Y:69 P:27 SP:FB CYC:281  CZI  -  
CF4E  38        SEC                             A:AA X:55 Y:69 P:E5 SP:FB CYC:290  C I  -VN
CF4F  A9 01     LDA #$01                        A:AA X:55 Y:69 P:E5 SP:FB CYC:296  C I  -VN
CF51  6A        ROR A                           A:01 X:55 Y:69 P:65 SP:FB CYC:302  C I  -V 
CF52  90 1E     BCC $CF72                       A:80 X:55 Y:69 P:E5 SP:FB CYC:308  C I  -VN
CF54  F0 1C     BEQ $CF72                       A:80 X:55 Y:69 P:E5 SP:FB CYC:314  C I  -VN
CF56  10 1A     BPL $CF72                       A:80 X:55 Y:69 P:E5 SP:FB CYC:320  C I  -VN
CF58  50 18     BVC $CF72                       A:80 X:55 Y:69 P:E5 SP:FB CYC:326  C I  -VN
CF5A  C9 80     CMP #$80                        A:80 X:55 Y:69 P:E5 SP:FB CYC:332  C I  -VN
CF5C  D0 14     BNE $CF72                       A:80 X:55 Y:69 P:67 SP:FB CYC:338  CZI  -V 
CF5E  B8        CLV                             A:80 X:55 Y:69 P:67 SP:FB CYC:  3  CZI  -V 
CF5F  18        CLC                             A:80 X:55 Y:69 P:27 SP:FB CYC:  9  CZI  -  
CF60  A9 55     LDA #$55                        A:80 X:55 Y:69 P:26 SP:FB CYC: 15   ZI  -  
CF62  6A        ROR A                           A:55 X:55 Y:69 P:24 SP:FB CYC: 21    I  -  
CF63  90 0D     BCC $CF72                       A:2A X:55 Y:69 P:25 SP:FB CYC: 27  C I  -  
CF65  F0 0B     BEQ $CF72                       A:2A X:55 Y:69 P:25 SP:FB CYC: 33  C I  -  
CF67  30 09     BMI $CF72                       A:2A X:55 Y:69 P:25 SP:FB CYC: 39  C I  -  
CF69  70 07     BVS $CF72                       A:2A X:55 Y:69 P:25 SP:FB CYC: 45  C I  -  
CF6B  C9 2A     CMP #$2A                        A:2A X:55 Y:69 P:25 SP:FB CYC: 51  C I  -  
CF6D  D0 03     BNE $CF72                       A:2A X:55 Y:69 P:27 SP:FB CYC: 57  CZI  -  
CF6F  4C 76 CF  JMP $CF76                       A:2A X:55 Y:69 P:27 SP:FB CYC: 63  CZI  -  
CF76  EA        NOP                             A:2A X:55 Y:69 P:27 SP:FB CYC: 72  CZI  -  
CF77  24 01     BIT $01 = FF                    A:2A X:55 Y:69 P:27 SP:FB CYC: 78  CZI  -  
CF79  38        SEC                             A:2A X:55 Y:69 P:E5 SP:FB CYC: 87  C I  -VN
CF7A  A9 80     LDA #$80                        A:2A X:55 Y:69 P:E5 SP:FB CYC: 93  C I  -VN
CF7C  2A        ROL A                           A:80 X:55 Y:69 P:E5 SP:FB CYC: 99  C I  -VN
CF7D  90 1E     BCC $CF9D                       A:01 X:55 Y:69 P:65 SP:FB CYC:105  C I  -V 
CF7F  F0 1C     BEQ $CF9D                       A:01 X:55 Y:69 P:65 SP:FB CYC:111  C I  -V 
CF81  30 1A     BMI $CF9D                       A:01 X:55 Y:69 P:65 SP:FB CYC:117  C I  -V 
CF83  50 18     BVC $CF9D                       A:01 X:55 Y:69 P:65 SP:FB CYC:123  C I  -V 
CF85  C9 01     CMP #$01                        A:01 X:55 Y:69 P:65 SP:FB CYC:129  C I  -V 
CF87  D0 14     BNE $CF9D                       A:01 X:55 Y:69 P:67 SP:FB CYC:135  CZI  -V 
CF89  B8        CLV                             A:01 X:55 Y:69 P:67 SP:FB CYC:141  CZI  -V 
CF8A  18        CLC                             A:01 X:55 Y:69 P:27 SP:FB CYC:147  CZI  -  
CF8B  A9 55     LDA #$55                        A:01 X:55 Y:69 P:26 SP:FB CYC:153   ZI  -  
CF8D  2A        ROL A                           A:55 X:55 Y:69 P:24 SP:FB CYC:159    I  -  
CF8E  B0 0D     BCS $CF9D                       A:AA X:55 Y:69 P:A4 SP:FB CYC:165    I  - N
CF90  F0 0B     BEQ $CF9D                       A:AA X:55 Y:69 P:A4 SP:FB CYC:171    I  - N
CF92  10 09     BPL $CF9D                       A:AA X:55 Y:69 P:A4 SP:FB CYC:177    I  - N
CF94  70 07     BVS $CF9D                       A:AA X:55 Y:69 P:A4 SP:FB CYC:183    I  - N
CF96  C9 AA     CMP #$AA                        A:AA X:55 Y:69 P:A4 SP:FB CYC:189    I  - N
CF98  D0 03     BNE $CF9D                       A:AA X:55 Y:69 P:27 SP:FB CYC:195  CZI  -  
CF9A  4C A1 CF  JMP $CFA1                       A:AA X:55 Y:69 P:27 SP:FB CYC:201  CZI  -  
CFA1  60        RTS                             A:AA X:55 Y:69 P:27 SP:FB CYC:210  CZI  -  
C60F  20 A2 CF  JSR $CFA2                       A:AA X:55 Y:69 P:27 SP:FD CYC:228  CZI  -  
CFA2  A5 00     LDA $00 = 00                    A:AA X:55 Y:69 P:27 SP:FB CYC:246  CZI  -  
CFA4  8D FF 07  STA $07FF = FB                  A:00 X:55 Y:69 P:27 SP:FB CYC:255  CZI  -  
CFA7  A9 00     LDA #$00                        A:00 X:55 Y:69 P:27 SP:FB CYC:267  CZI  -  
CFA9  85 80     STA $80 = 00                    A:00 X:55 Y:69 P:27 SP:FB CYC:273  CZI  -  
CFAB  A9 02     LDA #$02                        A:00 X:55 Y:69 P:27 SP:FB CYC:282  CZI  -  
CFAD  85 81     STA $81 = 00                    A:02 X:55 Y:69 P:25 SP:FB CYC:288  C I  -  
CFAF  A9 FF     LDA #$FF                        A:02 X:55 Y:69 P:25 SP:FB CYC:297  C I  -  
CFB1  85 01     STA $01 = FF                    A:FF X:55 Y:69 P:A5 SP:FB CYC:303  C I  - N
CFB3  A9 00     LDA #$00                        A:FF X:55 Y:69 P:A5 SP:FB CYC:312  C I  - N
CFB5  85 82     STA $82 = 00                    A:00 X:55 Y:69 P:27 SP:FB CYC:318  CZI  -  
CFB7  A9 03     LDA #$03                        A:00 X:55 Y:69 P:27 SP:FB CYC:327  CZI  -  
CFB9  85 83     STA $83 = 00                    A:03 X:55 Y:69 P:25 SP:FB CYC:333  C I  -  
CFBB  85 84     STA $84 = 00                    A:03 X:55 Y:69 P:25 SP:FB CYC:  1  C I  -  
CFBD  A9 00     LDA #$00                        A:03 X:55 Y:69 P:25 SP:FB CYC: 10  C I  -  
CFBF  85 FF     STA $FF = 00                    A:00 X:55 Y:69 P:27 SP:FB CYC: 16  CZI  -  
CFC1  A9 04     LDA #$04                        A:00 X:55 Y:69 P:27 SP:FB CYC: 25  CZI  -  
CFC3  85 00     STA $00 = 00                    A:04 X:55 Y:69 P:25 SP:FB CYC: 31  C I  -  
CFC5  A9 5A     LDA #$5A                        A:04 X:55 Y:69 P:25 SP:FB CYC: 40  C I  -  
CFC7  8D 00 02  STA $0200 = 00                  A:5A X:55 Y:69 P:25 SP:FB CYC: 46  C I  -  
CFCA  A9 5B     LDA #$5B                        A:5A X:55 Y:69 P:25 SP:FB CYC: 58  C I  -  
CFCC  8D 00 03  STA $0300 = 00                  A:5B X:55 Y:69 P:25 SP:FB CYC: 64  C I  -  
CFCF  A9 5C     LDA #$5C                        A:5B X:55 Y:69 P:25 SP:FB CYC: 76  C I  -  
CFD1  8D 03 03  STA $0303 = 00                  A:5C X:55 Y:69 P:25 SP:FB CYC: 82  C I  -  
CFD4  A9 5D     LDA #$5D                        A:5C X:55 Y:69 P:25 SP:FB CYC: 94  C I  -  
CFD6  8D 00 04  STA $0400 = 00                  A:5D X:55 Y:69 P:25 SP:FB CYC:100  C I  -  
CFD9  A2 00     LDX #$00                        A:5D X:55 Y:69 P:25 SP:FB CYC:112  C I  -  
CFDB  A1 80     LDA ($80,X) @ 80 = 0200 = 5A    A:5D X:00 Y:69 P:27 SP:FB CYC:118  CZI  -  
CFDD  C9 5A     CMP #$5A                        A:5A X:00 Y:69 P:25 SP:FB CYC:136  C I  -  
CFDF  D0 1F     BNE $D000                       A:5A X:00 Y:69 P:27 SP:FB CYC:142  CZI  -  
CFE1  E8        INX                             A:5A X:00 Y:69 P:27 SP:FB CYC:148  CZI  -  
CFE2  E8        INX                             A:5A X:01 Y:69 P:25 SP:FB CYC:154  C I  -  
CFE3  A1 80     LDA ($80,X) @ 82 = 0300 = 5B    A:5A X:02 Y:69 P:25 SP:FB CYC:160  C I  -  
CFE5  C9 5B     CMP #$5B                        A:5B X:02 Y:69 P:25 SP:FB CYC:178  C I  -  
CFE7  D0 17     BNE $D000                       A:5B X:02 Y:69 P:27 SP:FB CYC:184  CZI  -  
CFE9  E8        INX                             A:5B X:02 Y:69 P:27 SP:FB CYC:190  CZI  -  
CFEA  A1 80     LDA ($80,X) @ 83 = 0303 = 5C    A:5B X:03 Y:69 P:25 SP:FB CYC:196  C I  -  
CFEC  C9 5C     CMP #$5C                        A:5C X:03 Y:69 P:25 SP:FB CYC:214  C I  -  
CFEE  D0 10     BNE $D000                       A:5C X:03 Y:69 P:27 SP:FB CYC:220  CZI  -  
CFF0  A2 00     LDX #$00                        A:5C X:03 Y:69 P:27 SP:FB CYC:226  CZI  -  
CFF2  A1 FF     LDA ($FF,X) @ FF = 0400 = 5D    A:5C X:00 Y:69 P:27 SP:FB CYC:232  CZI  -  
CFF4  C9 5D     CMP #$5D                        A:5D X:00 Y:69 P:25 SP:FB CYC:250  C I  -  
CFF6  D0 08     BNE $D000                       A:5D X:00 Y:69 P:27 SP:FB CYC:256  CZI  -  
CFF8  A2 81     LDX #$81                        A:5D X:00 Y:69 P:27 SP:FB CYC:262  CZI  -  
CFFA  A1 FF     LDA ($FF,X) @ 80 = 0200 = 5A    A:5D X:81 Y:69 P:A5 SP:FB CYC:268  C I  - N
CFFC  C9 5A     CMP #$5A                        A:5A X:81 Y:69 P:25 SP:FB CYC:286  C I  -  
CFFE  F0 05     BEQ $D005                       A:5A X:81 Y:69 P:27 SP:FB CYC:292  CZI  -  
D005  A9 AA     LDA #$AA                        A:5A X:81 Y:69 P:27 SP:FB CYC:301  CZI  -  
D007  A2 00     LDX #$00                        A:AA X:81 Y:69 P:A5 SP:FB CYC:307  C I  - N
D009  81 80     STA ($80,X) @ 80 = 0200 = 5A    A:AA X:00 Y:69 P:27 SP:FB CYC:313  CZI  -  
D00B  E8        INX                             A:AA X:00 Y:69 P:27 SP:FB CYC:331  CZI  -  
D00C  E8        INX                             A:AA X:01 Y:69 P:25 SP:FB CYC:337  C I  -  
D00D  A9 AB     LDA #$AB                        A:AA X:02 Y:69 P:25 SP:FB CYC:  2  C I  -  
D00F  81 80     STA ($80,X) @ 82 = 0300 = 5B    A:AB X:02 Y:69 P:A5 SP:FB CYC:  8  C I  - N
D011  E8        INX                             A:AB X:02 Y:69 P:A5 SP:FB CYC: 26  C I  - N
D012  A9 AC     LDA #$AC                        A:AB X:03 Y:69 P:25 SP:FB CYC: 32  C I  -  
D014  81 80     STA ($80,X) @ 83 = 0303 = 5C    A:AC X:03 Y:69 P:A5 SP:FB CYC: 38  C I  - N
D016  A2 00     LDX #$00                        A:AC X:03 Y:69 P:A5 SP:FB CYC: 56  C I  - N
D018  A9 AD     LDA #$AD                        A:AC X:00 Y:69 P:27 SP:FB CYC: 62  CZI  -  
D01A  81 FF     STA ($FF,X) @ FF = 0400 = 5D    A:AD X:00 Y:69 P:A5 SP:FB CYC: 68  C I  - N
D01C  AD 00 02  LDA $0200 = AA                  A:AD X:00 Y:69 P:A5 SP:FB CYC: 86  C I  - N
D01F  C9 AA     CMP #$AA                        A:AA X:00 Y:69 P:A5 SP:FB CYC: 98  C I  - N
D021  D0 15     BNE $D038                       A:AA X:00 Y:69 P:27 SP:FB CYC:104  CZI  -  
D023  AD 00 03  LDA $0300 = AB                  A:AA X:00 Y:69 P:27 SP:FB CYC:110  CZI  -  
D026  C9 AB     CMP #$AB                        A:AB X:00 Y:69 P:A5 SP:FB CYC:122  C I  - N
D028  D0 0E     BNE $D038                       A:AB X:00 Y:69 P:27 SP:FB CYC:128  CZI  -  
D02A  AD 03 03  LDA $0303 = AC                  A:AB X:00 Y:69 P:27 SP:FB CYC:134  CZI  -  
D02D  C9 AC     CMP #$AC                        A:AC X:00 Y:69 P:A5 SP:FB CYC:146  C I  - N
D02F  D0 07     BNE $D038                       A:AC X:00 Y:69 P:27 SP:FB CYC:152  CZI  -  
D031  AD 00 04  LDA $0400 = AD                  A:AC X:00 Y:69 P:27 SP:FB CYC:158  CZI  -  
D034  C9 AD     CMP #$AD                        A:AD X:00 Y:69 P:A5 SP:FB CYC:170  C I  - N
D036  F0 05     BEQ $D03D                       A:AD X:00 Y:69 P:27 SP:FB CYC:176  CZI  -  
D03D  AD FF 07  LDA $07FF = 00                  A:AD X:00 Y:69 P:27 SP:FB CYC:185  CZI  -  
D040  85 00     STA $00 = 04                    A:00 X:00 Y:69 P:27 SP:FB CYC:197  CZI  -  
D042  A9 00     LDA #$00                        A:00 X:00 Y:69 P:27 SP:FB CYC:206  CZI  -  
D044  8D 00 03  STA $0300 = AB                  A:00 X:00 Y:69 P:27 SP:FB CYC:212  CZI  -  
D047  A9 AA     LDA #$AA                        A:00 X:00 Y:69 P:27 SP:FB CYC:224  CZI  -  
D049  8D 00 02  STA $0200 = AA                  A:AA X:00 Y:69 P:A5 SP:FB CYC:230  C I  - N
D04C  A2 00     LDX #$00                        A:AA X:00 Y:69 P:A5 SP:FB CYC:242  C I  - N
D04E  A0 5A     LDY #$5A                        A:AA X:00 Y:69 P:27 SP:FB CYC:248  CZI  -  
D050  20 B6 F7  JSR $F7B6                       A:AA X:00 Y:5A P:25 SP:FB CYC:254  C I  -  
F7B6  18        CLC                             A:AA X:00 Y:5A P:25 SP:F9 CYC:272  C I  -  
F7B7  A9 FF     LDA #$FF                        A:AA X:00 Y:5A P:24 SP:F9 CYC:278    I  -  
F7B9  85 01     STA $01 = FF                    A:FF X:00 Y:5A P:A4 SP:F9 CYC:284    I  - N
F7BB  24 01     BIT $01 = FF                    A:FF X:00 Y:5A P:A4 SP:F9 CYC:293    I  - N
F7BD  A9 55     LDA #$55                        A:FF X:00 Y:5A P:E4 SP:F9 CYC:302    I  -VN
F7BF  60        RTS                             A:55 X:00 Y:5A P:64 SP:F9 CYC:308    I  -V 
D053  01 80     ORA ($80,X) @ 80 = 0200 = AA    A:55 X:00 Y:5A P:64 SP:FB CYC:326    I  -V 
D055  20 C0 F7  JSR $F7C0                       A:FF X:00 Y:5A P:E4 SP:FB CYC:  3    I  -VN
F7C0  B0 09     BCS $F7CB                       A:FF X:00 Y:5A P:E4 SP:F9 CYC: 21    I  -VN
F7C2  10 07     BPL $F7CB                       A:FF X:00 Y:5A P:E4 SP:F9 CYC: 27    I  -VN
F7C4  C9 FF     CMP #$FF                        A:FF X:00 Y:5A P:E4 SP:F9 CYC: 33    I  -VN
F7C6  D0 03     BNE $F7CB                       A:FF X:00 Y:5A P:67 SP:F9 CYC: 39  CZI  -V 
F7C8  50 01     BVC $F7CB                       A:FF X:00 Y:5A P:67 SP:F9 CYC: 45  CZI  -V 
F7CA  60        RTS                             A:FF X:00 Y:5A P:67 SP:F9 CYC: 51  CZI  -V 
D058  C8        INY                             A:FF X:00 Y:5A P:67 SP:FB CYC: 69  CZI  -V 
D059  20 CE F7  JSR $F7CE                       A:FF X:00 Y:5B P:65 SP:FB CYC: 75  C I  -V 
F7CE  38        SEC                             A:FF X:00 Y:5B P:65 SP:F9 CYC: 93  C I  -V 
F7CF  B8        CLV                             A:FF X:00 Y:5B P:65 SP:F9 CYC: 99  C I  -V 
F7D0  A9 00     LDA #$00                        A:FF X:00 Y:5B P:25 SP:F9 CYC:105  C I  -  
F7D2  60        RTS                             A:00 X:00 Y:5B P:27 SP:F9 CYC:111  CZI  -  
D05C  01 82     ORA ($82,X) @ 82 = 0300 = 00    A:00 X:00 Y:5B P:27 SP:FB CYC:129  CZI  -  
D05E  20 D3 F7  JSR $F7D3                       A:00 X:00 Y:5B P:27 SP:FB CYC:147  CZI  -  
F7D3  D0 07     BNE $F7DC                       A:00 X:00 Y:5B P:27 SP:F9 CYC:165  CZI  -  
F7D5  70 05     BVS $F7DC                       A:00 X:00 Y:5B P:27 SP:F9 CYC:171  CZI  -  
F7D7  90 03     BCC $F7DC                       A:00 X:00 Y:5B P:27 SP:F9 CYC:177  CZI  -  
F7D9  30 01     BMI $F7DC                       A:00 X:00 Y:5B P:27 SP:F9 CYC:183  CZI  -  
F7DB  60        RTS                             A:00 X:00 Y:5B P:27 SP:F9 CYC:189  CZI  -  
D061  C8        INY                             A:00 X:00 Y:5B P:27 SP:FB CYC:207  CZI  -  
D062  20 DF F7  JSR $F7DF                       A:00 X:00 Y:5C P:25 SP:FB CYC:213  C I  -  
F7DF  18        CLC                             A:00 X:00 Y:5C P:25 SP:F9 CYC:231  C I  -  
F7E0  24 01     BIT $01 = FF                    A:00 X:00 Y:5C P:24 SP:F9 CYC:237    I  -  
F7E2  A9 55     LDA #$55                        A:00 X:00 Y:5C P:E6 SP:F9 CYC:246   ZI  -VN
F7E4  60        RTS                             A:55 X:00 Y:5C P:64 SP:F9 CYC:252    I  -V 
D065  21 80     AND ($80,X) @ 80 = 0200 = AA    A:55 X:00 Y:5C P:64 SP:FB CYC:270    I  -V 
D067  20 E5 F7  JSR $F7E5                       A:00 X:00 Y:5C P:66 SP:FB CYC:288   ZI  -V 
F7E5  D0 07     BNE $F7EE                       A:00 X:00 Y:5C P:66 SP:F9 CYC:306   ZI  -V 
F7E7  50 05     BVC $F7EE                       A:00 X:00 Y:5C P:66 SP:F9 CYC:312   ZI  -V 
F7E9  B0 03     BCS $F7EE                       A:00 X:00 Y:5C P:66 SP:F9 CYC:318   ZI  -V 
F7EB  30 01     BMI $F7EE                       A:00 X:00 Y:5C P:66 SP:F9 CYC:324   ZI  -V 
F7ED  60        RTS                             A:00 X:00 Y:5C P:66 SP:F9 CYC:330   ZI  -V 
D06A  C8        INY                             A:00 X:00 Y:5C P:66 SP:FB CYC:  7   ZI  -V 
D06B  A9 EF     LDA #$EF                        A:00 X:00 Y:5D P:64 SP:FB CYC: 13    I  -V 
D06D  8D 00 03  STA $0300 = 00                  A:EF X:00 Y:5D P:E4 SP:FB CYC: 19    I  -VN
D070  20 F1 F7  JSR $F7F1                       A:EF X:00 Y:5D P:E4 SP:FB CYC: 31    I  -VN
F7F1  38        SEC                             A:EF X:00 Y:5D P:E4 SP:F9 CYC: 49    I  -VN
F7F2  B8        CLV                             A:EF X:00 Y:5D P:E5 SP:F9 CYC: 55  C I  -VN
F7F3  A9 F8     LDA #$F8                        A:EF X:00 Y:5D P:A5 SP:F9 CYC: 61  C I  - N
F7F5  60        RTS                             A:F8 X:00 Y:5D P:A5 SP:F9 CYC: 67  C I  - N
D073  21 82     AND ($82,X) @ 82 = 0300 = EF    A:F8 X:00 Y:5D P:A5 SP:FB CYC: 85  C I  - N
D075  20 F6 F7  JSR $F7F6                       A:E8 X:00 Y:5D P:A5 SP:FB CYC:103  C I  - N
F7F6  90 09     BCC $F801                       A:E8 X:00 Y:5D P:A5 SP:F9 CYC:121  C I  - N
F7F8  10 07     BPL $F801                       A:E8 X:00 Y:5D P:A5 SP:F9 CYC:127  C I  - N
F7FA  C9 E8     CMP #$E8                        A:E8 X:00 Y:5D P:A5 SP:F9 CYC:133  C I  - N
F7FC  D0 03     BNE $F801                       A:E8 X:00 Y:5D P:27 SP:F9 CYC:139  CZI  -  
F7FE  70 01     BVS $F801                       A:E8 X:00 Y:5D P:27 SP:F9 CYC:145  CZI  -  
F800  60        RTS                             A:E8 X:00 Y:5D P:27 SP:F9 CYC:151  CZI  -  
D078  C8        INY                             A:E8 X:00 Y:5D P:27 SP:FB CYC:169  CZI  -  
D079  20 04 F8  JSR $F804                       A:E8 X:00 Y:5E P:25 SP:FB CYC:175  C I  -  
F804  18        CLC                             A:E8 X:00 Y:5E P:25 SP:F9 CYC:193  C I  -  
F805  24 01     BIT $01 = FF                    A:E8 X:00 Y:5E P:24 SP:F9 CYC:199    I  -  
F807  A9 5F     LDA #$5F                        A:E8 X:00 Y:5E P:E4 SP:F9 CYC:208    I  -VN
F809  60        RTS                             A:5F X:00 Y:5E P:64 SP:F9 CYC:214    I  -V 
D07C  41 80     EOR ($80,X) @ 80 = 0200 = AA    A:5F X:00 Y:5E P:64 SP:FB CYC:232    I  -V 
D07E  20 0A F8  JSR $F80A                       A:F5 X:00 Y:5E P:E4 SP:FB CYC:250    I  -VN
F80A  B0 09     BCS $F815                       A:F5 X:00 Y:5E P:E4 SP:F9 CYC:268    I  -VN
F80C  10 07     BPL $F815                       A:F5 X:00 Y:5E P:E4 SP:F9 CYC:274    I  -VN
F80E  C9 F5     CMP #$F5                        A:F5 X:00 Y:5E P:E4 SP:F9 CYC:280    I  -VN
F810  D0 03     BNE $F815                       A:F5 X:00 Y:5E P:67 SP:F9 CYC:286  CZI  -V 
F812  50 01     BVC $F815                       A:F5 X:00 Y:5E P:67 SP:F9 CYC:292  CZI  -V 
F814  60        RTS                             A:F5 X:00 Y:5E P:67 SP:F9 CYC:298  CZI  -V 
D081  C8        INY                             A:F5 X:00 Y:5E P:67 SP:FB CYC:316  CZI  -V 
D082  A9 70     LDA #$70                        A:F5 X:00 Y:5F P:65 SP:FB CYC:322  C I  -V 
D084  8D 00 03  STA $0300 = EF                  A:70 X:00 Y:5F P:65 SP:FB CYC:328  C I  -V 
D087  20 18 F8  JSR $F818                       A:70 X:00 Y:5F P:65 SP:FB CYC:340  C I  -V 
F818  38        SEC                             A:70 X:00 Y:5F P:65 SP:F9 CYC: 17  C I  -V 
F819  B8        CLV                             A:70 X:00 Y:5F P:65 SP:F9 CYC: 23  C I  -V 
F81A  A9 70     LDA #$70                        A:70 X:00 Y:5F P:25 SP:F9 CYC: 29  C I  -  
F81C  60        RTS                             A:70 X:00 Y:5F P:25 SP:F9 CYC: 35  C I  -  
D08A  41 82     EOR ($82,X) @ 82 = 0300 = 70    A:70 X:00 Y:5F P:25 SP:FB CYC: 53  C I  -  
D08C  20 1D F8  JSR $F81D                       A:00 X:00 Y:5F P:27 SP:FB CYC: 71  CZI  -  
F81D  D0 07     BNE $F826                       A:00 X:00 Y:5F P:27 SP:F9 CYC: 89  CZI  -  
F81F  70 05     BVS $F826                       A:00 X:00 Y:5F P:27 SP:F9 CYC: 95  CZI  -  
F821  90 03     BCC $F826                       A:00 X:00 Y:5F P:27 SP:F9 CYC:101  CZI  -  
F823  30 01     BMI $F826                       A:00 X:00 Y:5F P:27 SP:F9 CYC:107  CZI  -  
F825  60        RTS                             A:00 X:00 Y:5F P:27 SP:F9 CYC:113  CZI  -  
D08F  C8        INY                             A:00 X:00 Y:5F P:27 SP:FB CYC:131  CZI  -  
D090  A9 69     LDA #$69                        A:00 X:00 Y:60 P:25 SP:FB CYC:137  C I  -  
D092  8D 00 02  STA $0200 = AA                  A:69 X:00 Y:60 P:25 SP:FB CYC:143  C I  -  
D095  20 29 F8  JSR $F829                       A:69 X:00 Y:60 P:25 SP:FB CYC:155  C I  -  
F829  18        CLC                             A:69 X:00 Y:60 P:25 SP:F9 CYC:173  C I  -  
F82A  24 01     BIT $01 = FF                    A:69 X:00 Y:60 P:24 SP:F9 CYC:179    I  -  
F82C  A9 00     LDA #$00                        A:69 X:00 Y:60 P:E4 SP:F9 CYC:188    I  -VN
F82E  60        RTS                             A:00 X:00 Y:60 P:66 SP:F9 CYC:194   ZI  -V 
D098  61 80     ADC ($80,X) @ 80 = 0200 = 69    A:00 X:00 Y:60 P:66 SP:FB CYC:212   ZI  -V 
D09A  20 2F F8  JSR $F82F                       A:69 X:00 Y:60 P:24 SP:FB CYC:230    I  -  
F82F  30 09     BMI $F83A                       A:69 X:00 Y:60 P:24 SP:F9 CYC:248    I  -  
F831  B0 07     BCS $F83A                       A:69 X:00 Y:60 P:24 SP:F9 CYC:254    I  -  
F833  C9 69     CMP #$69                        A:69 X:00 Y:60 P:24 SP:F9 CYC:260    I  -  
F835  D0 03     BNE $F83A                       A:69 X:00 Y:60 P:27 SP:F9 CYC:266  CZI  -  
F837  70 01     BVS $F83A                       A:69 X:00 Y:60 P:27 SP:F9 CYC:272  CZI  -  
F839  60        RTS                             A:69 X:00 Y:60 P:27 SP:F9 CYC:278  CZI  -  
D09D  C8        INY                             A:69 X:00 Y:60 P:27 SP:FB CYC:296  CZI  -  
D09E  20 3D F8  JSR $F83D                       A:69 X:00 Y:61 P:25 SP:FB CYC:302  C I  -  
F83D  38        SEC                             A:69 X:00 Y:61 P:25 SP:F9 CYC:320  C I  -  
F83E  24 01     BIT $01 = FF                    A:69 X:00 Y:61 P:25 SP:F9 CYC:326  C I  -  
F840  A9 00     LDA #$00                        A:69 X:00 Y:61 P:E5 SP:F9 CYC:335  C I  -VN
F842  60        RTS                             A:00 X:00 Y:61 P:67 SP:F9 CYC:  0  CZI  -V 
D0A1  61 80     ADC ($80,X) @ 80 = 0200 = 69    A:00 X:00 Y:61 P:67 SP:FB CYC: 18  CZI  -V 
D0A3  20 43 F8  JSR $F843                       A:6A X:00 Y:61 P:24 SP:FB CYC: 36    I  -  
F843  30 09     BMI $F84E                       A:6A X:00 Y:61 P:24 SP:F9 CYC: 54    I  -  
F845  B0 07     BCS $F84E                       A:6A X:00 Y:61 P:24 SP:F9 CYC: 60    I  -  
F847  C9 6A     CMP #$6A                        A:6A X:00 Y:61 P:24 SP:F9 CYC: 66    I  -  
F849  D0 03     BNE $F84E                       A:6A X:00 Y:61 P:27 SP:F9 CYC: 72  CZI  -  
F84B  70 01     BVS $F84E                       A:6A X:00 Y:61 P:27 SP:F9 CYC: 78  CZI  -  
F84D  60        RTS                             A:6A X:00 Y:61 P:27 SP:F9 CYC: 84  CZI  -  
D0A6  C8        INY                             A:6A X:00 Y:61 P:27 SP:FB CYC:102  CZI  -  
D0A7  A9 7F     LDA #$7F                        A:6A X:00 Y:62 P:25 SP:FB CYC:108  C I  -  
D0A9  8D 00 02  STA $0200 = 69                  A:7F X:00 Y:62 P:25 SP:FB CYC:114  C I  -  
D0AC  20 51 F8  JSR $F851                       A:7F X:00 Y:62 P:25 SP:FB CYC:126  C I  -  
F851  38        SEC                             A:7F X:00 Y:62 P:25 SP:F9 CYC:144  C I  -  
F852  B8        CLV                             A:7F X:00 Y:62 P:25 SP:F9 CYC:150  C I  -  
F853  A9 7F     LDA #$7F                        A:7F X:00 Y:62 P:25 SP:F9 CYC:156  C I  -  
F855  60        RTS                             A:7F X:00 Y:62 P:25 SP:F9 CYC:162  C I  -  
D0AF  61 80     ADC ($80,X) @ 80 = 0200 = 7F    A:7F X:00 Y:62 P:25 SP:FB CYC:180  C I  -  
D0B1  20 56 F8  JSR $F856                       A:FF X:00 Y:62 P:E4 SP:FB CYC:198    I  -VN
F856  10 09     BPL $F861                       A:FF X:00 Y:62 P:E4 SP:F9 CYC:216    I  -VN
F858  B0 07     BCS $F861                       A:FF X:00 Y:62 P:E4 SP:F9 CYC:222    I  -VN
F85A  C9 FF     CMP #$FF                        A:FF X:00 Y:62 P:E4 SP:F9 CYC:228    I  -VN
F85C  D0 03     BNE $F861                       A:FF X:00 Y:62 P:67 SP:F9 CYC:234  CZI  -V 
F85E  50 01     BVC $F861                       A:FF X:00 Y:62 P:67 SP:F9 CYC:240  CZI  -V 
F860  60        RTS                             A:FF X:00 Y:62 P:67 SP:F9 CYC:246  CZI  -V 
D0B4  C8        INY                             A:FF X:00 Y:62 P:67 SP:FB CYC:264  CZI  -V 
D0B5  A9 80     LDA #$80                        A:FF X:00 Y:63 P:65 SP:FB CYC:270  C I  -V 
D0B7  8D 00 02  STA $0200 = 7F                  A:80 X:00 Y:63 P:E5 SP:FB CYC:276  C I  -VN
D0BA  20 64 F8  JSR $F864                       A:80 X:00 Y:63 P:E5 SP:FB CYC:288  C I  -VN
F864  18        CLC                             A:80 X:00 Y:63 P:E5 SP:F9 CYC:306  C I  -VN
F865  24 01     BIT $01 = FF                    A:80 X:00 Y:63 P:E4 SP:F9 CYC:312    I  -VN
F867  A9 7F     LDA #$7F                        A:80 X:00 Y:63 P:E4 SP:F9 CYC:321    I  -VN
F869  60        RTS                             A:7F X:00 Y:63 P:64 SP:F9 CYC:327    I  -V 
D0BD  61 80     ADC ($80,X) @ 80 = 0200 = 80    A:7F X:00 Y:63 P:64 SP:FB CYC:  4    I  -V 
D0BF  20 6A F8  JSR $F86A                       A:FF X:00 Y:63 P:A4 SP:FB CYC: 22    I  - N
F86A  10 09     BPL $F875                       A:FF X:00 Y:63 P:A4 SP:F9 CYC: 40    I  - N
F86C  B0 07     BCS $F875                       A:FF X:00 Y:63 P:A4 SP:F9 CYC: 46    I  - N
F86E  C9 FF     CMP #$FF                        A:FF X:00 Y:63 P:A4 SP:F9 CYC: 52    I  - N
F870  D0 03     BNE $F875                       A:FF X:00 Y:63 P:27 SP:F9 CYC: 58  CZI  -  
F872  70 01     BVS $F875                       A:FF X:00 Y:63 P:27 SP:F9 CYC: 64  CZI  -  
F874  60        RTS                             A:FF X:00 Y:63 P:27 SP:F9 CYC: 70  CZI  -  
D0C2  C8        INY                             A:FF X:00 Y:63 P:27 SP:FB CYC: 88  CZI  -  
D0C3  20 78 F8  JSR $F878                       A:FF X:00 Y:64 P:25 SP:FB CYC: 94  C I  -  
F878  38        SEC                             A:FF X:00 Y:64 P:25 SP:F9 CYC:112  C I  -  
F879  B8        CLV                             A:FF X:00 Y:64 P:25 SP:F9 CYC:118  C I  -  
F87A  A9 7F     LDA #$7F                        A:FF X:00 Y:64 P:25 SP:F9 CYC:124  C I  -  
F87C  60        RTS                             A:7F X:00 Y:64 P:25 SP:F9 CYC:130  C I  -  
D0C6  61 80     ADC ($80,X) @ 80 = 0200 = 80    A:7F X:00 Y:64 P:25 SP:FB CYC:148  C I  -  
D0C8  20 7D F8  JSR $F87D                       A:00 X:00 Y:64 P:27 SP:FB CYC:166  CZI  -  
F87D  D0 07     BNE $F886                       A:00 X:00 Y:64 P:27 SP:F9 CYC:184  CZI  -  
F87F  30 05     BMI $F886                       A:00 X:00 Y:64 P:27 SP:F9 CYC:190  CZI  -  
F881  70 03     BVS $F886                       A:00 X:00 Y:64 P:27 SP:F9 CYC:196  CZI  -  
F883  90 01     BCC $F886                       A:00 X:00 Y:64 P:27 SP:F9 CYC:202  CZI  -  
F885  60        RTS                             A:00 X:00 Y:64 P:27 SP:F9 CYC:208  CZI  -  
D0CB  C8        INY                             A:00 X:00 Y:64 P:27 SP:FB CYC:226  CZI  -  
D0CC  A9 40     LDA #$40                        A:00 X:00 Y:65 P:25 SP:FB CYC:232  C I  -  
D0CE  8D 00 02  STA $0200 = 80                  A:40 X:00 Y:65 P:25 SP:FB CYC:238  C I  -  
D0D1  20 89 F8  JSR $F889                       A:40 X:00 Y:65 P:25 SP:FB CYC:250  C I  -  
F889  24 01     BIT $01 = FF                    A:40 X:00 Y:65 P:25 SP:F9 CYC:268  C I  -  
F88B  A9 40     LDA #$40                        A:40 X:00 Y:65 P:E5 SP:F9 CYC:277  C I  -VN
F88D  60        RTS                             A:40 X:00 Y:65 P:65 SP:F9 CYC:283  C I  -V 
D0D4  C1 80     CMP ($80,X) @ 80 = 0200 = 40    A:40 X:00 Y:65 P:65 SP:FB CYC:301  C I  -V 
D0D6  20 8E F8  JSR $F88E                       A:40 X:00 Y:65 P:67 SP:FB CYC:319  CZI  -V 
F88E  30 07     BMI $F897                       A:40 X:00 Y:65 P:67 SP:F9 CYC:337  CZI  -V 
F890  90 05     BCC $F897                       A:40 X:00 Y:65 P:67 SP:F9 CYC:  2  CZI  -V 
F892  D0 03     BNE $F897                       A:40 X:00 Y:65 P:67 SP:F9 CYC:  8  CZI  -V 
F894  50 01     BVC $F897                       A:40 X:00 Y:65 P:67 SP:F9 CYC: 14  CZI  -V 
F896  60        RTS                             A:40 X:00 Y:65 P:67 SP:F9 CYC: 20  CZI  -V 
D0D9  C8        INY                             A:40 X:00 Y:65 P:67 SP:FB CYC: 38  CZI  -V 
D0DA  48        PHA                             A:40 X:00 Y:66 P:65 SP:FB CYC: 44  C I  -V 
D0DB  A9 3F     LDA #$3F                        A:40 X:00 Y:66 P:65 SP:FA CYC: 53  C I  -V 
D0DD  8D 00 02  STA $0200 = 40                  A:3F X:00 Y:66 P:65 SP:FA CYC: 59  C I  -V 
D0E0  68        PLA                             A:3F X:00 Y:66 P:65 SP:FA CYC: 71  C I  -V 
D0E1  20 9A F8  JSR $F89A                       A:40 X:00 Y:66 P:65 SP:FB CYC: 83  C I  -V 
F89A  B8        CLV                             A:40 X:00 Y:66 P:65 SP:F9 CYC:101  C I  -V 
F89B  60        RTS                             A:40 X:00 Y:66 P:25 SP:F9 CYC:107  C I  -  
D0E4  C1 80     CMP ($80,X) @ 80 = 0200 = 3F    A:40 X:00 Y:66 P:25 SP:FB CYC:125  C I  -  
D0E6  20 9C F8  JSR $F89C                       A:40 X:00 Y:66 P:25 SP:FB CYC:143  C I  -  
F89C  F0 07     BEQ $F8A5                       A:40 X:00 Y:66 P:25 SP:F9 CYC:161  C I  -  
F89E  30 05     BMI $F8A5                       A:40 X:00 Y:66 P:25 SP:F9 CYC:167  C I  -  
F8A0  90 03     BCC $F8A5                       A:40 X:00 Y:66 P:25 SP:F9 CYC:173  C I  -  
F8A2  70 01     BVS $F8A5                       A:40 X:00 Y:66 P:25 SP:F9 CYC:179  C I  -  
F8A4  60        RTS                             A:40 X:00 Y:66 P:25 SP:F9 CYC:185  C I  -  
D0E9  C8        INY                             A:40 X:00 Y:66 P:25 SP:FB CYC:203  C I  -  
D0EA  48        PHA                             A:40 X:00 Y:67 P:25 SP:FB CYC:209  C I  -  
D0EB  A9 41     LDA #$41                        A:40 X:00 Y:67 P:25 SP:FA CYC:218  C I  -  
D0ED  8D 00 02  STA $0200 = 3F                  A:41 X:00 Y:67 P:25 SP:FA CYC:224  C I  -  
D0F0  68        PLA                             A:41 X:00 Y:67 P:25 SP:FA CYC:236  C I  -  
D0F1  C1 80     CMP ($80,X) @ 80 = 0200 = 41    A:40 X:00 Y:67 P:25 SP:FB CYC:248  C I  -  
D0F3  20 A8 F8  JSR $F8A8                       A:40 X:00 Y:67 P:A4 SP:FB CYC:266    I  - N
F8A8  F0 05     BEQ $F8AF                       A:40 X:00 Y:67 P:A4 SP:F9 CYC:284    I  - N
F8AA  10 03     BPL $F8AF                       A:40 X:00 Y:67 P:A4 SP:F9 CYC:290    I  - N
F8AC  10 01     BPL $F8AF                       A:40 X:00 Y:67 P:A4 SP:F9 CYC:296    I  - N
F8AE  60        RTS                             A:40 X:00 Y:67 P:A4 SP:F9 CYC:302    I  - N
D0F6  C8        INY                             A:40 X:00 Y:67 P:A4 SP:FB CYC:320    I  - N
D0F7  48        PHA                             A:40 X:00 Y:68 P:24 SP:FB CYC:326    I  -  
D0F8  A9 00     LDA #$00                        A:40 X:00 Y:68 P:24 SP:FA CYC:335    I  -  
D0FA  8D 00 02  STA $0200 = 41                  A:00 X:00 Y:68 P:26 SP:FA CYC:  0   ZI  -  
D0FD  68        PLA                             A:00 X:00 Y:68 P:26 SP:FA CYC: 12   ZI  -  
D0FE  20 B2 F8  JSR $F8B2                       A:40 X:00 Y:68 P:24 SP:FB CYC: 24    I  -  
F8B2  A9 80     LDA #$80                        A:40 X:00 Y:68 P:24 SP:F9 CYC: 42    I  -  
F8B4  60        RTS                             A:80 X:00 Y:68 P:A4 SP:F9 CYC: 48    I  - N
D101  C1 80     CMP ($80,X) @ 80 = 0200 = 00    A:80 X:00 Y:68 P:A4 SP:FB CYC: 66    I  - N
D103  20 B5 F8  JSR $F8B5                       A:80 X:00 Y:68 P:A5 SP:FB CYC: 84  C I  - N
F8B5  F0 05     BEQ $F8BC                       A:80 X:00 Y:68 P:A5 SP:F9 CYC:102  C I  - N
F8B7  10 03     BPL $F8BC                       A:80 X:00 Y:68 P:A5 SP:F9 CYC:108  C I  - N
F8B9  90 01     BCC $F8BC                       A:80 X:00 Y:68 P:A5 SP:F9 CYC:114  C I  - N
F8BB  60        RTS                             A:80 X:00 Y:68 P:A5 SP:F9 CYC:120  C I  - N
D106  C8        INY                             A:80 X:00 Y:68 P:A5 SP:FB CYC:138  C I  - N
D107  48        PHA                             A:80 X:00 Y:69 P:25 SP:FB CYC:144  C I  -  
D108  A9 80     LDA #$80                        A:80 X:00 Y:69 P:25 SP:FA CYC:153  C I  -  
D10A  8D 00 02  STA $0200 = 00                  A:80 X:00 Y:69 P:A5 SP:FA CYC:159  C I  - N
D10D  68        PLA                             A:80 X:00 Y:69 P:A5 SP:FA CYC:171  C I  - N
D10E  C1 80     CMP ($80,X) @ 80 = 0200 = 80    A:80 X:00 Y:69 P:A5 SP:FB CYC:183  C I  - N
D110  20 BF F8  JSR $F8BF                       A:80 X:00 Y:69 P:27 SP:FB CYC:201  CZI  -  
F8BF  D0 05     BNE $F8C6                       A:80 X:00 Y:69 P:27 SP:F9 CYC:219  CZI  -  
F8C1  30 03     BMI $F8C6                       A:80 X:00 Y:69 P:27 SP:F9 CYC:225  CZI  -  
F8C3  90 01     BCC $F8C6                       A:80 X:00 Y:69 P:27 SP:F9 CYC:231  CZI  -  
F8C5  60        RTS                             A:80 X:00 Y:69 P:27 SP:F9 CYC:237  CZI  -  
D113  C8        INY                             A:80 X:00 Y:69 P:27 SP:FB CYC:255  CZI  -  
D114  48        PHA                             A:80 X:00 Y:6A P:25 SP:FB CYC:261  C I  -  
D115  A9 81     LDA #$81                        A:80 X:00 Y:6A P:25 SP:FA CYC:270  C I  -  
D117  8D 00 02  STA $0200 = 80                  A:81 X:00 Y:6A P:A5 SP:FA CYC:276  C I  - N
D11A  68        PLA                             A:81 X:00 Y:6A P:A5 SP:FA CYC:288  C I  - N
D11B  C1 80     CMP ($80,X) @ 80 = 0200 = 81    A:80 X:00 Y:6A P:A5 SP:FB CYC:300  C I  - N
D11D  20 C9 F8  JSR $F8C9                       A:80 X:00 Y:6A P:A4 SP:FB CYC:318    I  - N
F8C9  B0 05     BCS $F8D0                       A:80 X:00 Y:6A P:A4 SP:F9 CYC:336    I  - N
F8CB  F0 03     BEQ $F8D0                       A:80 X:00 Y:6A P:A4 SP:F9 CYC:  1    I  - N
F8CD  10 01     BPL $F8D0                       A:80 X:00 Y:6A P:A4 SP:F9 CYC:  7    I  - N
F8CF  60        RTS                             A:80 X:00 Y:6A P:A4 SP:F9 CYC: 13    I  - N
D120  C8        INY                             A:80 X:00 Y:6A P:A4 SP:FB CYC: 31    I  - N
D121  48        PHA                             A:80 X:00 Y:6B P:24 SP:FB CYC: 37    I  -  
D122  A9 7F     LDA #$7F                        A:80 X:00 Y:6B P:24 SP:FA CYC: 46    I  -  
D124  8D 00 02  STA $0200 = 81                  A:7F X:00 Y:6B P:24 SP:FA CYC: 52    I  -  
D127  68        PLA                             A:7F X:00 Y:6B P:24 SP:FA CYC: 64    I  -  
D128  C1 80     CMP ($80,X) @ 80 = 0200 = 7F    A:80 X:00 Y:6B P:A4 SP:FB CYC: 76    I  - N
D12A  20 D3 F8  JSR $F8D3                       A:80 X:00 Y:6B P:25 SP:FB CYC: 94  C I  -  
F8D3  90 05     BCC $F8DA                       A:80 X:00 Y:6B P:25 SP:F9 CYC:112  C I  -  
F8D5  F0 03     BEQ $F8DA                       A:80 X:00 Y:6B P:25 SP:F9 CYC:118  C I  -  
F8D7  30 01     BMI $F8DA                       A:80 X:00 Y:6B P:25 SP:F9 CYC:124  C I  -  
F8D9  60        RTS                             A:80 X:00 Y:6B P:25 SP:F9 CYC:130  C I  -  
D12D  C8        INY                             A:80 X:00 Y:6B P:25 SP:FB CYC:148  C I  -  
D12E  A9 40     LDA #$40                        A:80 X:00 Y:6C P:25 SP:FB CYC:154  C I  -  
D130  8D 00 02  STA $0200 = 7F                  A:40 X:00 Y:6C P:25 SP:FB CYC:160  C I  -  
D133  20 31 F9  JSR $F931                       A:40 X:00 Y:6C P:25 SP:FB CYC:172  C I  -  
F931  24 01     BIT $01 = FF                    A:40 X:00 Y:6C P:25 SP:F9 CYC:190  C I  -  
F933  A9 40     LDA #$40                        A:40 X:00 Y:6C P:E5 SP:F9 CYC:199  C I  -VN
F935  38        SEC                             A:40 X:00 Y:6C P:65 SP:F9 CYC:205  C I  -V 
F936  60        RTS                             A:40 X:00 Y:6C P:65 SP:F9 CYC:211  C I  -V 
D136  E1 80     SBC ($80,X) @ 80 = 0200 = 40    A:40 X:00 Y:6C P:65 SP:FB CYC:229  C I  -V 
D138  20 37 F9  JSR $F937                       A:00 X:00 Y:6C P:27 SP:FB CYC:247  CZI  -  
F937  30 0B     BMI $F944                       A:00 X:00 Y:6C P:27 SP:F9 CYC:265  CZI  -  
F939  90 09     BCC $F944                       A:00 X:00 Y:6C P:27 SP:F9 CYC:271  CZI  -  
F93B  D0 07     BNE $F944                       A:00 X:00 Y:6C P:27 SP:F9 CYC:277  CZI  -  
F93D  70 05     BVS $F944                       A:00 X:00 Y:6C P:27 SP:F9 CYC:283  CZI  -  
F93F  C9 00     CMP #$00                        A:00 X:00 Y:6C P:27 SP:F9 CYC:289  CZI  -  
F941  D0 01     BNE $F944                       A:00 X:00 Y:6C P:27 SP:F9 CYC:295  CZI  -  
F943  60        RTS                             A:00 X:00 Y:6C P:27 SP:F9 CYC:301  CZI  -  
D13B  C8        INY                             A:00 X:00 Y:6C P:27 SP:FB CYC:319  CZI  -  
D13C  A9 3F     LDA #$3F                        A:00 X:00 Y:6D P:25 SP:FB CYC:325  C I  -  
D13E  8D 00 02  STA $0200 = 40                  A:3F X:00 Y:6D P:25 SP:FB CYC:331  C I  -  
D141  20 47 F9  JSR $F947                       A:3F X:00 Y:6D P:25 SP:FB CYC:  2  C I  -  
F947  B8        CLV                             A:3F X:00 Y:6D P:25 SP:F9 CYC: 20  C I  -  
F948  38        SEC                             A:3F X:00 Y:6D P:25 SP:F9 CYC: 26  C I  -  
F949  A9 40     LDA #$40                        A:3F X:00 Y:6D P:25 SP:F9 CYC: 32  C I  -  
F94B  60        RTS                             A:40 X:00 Y:6D P:25 SP:F9 CYC: 38  C I  -  
D144  E1 80     SBC ($80,X) @ 80 = 0200 = 3F    A:40 X:00 Y:6D P:25 SP:FB CYC: 56  C I  -  
D146  20 4C F9  JSR $F94C                       A:01 X:00 Y:6D P:25 SP:FB CYC: 74  C I  -  
F94C  F0 0B     BEQ $F959                       A:01 X:00 Y:6D P:25 SP:F9 CYC: 92  C I  -  
F94E  30 09     BMI $F959                       A:01 X:00 Y:6D P:25 SP:F9 CYC: 98  C I  -  
F950  90 07     BCC $F959                       A:01 X:00 Y:6D P:25 SP:F9 CYC:104  C I  -  
F952  70 05     BVS $F959                       A:01 X:00 Y:6D P:25 SP:F9 CYC:110  C I  -  
F954  C9 01     CMP #$01                        A:01 X:00 Y:6D P:25 SP:F9 CYC:116  C I  -  
F956  D0 01     BNE $F959                       A:01 X:00 Y:6D P:27 SP:F9 CYC:122  CZI  -  
F958  60        RTS                             A:01 X:00 Y:6D P:27 SP:F9 CYC:128  CZI  -  
D149  C8        INY                             A:01 X:00 Y:6D P:27 SP:FB CYC:146  CZI  -  
D14A  A9 41     LDA #$41                        A:01 X:00 Y:6E P:25 SP:FB CYC:152  C I  -  
D14C  8D 00 02  STA $0200 = 3F                  A:41 X:00 Y:6E P:25 SP:FB CYC:158  C I  -  
D14F  20 5C F9  JSR $F95C                       A:41 X:00 Y:6E P:25 SP:FB CYC:170  C I  -  
F95C  A9 40     LDA #$40                        A:41 X:00 Y:6E P:25 SP:F9 CYC:188  C I  -  
F95E  38        SEC                             A:40 X:00 Y:6E P:25 SP:F9 CYC:194  C I  -  
F95F  24 01     BIT $01 = FF                    A:40 X:00 Y:6E P:25 SP:F9 CYC:200  C I  -  
F961  60        RTS                             A:40 X:00 Y:6E P:E5 SP:F9 CYC:209  C I  -VN
D152  E1 80     SBC ($80,X) @ 80 = 0200 = 41    A:40 X:00 Y:6E P:E5 SP:FB CYC:227  C I  -VN
D154  20 62 F9  JSR $F962                       A:FF X:00 Y:6E P:A4 SP:FB CYC:245    I  - N
F962  B0 0B     BCS $F96F                       A:FF X:00 Y:6E P:A4 SP:F9 CYC:263    I  - N
F964  F0 09     BEQ $F96F                       A:FF X:00 Y:6E P:A4 SP:F9 CYC:269    I  - N
F966  10 07     BPL $F96F                       A:FF X:00 Y:6E P:A4 SP:F9 CYC:275    I  - N
F968  70 05     BVS $F96F                       A:FF X:00 Y:6E P:A4 SP:F9 CYC:281    I  - N
F96A  C9 FF     CMP #$FF                        A:FF X:00 Y:6E P:A4 SP:F9 CYC:287    I  - N
F96C  D0 01     BNE $F96F                       A:FF X:00 Y:6E P:27 SP:F9 CYC:293  CZI  -  
F96E  60        RTS                             A:FF X:00 Y:6E P:27 SP:F9 CYC:299  CZI  -  
D157  C8        INY                             A:FF X:00 Y:6E P:27 SP:FB CYC:317  CZI  -  
D158  A9 00     LDA #$00                        A:FF X:00 Y:6F P:25 SP:FB CYC:323  C I  -  
D15A  8D 00 02  STA $0200 = 41                  A:00 X:00 Y:6F P:27 SP:FB CYC:329  CZI  -  
D15D  20 72 F9  JSR $F972                       A:00 X:00 Y:6F P:27 SP:FB CYC:  0  CZI  -  
F972  18        CLC                             A:00 X:00 Y:6F P:27 SP:F9 CYC: 18  CZI  -  
F973  A9 80     LDA #$80                        A:00 X:00 Y:6F P:26 SP:F9 CYC: 24   ZI  -  
F975  60        RTS                             A:80 X:00 Y:6F P:A4 SP:F9 CYC: 30    I  - N
D160  E1 80     SBC ($80,X) @ 80 = 0200 = 00    A:80 X:00 Y:6F P:A4 SP:FB CYC: 48    I  - N
D162  20 76 F9  JSR $F976                       A:7F X:00 Y:6F P:65 SP:FB CYC: 66  C I  -V 
F976  90 05     BCC $F97D                       A:7F X:00 Y:6F P:65 SP:F9 CYC: 84  C I  -V 
F978  C9 7F     CMP #$7F                        A:7F X:00 Y:6F P:65 SP:F9 CYC: 90  C I  -V 
F97A  D0 01     BNE $F97D                       A:7F X:00 Y:6F P:67 SP:F9 CYC: 96  CZI  -V 
F97C  60        RTS                             A:7F X:00 Y:6F P:67 SP:F9 CYC:102  CZI  -V 
D165  C8        INY                             A:7F X:00 Y:6F P:67 SP:FB CYC:120  CZI  -V 
D166  A9 7F     LDA #$7F                        A:7F X:00 Y:70 P:65 SP:FB CYC:126  C I  -V 
D168  8D 00 02  STA $0200 = 00                  A:7F X:00 Y:70 P:65 SP:FB CYC:132  C I  -V 
D16B  20 80 F9  JSR $F980                       A:7F X:00 Y:70 P:65 SP:FB CYC:144  C I  -V 
F980  38        SEC                             A:7F X:00 Y:70 P:65 SP:F9 CYC:162  C I  -V 
F981  A9 81     LDA #$81                        A:7F X:00 Y:70 P:65 SP:F9 CYC:168  C I  -V 
F983  60        RTS                             A:81 X:00 Y:70 P:E5 SP:F9 CYC:174  C I  -VN
D16E  E1 80     SBC ($80,X) @ 80 = 0200 = 7F    A:81 X:00 Y:70 P:E5 SP:FB CYC:192  C I  -VN
D170  20 84 F9  JSR $F984                       A:02 X:00 Y:70 P:65 SP:FB CYC:210  C I  -V 
F984  50 07     BVC $F98D                       A:02 X:00 Y:70 P:65 SP:F9 CYC:228  C I  -V 
F986  90 05     BCC $F98D                       A:02 X:00 Y:70 P:65 SP:F9 CYC:234  C I  -V 
F988  C9 02     CMP #$02                        A:02 X:00 Y:70 P:65 SP:F9 CYC:240  C I  -V 
F98A  D0 01     BNE $F98D                       A:02 X:00 Y:70 P:67 SP:F9 CYC:246  CZI  -V 
F98C  60        RTS                             A:02 X:00 Y:70 P:67 SP:F9 CYC:252  CZI  -V 
D173  60        RTS                             A:02 X:00 Y:70 P:67 SP:FB CYC:270  CZI  -V 
C612  20 74 D1  JSR $D174                       A:02 X:00 Y:70 P:67 SP:FD CYC:288  CZI  -V 
D174  A9 55     LDA #$55                        A:02 X:00 Y:70 P:67 SP:FB CYC:306  CZI  -V 
D176  85 78     STA $78 = 00                    A:55 X:00 Y:70 P:65 SP:FB CYC:312  C I  -V 
D178  A9 FF     LDA #$FF                        A:55 X:00 Y:70 P:65 SP:FB CYC:321  C I  -V 
D17A  85 01     STA $01 = FF                    A:FF X:00 Y:70 P:E5 SP:FB CYC:327  C I  -VN
D17C  24 01     BIT $01 = FF                    A:FF X:00 Y:70 P:E5 SP:FB CYC:336  C I  -VN
D17E  A0 11     LDY #$11                        A:FF X:00 Y:70 P:E5 SP:FB CYC:  4  C I  -VN
D180  A2 23     LDX #$23                        A:FF X:00 Y:11 P:65 SP:FB CYC: 10  C I  -V 
D182  A9 00     LDA #$00                        A:FF X:23 Y:11 P:65 SP:FB CYC: 16  C I  -V 
D184  A5 78     LDA $78 = 55                    A:00 X:23 Y:11 P:67 SP:FB CYC: 22  CZI  -V 
D186  F0 10     BEQ $D198                       A:55 X:23 Y:11 P:65 SP:FB CYC: 31  C I  -V 
D188  30 0E     BMI $D198                       A:55 X:23 Y:11 P:65 SP:FB CYC: 37  C I  -V 
D18A  C9 55     CMP #$55                        A:55 X:23 Y:11 P:65 SP:FB CYC: 43  C I  -V 
D18C  D0 0A     BNE $D198                       A:55 X:23 Y:11 P:67 SP:FB CYC: 49  CZI  -V 
D18E  C0 11     CPY #$11                        A:55 X:23 Y:11 P:67 SP:FB CYC: 55  CZI  -V 
D190  D0 06     BNE $D198                       A:55 X:23 Y:11 P:67 SP:FB CYC: 61  CZI  -V 
D192  E0 23     CPX #$23                        A:55 X:23 Y:11 P:67 SP:FB CYC: 67  CZI  -V 
D194  50 02     BVC $D198                       A:55 X:23 Y:11 P:67 SP:FB CYC: 73  CZI  -V 
D196  F0 04     BEQ $D19C                       A:55 X:23 Y:11 P:67 SP:FB CYC: 79  CZI  -V 
D19C  A9 46     LDA #$46                        A:55 X:23 Y:11 P:67 SP:FB CYC: 88  CZI  -V 
D19E  24 01     BIT $01 = FF                    A:46 X:23 Y:11 P:65 SP:FB CYC: 94  C I  -V 
D1A0  85 78     STA $78 = 55                    A:46 X:23 Y:11 P:E5 SP:FB CYC:103  C I  -VN
D1A2  F0 0A     BEQ $D1AE                       A:46 X:23 Y:11 P:E5 SP:FB CYC:112  C I  -VN
D1A4  10 08     BPL $D1AE                       A:46 X:23 Y:11 P:E5 SP:FB CYC:118  C I  -VN
D1A6  50 06     BVC $D1AE                       A:46 X:23 Y:11 P:E5 SP:FB CYC:124  C I  -VN
D1A8  A5 78     LDA $78 = 46                    A:46 X:23 Y:11 P:E5 SP:FB CYC:130  C I  -VN
D1AA  C9 46     CMP #$46                        A:46 X:23 Y:11 P:65 SP:FB CYC:139  C I  -V 
D1AC  F0 04     BEQ $D1B2                       A:46 X:23 Y:11 P:67 SP:FB CYC:145  CZI  -V 
D1B2  A9 55     LDA #$55                        A:46 X:23 Y:11 P:67 SP:FB CYC:154  CZI  -V 
D1B4  85 78     STA $78 = 46                    A:55 X:23 Y:11 P:65 SP:FB CYC:160  C I  -V 
D1B6  24 01     BIT $01 = FF                    A:55 X:23 Y:11 P:65 SP:FB CYC:169  C I  -V 
D1B8  A9 11     LDA #$11                        A:55 X:23 Y:11 P:E5 SP:FB CYC:178  C I  -VN
D1BA  A2 23     LDX #$23                        A:11 X:23 Y:11 P:65 SP:FB CYC:184  C I  -V 
D1BC  A0 00     LDY #$00                        A:11 X:23 Y:11 P:65 SP:FB CYC:190  C I  -V 
D1BE  A4 78     LDY $78 = 55                    A:11 X:23 Y:00 P:67 SP:FB CYC:196  CZI  -V 
D1C0  F0 10     BEQ $D1D2                       A:11 X:23 Y:55 P:65 SP:FB CYC:205  C I  -V 
D1C2  30 0E     BMI $D1D2                       A:11 X:23 Y:55 P:65 SP:FB CYC:211  C I  -V 
D1C4  C0 55     CPY #$55                        A:11 X:23 Y:55 P:65 SP:FB CYC:217  C I  -V 
D1C6  D0 0A     BNE $D1D2                       A:11 X:23 Y:55 P:67 SP:FB CYC:223  CZI  -V 
D1C8  C9 11     CMP #$11                        A:11 X:23 Y:55 P:67 SP:FB CYC:229  CZI  -V 
D1CA  D0 06     BNE $D1D2                       A:11 X:23 Y:55 P:67 SP:FB CYC:235  CZI  -V 
D1CC  E0 23     CPX #$23                        A:11 X:23 Y:55 P:67 SP:FB CYC:241  CZI  -V 
D1CE  50 02     BVC $D1D2                       A:11 X:23 Y:55 P:67 SP:FB CYC:247  CZI  -V 
D1D0  F0 04     BEQ $D1D6                       A:11 X:23 Y:55 P:67 SP:FB CYC:253  CZI  -V 
D1D6  A0 46     LDY #$46                        A:11 X:23 Y:55 P:67 SP:FB CYC:262  CZI  -V 
D1D8  24 01     BIT $01 = FF                    A:11 X:23 Y:46 P:65 SP:FB CYC:268  C I  -V 
D1DA  84 78     STY $78 = 55                    A:11 X:23 Y:46 P:E5 SP:FB CYC:277  C I  -VN
D1DC  F0 0A     BEQ $D1E8                       A:11 X:23 Y:46 P:E5 SP:FB CYC:286  C I  -VN
D1DE  10 08     BPL $D1E8                       A:11 X:23 Y:46 P:E5 SP:FB CYC:292  C I  -VN
D1E0  50 06     BVC $D1E8                       A:11 X:23 Y:46 P:E5 SP:FB CYC:298  C I  -VN
D1E2  A4 78     LDY $78 = 46                    A:11 X:23 Y:46 P:E5 SP:FB CYC:304  C I  -VN
D1E4  C0 46     CPY #$46                        A:11 X:23 Y:46 P:65 SP:FB CYC:313  C I  -V 
D1E6  F0 04     BEQ $D1EC                       A:11 X:23 Y:46 P:67 SP:FB CYC:319  CZI  -V 
D1EC  24 01     BIT $01 = FF                    A:11 X:23 Y:46 P:67 SP:FB CYC:328  CZI  -V 
D1EE  A9 55     LDA #$55                        A:11 X:23 Y:46 P:E5 SP:FB CYC:337  C I  -VN
D1F0  85 78     STA $78 = 46                    A:55 X:23 Y:46 P:65 SP:FB CYC:  2  C I  -V 
D1F2  A0 11     LDY #$11                        A:55 X:23 Y:46 P:65 SP:FB CYC: 11  C I  -V 
D1F4  A9 23     LDA #$23                        A:55 X:23 Y:11 P:65 SP:FB CYC: 17  C I  -V 
D1F6  A2 00     LDX #$00                        A:23 X:23 Y:11 P:65 SP:FB CYC: 23  C I  -V 
D1F8  A6 78     LDX $78 = 55                    A:23 X:00 Y:11 P:67 SP:FB CYC: 29  CZI  -V 
D1FA  F0 10     BEQ $D20C                       A:23 X:55 Y:11 P:65 SP:FB CYC: 38  C I  -V 
D1FC  30 0E     BMI $D20C                       A:23 X:55 Y:11 P:65 SP:FB CYC: 44  C I  -V 
D1FE  E0 55     CPX #$55                        A:23 X:55 Y:11 P:65 SP:FB CYC: 50  C I  -V 
D200  D0 0A     BNE $D20C                       A:23 X:55 Y:11 P:67 SP:FB CYC: 56  CZI  -V 
D202  C0 11     CPY #$11                        A:23 X:55 Y:11 P:67 SP:FB CYC: 62  CZI  -V 
D204  D0 06     BNE $D20C                       A:23 X:55 Y:11 P:67 SP:FB CYC: 68  CZI  -V 
D206  C9 23     CMP #$23                        A:23 X:55 Y:11 P:67 SP:FB CYC: 74  CZI  -V 
D208  50 02     BVC $D20C                       A:23 X:55 Y:11 P:67 SP:FB CYC: 80  CZI  -V 
D20A  F0 04     BEQ $D210                       A:23 X:55 Y:11 P:67 SP:FB CYC: 86  CZI  -V 
D210  A2 46     LDX #$46                        A:23 X:55 Y:11 P:67 SP:FB CYC: 95  CZI  -V 
D212  24 01     BIT $01 = FF                    A:23 X:46 Y:11 P:65 SP:FB CYC:101  C I  -V 
D214  86 78     STX $78 = 55                    A:23 X:46 Y:11 P:E5 SP:FB CYC:110  C I  -VN
D216  F0 0A     BEQ $D222                       A:23 X:46 Y:11 P:E5 SP:FB CYC:119  C I  -VN
D218  10 08     BPL $D222                       A:23 X:46 Y:11 P:E5 SP:FB CYC:125  C I  -VN
D21A  50 06     BVC $D222                       A:23 X:46 Y:11 P:E5 SP:FB CYC:131  C I  -VN
D21C  A6 78     LDX $78 = 46                    A:23 X:46 Y:11 P:E5 SP:FB CYC:137  C I  -VN
D21E  E0 46     CPX #$46                        A:23 X:46 Y:11 P:65 SP:FB CYC:146  C I  -V 
D220  F0 04     BEQ $D226                       A:23 X:46 Y:11 P:67 SP:FB CYC:152  CZI  -V 
D226  A9 C0     LDA #$C0                        A:23 X:46 Y:11 P:67 SP:FB CYC:161  CZI  -V 
D228  85 78     STA $78 = 46                    A:C0 X:46 Y:11 P:E5 SP:FB CYC:167  C I  -VN
D22A  A2 33     LDX #$33                        A:C0 X:46 Y:11 P:E5 SP:FB CYC:176  C I  -VN
D22C  A0 88     LDY #$88                        A:C0 X:33 Y:11 P:65 SP:FB CYC:182  C I  -V 
D22E  A9 05     LDA #$05                        A:C0 X:33 Y:88 P:E5 SP:FB CYC:188  C I  -VN
D230  24 78     BIT $78 = C0                    A:05 X:33 Y:88 P:65 SP:FB CYC:194  C I  -V 
D232  10 10     BPL $D244                       A:05 X:33 Y:88 P:E7 SP:FB CYC:203  CZI  -VN
D234  50 0E     BVC $D244                       A:05 X:33 Y:88 P:E7 SP:FB CYC:209  CZI  -VN
D236  D0 0C     BNE $D244                       A:05 X:33 Y:88 P:E7 SP:FB CYC:215  CZI  -VN
D238  C9 05     CMP #$05                        A:05 X:33 Y:88 P:E7 SP:FB CYC:221  CZI  -VN
D23A  D0 08     BNE $D244                       A:05 X:33 Y:88 P:67 SP:FB CYC:227  CZI  -V 
D23C  E0 33     CPX #$33                        A:05 X:33 Y:88 P:67 SP:FB CYC:233  CZI  -V 
D23E  D0 04     BNE $D244                       A:05 X:33 Y:88 P:67 SP:FB CYC:239  CZI  -V 
D240  C0 88     CPY #$88                        A:05 X:33 Y:88 P:67 SP:FB CYC:245  CZI  -V 
D242  F0 04     BEQ $D248                       A:05 X:33 Y:88 P:67 SP:FB CYC:251  CZI  -V 
D248  A9 03     LDA #$03                        A:05 X:33 Y:88 P:67 SP:FB CYC:260  CZI  -V 
D24A  85 78     STA $78 = C0                    A:03 X:33 Y:88 P:65 SP:FB CYC:266  C I  -V 
D24C  A9 01     LDA #$01                        A:03 X:33 Y:88 P:65 SP:FB CYC:275  C I  -V 
D24E  24 78     BIT $78 = 03                    A:01 X:33 Y:88 P:65 SP:FB CYC:281  C I  -V 
D250  30 08     BMI $D25A                       A:01 X:33 Y:88 P:25 SP:FB CYC:290  C I  -  
D252  70 06     BVS $D25A                       A:01 X:33 Y:88 P:25 SP:FB CYC:296  C I  -  
D254  F0 04     BEQ $D25A                       A:01 X:33 Y:88 P:25 SP:FB CYC:302  C I  -  
D256  C9 01     CMP #$01                        A:01 X:33 Y:88 P:25 SP:FB CYC:308  C I  -  
D258  F0 04     BEQ $D25E                       A:01 X:33 Y:88 P:27 SP:FB CYC:314  CZI  -  
D25E  A0 7E     LDY #$7E                        A:01 X:33 Y:88 P:27 SP:FB CYC:323  CZI  -  
D260  A9 AA     LDA #$AA                        A:01 X:33 Y:7E P:25 SP:FB CYC:329  C I  -  
D262  85 78     STA $78 = 03                    A:AA X:33 Y:7E P:A5 SP:FB CYC:335  C I  - N
D264  20 B6 F7  JSR $F7B6                       A:AA X:33 Y:7E P:A5 SP:FB CYC:  3  C I  - N
F7B6  18        CLC                             A:AA X:33 Y:7E P:A5 SP:F9 CYC: 21  C I  - N
F7B7  A9 FF     LDA #$FF                        A:AA X:33 Y:7E P:A4 SP:F9 CYC: 27    I  - N
F7B9  85 01     STA $01 = FF                    A:FF X:33 Y:7E P:A4 SP:F9 CYC: 33    I  - N
F7BB  24 01     BIT $01 = FF                    A:FF X:33 Y:7E P:A4 SP:F9 CYC: 42    I  - N
F7BD  A9 55     LDA #$55                        A:FF X:33 Y:7E P:E4 SP:F9 CYC: 51    I  -VN
F7BF  60        RTS                             A:55 X:33 Y:7E P:64 SP:F9 CYC: 57    I  -V 
D267  05 78     ORA $78 = AA                    A:55 X:33 Y:7E P:64 SP:FB CYC: 75    I  -V 
D269  20 C0 F7  JSR $F7C0                       A:FF X:33 Y:7E P:E4 SP:FB CYC: 84    I  -VN
F7C0  B0 09     BCS $F7CB                       A:FF X:33 Y:7E P:E4 SP:F9 CYC:102    I  -VN
F7C2  10 07     BPL $F7CB                       A:FF X:33 Y:7E P:E4 SP:F9 CYC:108    I  -VN
F7C4  C9 FF     CMP #$FF                        A:FF X:33 Y:7E P:E4 SP:F9 CYC:114    I  -VN
F7C6  D0 03     BNE $F7CB                       A:FF X:33 Y:7E P:67 SP:F9 CYC:120  CZI  -V 
F7C8  50 01     BVC $F7CB                       A:FF X:33 Y:7E P:67 SP:F9 CYC:126  CZI  -V 
F7CA  60        RTS                             A:FF X:33 Y:7E P:67 SP:F9 CYC:132  CZI  -V 
D26C  C8        INY                             A:FF X:33 Y:7E P:67 SP:FB CYC:150  CZI  -V 
D26D  A9 00     LDA #$00                        A:FF X:33 Y:7F P:65 SP:FB CYC:156  C I  -V 
D26F  85 78     STA $78 = AA                    A:00 X:33 Y:7F P:67 SP:FB CYC:162  CZI  -V 
D271  20 CE F7  JSR $F7CE                       A:00 X:33 Y:7F P:67 SP:FB CYC:171  CZI  -V 
F7CE  38        SEC                             A:00 X:33 Y:7F P:67 SP:F9 CYC:189  CZI  -V 
F7CF  B8        CLV                             A:00 X:33 Y:7F P:67 SP:F9 CYC:195  CZI  -V 
F7D0  A9 00     LDA #$00                        A:00 X:33 Y:7F P:27 SP:F9 CYC:201  CZI  -  
F7D2  60        RTS                             A:00 X:33 Y:7F P:27 SP:F9 CYC:207  CZI  -  
D274  05 78     ORA $78 = 00                    A:00 X:33 Y:7F P:27 SP:FB CYC:225  CZI  -  
D276  20 D3 F7  JSR $F7D3                       A:00 X:33 Y:7F P:27 SP:FB CYC:234  CZI  -  
F7D3  D0 07     BNE $F7DC                       A:00 X:33 Y:7F P:27 SP:F9 CYC:252  CZI  -  
F7D5  70 05     BVS $F7DC                       A:00 X:33 Y:7F P:27 SP:F9 CYC:258  CZI  -  
F7D7  90 03     BCC $F7DC                       A:00 X:33 Y:7F P:27 SP:F9 CYC:264  CZI  -  
F7D9  30 01     BMI $F7DC                       A:00 X:33 Y:7F P:27 SP:F9 CYC:270  CZI  -  
F7DB  60        RTS                             A:00 X:33 Y:7F P:27 SP:F9 CYC:276  CZI  -  
D279  C8        INY                             A:00 X:33 Y:7F P:27 SP:FB CYC:294  CZI  -  
D27A  A9 AA     LDA #$AA                        A:00 X:33 Y:80 P:A5 SP:FB CYC:300  C I  - N
D27C  85 78     STA $78 = 00                    A:AA X:33 Y:80 P:A5 SP:FB CYC:306  C I  - N
D27E  20 DF F7  JSR $F7DF                       A:AA X:33 Y:80 P:A5 SP:FB CYC:315  C I  - N
F7DF  18        CLC                             A:AA X:33 Y:80 P:A5 SP:F9 CYC:333  C I  - N
F7E0  24 01     BIT $01 = FF                    A:AA X:33 Y:80 P:A4 SP:F9 CYC:339    I  - N
F7E2  A9 55     LDA #$55                        A:AA X:33 Y:80 P:E4 SP:F9 CYC:  7    I  -VN
F7E4  60        RTS                             A:55 X:33 Y:80 P:64 SP:F9 CYC: 13    I  -V 
D281  25 78     AND $78 = AA                    A:55 X:33 Y:80 P:64 SP:FB CYC: 31    I  -V 
D283  20 E5 F7  JSR $F7E5                       A:00 X:33 Y:80 P:66 SP:FB CYC: 40   ZI  -V 
F7E5  D0 07     BNE $F7EE                       A:00 X:33 Y:80 P:66 SP:F9 CYC: 58   ZI  -V 
F7E7  50 05     BVC $F7EE                       A:00 X:33 Y:80 P:66 SP:F9 CYC: 64   ZI  -V 
F7E9  B0 03     BCS $F7EE                       A:00 X:33 Y:80 P:66 SP:F9 CYC: 70   ZI  -V 
F7EB  30 01     BMI $F7EE                       A:00 X:33 Y:80 P:66 SP:F9 CYC: 76   ZI  -V 
F7ED  60        RTS                             A:00 X:33 Y:80 P:66 SP:F9 CYC: 82   ZI  -V 
D286  C8        INY                             A:00 X:33 Y:80 P:66 SP:FB CYC:100   ZI  -V 
D287  A9 EF     LDA #$EF                        A:00 X:33 Y:81 P:E4 SP:FB CYC:106    I  -VN
D289  85 78     STA $78 = AA                    A:EF X:33 Y:81 P:E4 SP:FB CYC:112    I  -VN
D28B  20 F1 F7  JSR $F7F1                       A:EF X:33 Y:81 P:E4 SP:FB CYC:121    I  -VN
F7F1  38        SEC                             A:EF X:33 Y:81 P:E4 SP:F9 CYC:139    I  -VN
F7F2  B8        CLV                             A:EF X:33 Y:81 P:E5 SP:F9 CYC:145  C I  -VN
F7F3  A9 F8     LDA #$F8                        A:EF X:33 Y:81 P:A5 SP:F9 CYC:151  C I  - N
F7F5  60        RTS                             A:F8 X:33 Y:81 P:A5 SP:F9 CYC:157  C I  - N
D28E  25 78     AND $78 = EF                    A:F8 X:33 Y:81 P:A5 SP:FB CYC:175  C I  - N
D290  20 F6 F7  JSR $F7F6                       A:E8 X:33 Y:81 P:A5 SP:FB CYC:184  C I  - N
F7F6  90 09     BCC $F801                       A:E8 X:33 Y:81 P:A5 SP:F9 CYC:202  C I  - N
F7F8  10 07     BPL $F801                       A:E8 X:33 Y:81 P:A5 SP:F9 CYC:208  C I  - N
F7FA  C9 E8     CMP #$E8                        A:E8 X:33 Y:81 P:A5 SP:F9 CYC:214  C I  - N
F7FC  D0 03     BNE $F801                       A:E8 X:33 Y:81 P:27 SP:F9 CYC:220  CZI  -  
F7FE  70 01     BVS $F801                       A:E8 X:33 Y:81 P:27 SP:F9 CYC:226  CZI  -  
F800  60        RTS                             A:E8 X:33 Y:81 P:27 SP:F9 CYC:232  CZI  -  
D293  C8        INY                             A:E8 X:33 Y:81 P:27 SP:FB CYC:250  CZI  -  
D294  A9 AA     LDA #$AA                        A:E8 X:33 Y:82 P:A5 SP:FB CYC:256  C I  - N
D296  85 78     STA $78 = EF                    A:AA X:33 Y:82 P:A5 SP:FB CYC:262  C I  - N
D298  20 04 F8  JSR $F804                       A:AA X:33 Y:82 P:A5 SP:FB CYC:271  C I  - N
F804  18        CLC                             A:AA X:33 Y:82 P:A5 SP:F9 CYC:289  C I  - N
F805  24 01     BIT $01 = FF                    A:AA X:33 Y:82 P:A4 SP:F9 CYC:295    I  - N
F807  A9 5F     LDA #$5F                        A:AA X:33 Y:82 P:E4 SP:F9 CYC:304    I  -VN
F809  60        RTS                             A:5F X:33 Y:82 P:64 SP:F9 CYC:310    I  -V 
D29B  45 78     EOR $78 = AA                    A:5F X:33 Y:82 P:64 SP:FB CYC:328    I  -V 
D29D  20 0A F8  JSR $F80A                       A:F5 X:33 Y:82 P:E4 SP:FB CYC:337    I  -VN
F80A  B0 09     BCS $F815                       A:F5 X:33 Y:82 P:E4 SP:F9 CYC: 14    I  -VN
F80C  10 07     BPL $F815                       A:F5 X:33 Y:82 P:E4 SP:F9 CYC: 20    I  -VN
F80E  C9 F5     CMP #$F5                        A:F5 X:33 Y:82 P:E4 SP:F9 CYC: 26    I  -VN
F810  D0 03     BNE $F815                       A:F5 X:33 Y:82 P:67 SP:F9 CYC: 32  CZI  -V 
F812  50 01     BVC $F815                       A:F5 X:33 Y:82 P:67 SP:F9 CYC: 38  CZI  -V 
F814  60        RTS                             A:F5 X:33 Y:82 P:67 SP:F9 CYC: 44  CZI  -V 
D2A0  C8        INY                             A:F5 X:33 Y:82 P:67 SP:FB CYC: 62  CZI  -V 
D2A1  A9 70     LDA #$70                        A:F5 X:33 Y:83 P:E5 SP:FB CYC: 68  C I  -VN
D2A3  85 78     STA $78 = AA                    A:70 X:33 Y:83 P:65 SP:FB CYC: 74  C I  -V 
D2A5  20 18 F8  JSR $F818                       A:70 X:33 Y:83 P:65 SP:FB CYC: 83  C I  -V 
F818  38        SEC                             A:70 X:33 Y:83 P:65 SP:F9 CYC:101  C I  -V 
F819  B8        CLV                             A:70 X:33 Y:83 P:65 SP:F9 CYC:107  C I  -V 
F81A  A9 70     LDA #$70                        A:70 X:33 Y:83 P:25 SP:F9 CYC:113  C I  -  
F81C  60        RTS                             A:70 X:33 Y:83 P:25 SP:F9 CYC:119  C I  -  
D2A8  45 78     EOR $78 = 70                    A:70 X:33 Y:83 P:25 SP:FB CYC:137  C I  -  
D2AA  20 1D F8  JSR $F81D                       A:00 X:33 Y:83 P:27 SP:FB CYC:146  CZI  -  
F81D  D0 07     BNE $F826                       A:00 X:33 Y:83 P:27 SP:F9 CYC:164  CZI  -  
F81F  70 05     BVS $F826                       A:00 X:33 Y:83 P:27 SP:F9 CYC:170  CZI  -  
F821  90 03     BCC $F826                       A:00 X:33 Y:83 P:27 SP:F9 CYC:176  CZI  -  
F823  30 01     BMI $F826                       A:00 X:33 Y:83 P:27 SP:F9 CYC:182  CZI  -  
F825  60        RTS                             A:00 X:33 Y:83 P:27 SP:F9 CYC:188  CZI  -  
D2AD  C8        INY                             A:00 X:33 Y:83 P:27 SP:FB CYC:206  CZI  -  
D2AE  A9 69     LDA #$69                        A:00 X:33 Y:84 P:A5 SP:FB CYC:212  C I  - N
D2B0  85 78     STA $78 = 70                    A:69 X:33 Y:84 P:25 SP:FB CYC:218  C I  -  
D2B2  20 29 F8  JSR $F829                       A:69 X:33 Y:84 P:25 SP:FB CYC:227  C I  -  
F829  18        CLC                             A:69 X:33 Y:84 P:25 SP:F9 CYC:245  C I  -  
F82A  24 01     BIT $01 = FF                    A:69 X:33 Y:84 P:24 SP:F9 CYC:251    I  -  
F82C  A9 00     LDA #$00                        A:69 X:33 Y:84 P:E4 SP:F9 CYC:260    I  -VN
F82E  60        RTS                             A:00 X:33 Y:84 P:66 SP:F9 CYC:266   ZI  -V 
D2B5  65 78     ADC $78 = 69                    A:00 X:33 Y:84 P:66 SP:FB CYC:284   ZI  -V 
D2B7  20 2F F8  JSR $F82F                       A:69 X:33 Y:84 P:24 SP:FB CYC:293    I  -  
F82F  30 09     BMI $F83A                       A:69 X:33 Y:84 P:24 SP:F9 CYC:311    I  -  
F831  B0 07     BCS $F83A                       A:69 X:33 Y:84 P:24 SP:F9 CYC:317    I  -  
F833  C9 69     CMP #$69                        A:69 X:33 Y:84 P:24 SP:F9 CYC:323    I  -  
F835  D0 03     BNE $F83A                       A:69 X:33 Y:84 P:27 SP:F9 CYC:329  CZI  -  
F837  70 01     BVS $F83A                       A:69 X:33 Y:84 P:27 SP:F9 CYC:335  CZI  -  
F839  60        RTS                             A:69 X:33 Y:84 P:27 SP:F9 CYC:  0  CZI  -  
D2BA  C8        INY                             A:69 X:33 Y:84 P:27 SP:FB CYC: 18  CZI  -  
D2BB  20 3D F8  JSR $F83D                       A:69 X:33 Y:85 P:A5 SP:FB CYC: 24  C I  - N
F83D  38        SEC                             A:69 X:33 Y:85 P:A5 SP:F9 CYC: 42  C I  - N
F83E  24 01     BIT $01 = FF                    A:69 X:33 Y:85 P:A5 SP:F9 CYC: 48  C I  - N
F840  A9 00     LDA #$00                        A:69 X:33 Y:85 P:E5 SP:F9 CYC: 57  C I  -VN
F842  60        RTS                             A:00 X:33 Y:85 P:67 SP:F9 CYC: 63  CZI  -V 
D2BE  65 78     ADC $78 = 69                    A:00 X:33 Y:85 P:67 SP:FB CYC: 81  CZI  -V 
D2C0  20 43 F8  JSR $F843                       A:6A X:33 Y:85 P:24 SP:FB CYC: 90    I  -  
F843  30 09     BMI $F84E                       A:6A X:33 Y:85 P:24 SP:F9 CYC:108    I  -  
F845  B0 07     BCS $F84E                       A:6A X:33 Y:85 P:24 SP:F9 CYC:114    I  -  
F847  C9 6A     CMP #$6A                        A:6A X:33 Y:85 P:24 SP:F9 CYC:120    I  -  
F849  D0 03     BNE $F84E                       A:6A X:33 Y:85 P:27 SP:F9 CYC:126  CZI  -  
F84B  70 01     BVS $F84E                       A:6A X:33 Y:85 P:27 SP:F9 CYC:132  CZI  -  
F84D  60        RTS                             A:6A X:33 Y:85 P:27 SP:F9 CYC:138  CZI  -  
D2C3  C8        INY                             A:6A X:33 Y:85 P:27 SP:FB CYC:156  CZI  -  
D2C4  A9 7F     LDA #$7F                        A:6A X:33 Y:86 P:A5 SP:FB CYC:162  C I  - N
D2C6  85 78     STA $78 = 69                    A:7F X:33 Y:86 P:25 SP:FB CYC:168  C I  -  
D2C8  20 51 F8  JSR $F851                       A:7F X:33 Y:86 P:25 SP:FB CYC:177  C I  -  
F851  38        SEC                             A:7F X:33 Y:86 P:25 SP:F9 CYC:195  C I  -  
F852  B8        CLV                             A:7F X:33 Y:86 P:25 SP:F9 CYC:201  C I  -  
F853  A9 7F     LDA #$7F                        A:7F X:33 Y:86 P:25 SP:F9 CYC:207  C I  -  
F855  60        RTS                             A:7F X:33 Y:86 P:25 SP:F9 CYC:213  C I  -  
D2CB  65 78     ADC $78 = 7F                    A:7F X:33 Y:86 P:25 SP:FB CYC:231  C I  -  
D2CD  20 56 F8  JSR $F856                       A:FF X:33 Y:86 P:E4 SP:FB CYC:240    I  -VN
F856  10 09     BPL $F861                       A:FF X:33 Y:86 P:E4 SP:F9 CYC:258    I  -VN
F858  B0 07     BCS $F861                       A:FF X:33 Y:86 P:E4 SP:F9 CYC:264    I  -VN
F85A  C9 FF     CMP #$FF                        A:FF X:33 Y:86 P:E4 SP:F9 CYC:270    I  -VN
F85C  D0 03     BNE $F861                       A:FF X:33 Y:86 P:67 SP:F9 CYC:276  CZI  -V 
F85E  50 01     BVC $F861                       A:FF X:33 Y:86 P:67 SP:F9 CYC:282  CZI  -V 
F860  60        RTS                             A:FF X:33 Y:86 P:67 SP:F9 CYC:288  CZI  -V 
D2D0  C8        INY                             A:FF X:33 Y:86 P:67 SP:FB CYC:306  CZI  -V 
D2D1  A9 80     LDA #$80                        A:FF X:33 Y:87 P:E5 SP:FB CYC:312  C I  -VN
D2D3  85 78     STA $78 = 7F                    A:80 X:33 Y:87 P:E5 SP:FB CYC:318  C I  -VN
D2D5  20 64 F8  JSR $F864                       A:80 X:33 Y:87 P:E5 SP:FB CYC:327  C I  -VN
F864  18        CLC                             A:80 X:33 Y:87 P:E5 SP:F9 CYC:  4  C I  -VN
F865  24 01     BIT $01 = FF                    A:80 X:33 Y:87 P:E4 SP:F9 CYC: 10    I  -VN
F867  A9 7F     LDA #$7F                        A:80 X:33 Y:87 P:E4 SP:F9 CYC: 19    I  -VN
F869  60        RTS                             A:7F X:33 Y:87 P:64 SP:F9 CYC: 25    I  -V 
D2D8  65 78     ADC $78 = 80                    A:7F X:33 Y:87 P:64 SP:FB CYC: 43    I  -V 
D2DA  20 6A F8  JSR $F86A                       A:FF X:33 Y:87 P:A4 SP:FB CYC: 52    I  - N
F86A  10 09     BPL $F875                       A:FF X:33 Y:87 P:A4 SP:F9 CYC: 70    I  - N
F86C  B0 07     BCS $F875                       A:FF X:33 Y:87 P:A4 SP:F9 CYC: 76    I  - N
F86E  C9 FF     CMP #$FF                        A:FF X:33 Y:87 P:A4 SP:F9 CYC: 82    I  - N
F870  D0 03     BNE $F875                       A:FF X:33 Y:87 P:27 SP:F9 CYC: 88  CZI  -  
F872  70 01     BVS $F875                       A:FF X:33 Y:87 P:27 SP:F9 CYC: 94  CZI  -  
F874  60        RTS                             A:FF X:33 Y:87 P:27 SP:F9 CYC:100  CZI  -  
D2DD  C8        INY                             A:FF X:33 Y:87 P:27 SP:FB CYC:118  CZI  -  
D2DE  20 78 F8  JSR $F878                       A:FF X:33 Y:88 P:A5 SP:FB CYC:124  C I  - N
F878  38        SEC                             A:FF X:33 Y:88 P:A5 SP:F9 CYC:142  C I  - N
F879  B8        CLV                             A:FF X:33 Y:88 P:A5 SP:F9 CYC:148  C I  - N
F87A  A9 7F     LDA #$7F                        A:FF X:33 Y:88 P:A5 SP:F9 CYC:154  C I  - N
F87C  60        RTS                             A:7F X:33 Y:88 P:25 SP:F9 CYC:160  C I  -  
D2E1  65 78     ADC $78 = 80                    A:7F X:33 Y:88 P:25 SP:FB CYC:178  C I  -  
D2E3  20 7D F8  JSR $F87D                       A:00 X:33 Y:88 P:27 SP:FB CYC:187  CZI  -  
F87D  D0 07     BNE $F886                       A:00 X:33 Y:88 P:27 SP:F9 CYC:205  CZI  -  
F87F  30 05     BMI $F886                       A:00 X:33 Y:88 P:27 SP:F9 CYC:211  CZI  -  
F881  70 03     BVS $F886                       A:00 X:33 Y:88 P:27 SP:F9 CYC:217  CZI  -  
F883  90 01     BCC $F886                       A:00 X:33 Y:88 P:27 SP:F9 CYC:223  CZI  -  
F885  60        RTS                             A:00 X:33 Y:88 P:27 SP:F9 CYC:229  CZI  -  
D2E6  C8        INY                             A:00 X:33 Y:88 P:27 SP:FB CYC:247  CZI  -  
D2E7  A9 40     LDA #$40                        A:00 X:33 Y:89 P:A5 SP:FB CYC:253  C I  - N
D2E9  85 78     STA $78 = 80                    A:40 X:33 Y:89 P:25 SP:FB CYC:259  C I  -  
D2EB  20 89 F8  JSR $F889                       A:40 X:33 Y:89 P:25 SP:FB CYC:268  C I  -  
F889  24 01     BIT $01 = FF                    A:40 X:33 Y:89 P:25 SP:F9 CYC:286  C I  -  
F88B  A9 40     LDA #$40                        A:40 X:33 Y:89 P:E5 SP:F9 CYC:295  C I  -VN
F88D  60        RTS                             A:40 X:33 Y:89 P:65 SP:F9 CYC:301  C I  -V 
D2EE  C5 78     CMP $78 = 40                    A:40 X:33 Y:89 P:65 SP:FB CYC:319  C I  -V 
D2F0  20 8E F8  JSR $F88E                       A:40 X:33 Y:89 P:67 SP:FB CYC:328  CZI  -V 
F88E  30 07     BMI $F897                       A:40 X:33 Y:89 P:67 SP:F9 CYC:  5  CZI  -V 
F890  90 05     BCC $F897                       A:40 X:33 Y:89 P:67 SP:F9 CYC: 11  CZI  -V 
F892  D0 03     BNE $F897                       A:40 X:33 Y:89 P:67 SP:F9 CYC: 17  CZI  -V 
F894  50 01     BVC $F897                       A:40 X:33 Y:89 P:67 SP:F9 CYC: 23  CZI  -V 
F896  60        RTS                             A:40 X:33 Y:89 P:67 SP:F9 CYC: 29  CZI  -V 
D2F3  C8        INY                             A:40 X:33 Y:89 P:67 SP:FB CYC: 47  CZI  -V 
D2F4  48        PHA                             A:40 X:33 Y:8A P:E5 SP:FB CYC: 53  C I  -VN
D2F5  A9 3F     LDA #$3F                        A:40 X:33 Y:8A P:E5 SP:FA CYC: 62  C I  -VN
D2F7  85 78     STA $78 = 40                    A:3F X:33 Y:8A P:65 SP:FA CYC: 68  C I  -V 
D2F9  68        PLA                             A:3F X:33 Y:8A P:65 SP:FA CYC: 77  C I  -V 
D2FA  20 9A F8  JSR $F89A                       A:40 X:33 Y:8A P:65 SP:FB CYC: 89  C I  -V 
F89A  B8        CLV                             A:40 X:33 Y:8A P:65 SP:F9 CYC:107  C I  -V 
F89B  60        RTS                             A:40 X:33 Y:8A P:25 SP:F9 CYC:113  C I  -  
D2FD  C5 78     CMP $78 = 3F                    A:40 X:33 Y:8A P:25 SP:FB CYC:131  C I  -  
D2FF  20 9C F8  JSR $F89C                       A:40 X:33 Y:8A P:25 SP:FB CYC:140  C I  -  
F89C  F0 07     BEQ $F8A5                       A:40 X:33 Y:8A P:25 SP:F9 CYC:158  C I  -  
F89E  30 05     BMI $F8A5                       A:40 X:33 Y:8A P:25 SP:F9 CYC:164  C I  -  
F8A0  90 03     BCC $F8A5                       A:40 X:33 Y:8A P:25 SP:F9 CYC:170  C I  -  
F8A2  70 01     BVS $F8A5                       A:40 X:33 Y:8A P:25 SP:F9 CYC:176  C I  -  
F8A4  60        RTS                             A:40 X:33 Y:8A P:25 SP:F9 CYC:182  C I  -  
D302  C8        INY                             A:40 X:33 Y:8A P:25 SP:FB CYC:200  C I  -  
D303  48        PHA                             A:40 X:33 Y:8B P:A5 SP:FB CYC:206  C I  - N
D304  A9 41     LDA #$41                        A:40 X:33 Y:8B P:A5 SP:FA CYC:215  C I  - N
D306  85 78     STA $78 = 3F                    A:41 X:33 Y:8B P:25 SP:FA CYC:221  C I  -  
D308  68        PLA                             A:41 X:33 Y:8B P:25 SP:FA CYC:230  C I  -  
D309  C5 78     CMP $78 = 41                    A:40 X:33 Y:8B P:25 SP:FB CYC:242  C I  -  
D30B  20 A8 F8  JSR $F8A8                       A:40 X:33 Y:8B P:A4 SP:FB CYC:251    I  - N
F8A8  F0 05     BEQ $F8AF                       A:40 X:33 Y:8B P:A4 SP:F9 CYC:269    I  - N
F8AA  10 03     BPL $F8AF                       A:40 X:33 Y:8B P:A4 SP:F9 CYC:275    I  - N
F8AC  10 01     BPL $F8AF                       A:40 X:33 Y:8B P:A4 SP:F9 CYC:281    I  - N
F8AE  60        RTS                             A:40 X:33 Y:8B P:A4 SP:F9 CYC:287    I  - N
D30E  C8        INY                             A:40 X:33 Y:8B P:A4 SP:FB CYC:305    I  - N
D30F  48        PHA                             A:40 X:33 Y:8C P:A4 SP:FB CYC:311    I  - N
D310  A9 00     LDA #$00                        A:40 X:33 Y:8C P:A4 SP:FA CYC:320    I  - N
D312  85 78     STA $78 = 41                    A:00 X:33 Y:8C P:26 SP:FA CYC:326   ZI  -  
D314  68        PLA                             A:00 X:33 Y:8C P:26 SP:FA CYC:335   ZI  -  
D315  20 B2 F8  JSR $F8B2                       A:40 X:33 Y:8C P:24 SP:FB CYC:  6    I  -  
F8B2  A9 80     LDA #$80                        A:40 X:33 Y:8C P:24 SP:F9 CYC: 24    I  -  
F8B4  60        RTS                             A:80 X:33 Y:8C P:A4 SP:F9 CYC: 30    I  - N
D318  C5 78     CMP $78 = 00                    A:80 X:33 Y:8C P:A4 SP:FB CYC: 48    I  - N
D31A  20 B5 F8  JSR $F8B5                       A:80 X:33 Y:8C P:A5 SP:FB CYC: 57  C I  - N
F8B5  F0 05     BEQ $F8BC                       A:80 X:33 Y:8C P:A5 SP:F9 CYC: 75  C I  - N
F8B7  10 03     BPL $F8BC                       A:80 X:33 Y:8C P:A5 SP:F9 CYC: 81  C I  - N
F8B9  90 01     BCC $F8BC                       A:80 X:33 Y:8C P:A5 SP:F9 CYC: 87  C I  - N
F8BB  60        RTS                             A:80 X:33 Y:8C P:A5 SP:F9 CYC: 93  C I  - N
D31D  C8        INY                             A:80 X:33 Y:8C P:A5 SP:FB CYC:111  C I  - N
D31E  48        PHA                             A:80 X:33 Y:8D P:A5 SP:FB CYC:117  C I  - N
D31F  A9 80     LDA #$80                        A:80 X:33 Y:8D P:A5 SP:FA CYC:126  C I  - N
D321  85 78     STA $78 = 00                    A:80 X:33 Y:8D P:A5 SP:FA CYC:132  C I  - N
D323  68        PLA                             A:80 X:33 Y:8D P:A5 SP:FA CYC:141  C I  - N
D324  C5 78     CMP $78 = 80                    A:80 X:33 Y:8D P:A5 SP:FB CYC:153  C I  - N
D326  20 BF F8  JSR $F8BF                       A:80 X:33 Y:8D P:27 SP:FB CYC:162  CZI  -  
F8BF  D0 05     BNE $F8C6                       A:80 X:33 Y:8D P:27 SP:F9 CYC:180  CZI  -  
F8C1  30 03     BMI $F8C6                       A:80 X:33 Y:8D P:27 SP:F9 CYC:186  CZI  -  
F8C3  90 01     BCC $F8C6                       A:80 X:33 Y:8D P:27 SP:F9 CYC:192  CZI  -  
F8C5  60        RTS                             A:80 X:33 Y:8D P:27 SP:F9 CYC:198  CZI  -  
D329  C8        INY                             A:80 X:33 Y:8D P:27 SP:FB CYC:216  CZI  -  
D32A  48        PHA                             A:80 X:33 Y:8E P:A5 SP:FB CYC:222  C I  - N
D32B  A9 81     LDA #$81                        A:80 X:33 Y:8E P:A5 SP:FA CYC:231  C I  - N
D32D  85 78     STA $78 = 80                    A:81 X:33 Y:8E P:A5 SP:FA CYC:237  C I  - N
D32F  68        PLA                             A:81 X:33 Y:8E P:A5 SP:FA CYC:246  C I  - N
D330  C5 78     CMP $78 = 81                    A:80 X:33 Y:8E P:A5 SP:FB CYC:258  C I  - N
D332  20 C9 F8  JSR $F8C9                       A:80 X:33 Y:8E P:A4 SP:FB CYC:267    I  - N
F8C9  B0 05     BCS $F8D0                       A:80 X:33 Y:8E P:A4 SP:F9 CYC:285    I  - N
F8CB  F0 03     BEQ $F8D0                       A:80 X:33 Y:8E P:A4 SP:F9 CYC:291    I  - N
F8CD  10 01     BPL $F8D0                       A:80 X:33 Y:8E P:A4 SP:F9 CYC:297    I  - N
F8CF  60        RTS                             A:80 X:33 Y:8E P:A4 SP:F9 CYC:303    I  - N
D335  C8        INY                             A:80 X:33 Y:8E P:A4 SP:FB CYC:321    I  - N
D336  48        PHA                             A:80 X:33 Y:8F P:A4 SP:FB CYC:327    I  - N
D337  A9 7F     LDA #$7F                        A:80 X:33 Y:8F P:A4 SP:FA CYC:336    I  - N
D339  85 78     STA $78 = 81                    A:7F X:33 Y:8F P:24 SP:FA CYC:  1    I  -  
D33B  68        PLA                             A:7F X:33 Y:8F P:24 SP:FA CYC: 10    I  -  
D33C  C5 78     CMP $78 = 7F                    A:80 X:33 Y:8F P:A4 SP:FB CYC: 22    I  - N
D33E  20 D3 F8  JSR $F8D3                       A:80 X:33 Y:8F P:25 SP:FB CYC: 31  C I  -  
F8D3  90 05     BCC $F8DA                       A:80 X:33 Y:8F P:25 SP:F9 CYC: 49  C I  -  
F8D5  F0 03     BEQ $F8DA                       A:80 X:33 Y:8F P:25 SP:F9 CYC: 55  C I  -  
F8D7  30 01     BMI $F8DA                       A:80 X:33 Y:8F P:25 SP:F9 CYC: 61  C I  -  
F8D9  60        RTS                             A:80 X:33 Y:8F P:25 SP:F9 CYC: 67  C I  -  
D341  C8        INY                             A:80 X:33 Y:8F P:25 SP:FB CYC: 85  C I  -  
D342  A9 40     LDA #$40                        A:80 X:33 Y:90 P:A5 SP:FB CYC: 91  C I  - N
D344  85 78     STA $78 = 7F                    A:40 X:33 Y:90 P:25 SP:FB CYC: 97  C I  -  
D346  20 31 F9  JSR $F931                       A:40 X:33 Y:90 P:25 SP:FB CYC:106  C I  -  
F931  24 01     BIT $01 = FF                    A:40 X:33 Y:90 P:25 SP:F9 CYC:124  C I  -  
F933  A9 40     LDA #$40                        A:40 X:33 Y:90 P:E5 SP:F9 CYC:133  C I  -VN
F935  38        SEC                             A:40 X:33 Y:90 P:65 SP:F9 CYC:139  C I  -V 
F936  60        RTS                             A:40 X:33 Y:90 P:65 SP:F9 CYC:145  C I  -V 
D349  E5 78     SBC $78 = 40                    A:40 X:33 Y:90 P:65 SP:FB CYC:163  C I  -V 
D34B  20 37 F9  JSR $F937                       A:00 X:33 Y:90 P:27 SP:FB CYC:172  CZI  -  
F937  30 0B     BMI $F944                       A:00 X:33 Y:90 P:27 SP:F9 CYC:190  CZI  -  
F939  90 09     BCC $F944                       A:00 X:33 Y:90 P:27 SP:F9 CYC:196  CZI  -  
F93B  D0 07     BNE $F944                       A:00 X:33 Y:90 P:27 SP:F9 CYC:202  CZI  -  
F93D  70 05     BVS $F944                       A:00 X:33 Y:90 P:27 SP:F9 CYC:208  CZI  -  
F93F  C9 00     CMP #$00                        A:00 X:33 Y:90 P:27 SP:F9 CYC:214  CZI  -  
F941  D0 01     BNE $F944                       A:00 X:33 Y:90 P:27 SP:F9 CYC:220  CZI  -  
F943  60        RTS                             A:00 X:33 Y:90 P:27 SP:F9 CYC:226  CZI  -  
D34E  C8        INY                             A:00 X:33 Y:90 P:27 SP:FB CYC:244  CZI  -  
D34F  A9 3F     LDA #$3F                        A:00 X:33 Y:91 P:A5 SP:FB CYC:250  C I  - N
D351  85 78     STA $78 = 40                    A:3F X:33 Y:91 P:25 SP:FB CYC:256  C I  -  
D353  20 47 F9  JSR $F947                       A:3F X:33 Y:91 P:25 SP:FB CYC:265  C I  -  
F947  B8        CLV                             A:3F X:33 Y:91 P:25 SP:F9 CYC:283  C I  -  
F948  38        SEC                             A:3F X:33 Y:91 P:25 SP:F9 CYC:289  C I  -  
F949  A9 40     LDA #$40                        A:3F X:33 Y:91 P:25 SP:F9 CYC:295  C I  -  
F94B  60        RTS                             A:40 X:33 Y:91 P:25 SP:F9 CYC:301  C I  -  
D356  E5 78     SBC $78 = 3F                    A:40 X:33 Y:91 P:25 SP:FB CYC:319  C I  -  
D358  20 4C F9  JSR $F94C                       A:01 X:33 Y:91 P:25 SP:FB CYC:328  C I  -  
F94C  F0 0B     BEQ $F959                       A:01 X:33 Y:91 P:25 SP:F9 CYC:  5  C I  -  
F94E  30 09     BMI $F959                       A:01 X:33 Y:91 P:25 SP:F9 CYC: 11  C I  -  
F950  90 07     BCC $F959                       A:01 X:33 Y:91 P:25 SP:F9 CYC: 17  C I  -  
F952  70 05     BVS $F959                       A:01 X:33 Y:91 P:25 SP:F9 CYC: 23  C I  -  
F954  C9 01     CMP #$01                        A:01 X:33 Y:91 P:25 SP:F9 CYC: 29  C I  -  
F956  D0 01     BNE $F959                       A:01 X:33 Y:91 P:27 SP:F9 CYC: 35  CZI  -  
F958  60        RTS                             A:01 X:33 Y:91 P:27 SP:F9 CYC: 41  CZI  -  
D35B  C8        INY                             A:01 X:33 Y:91 P:27 SP:FB CYC: 59  CZI  -  
D35C  A9 41     LDA #$41                        A:01 X:33 Y:92 P:A5 SP:FB CYC: 65  C I  - N
D35E  85 78     STA $78 = 3F                    A:41 X:33 Y:92 P:25 SP:FB CYC: 71  C I  -  
D360  20 5C F9  JSR $F95C                       A:41 X:33 Y:92 P:25 SP:FB CYC: 80  C I  -  
F95C  A9 40     LDA #$40                        A:41 X:33 Y:92 P:25 SP:F9 CYC: 98  C I  -  
F95E  38        SEC                             A:40 X:33 Y:92 P:25 SP:F9 CYC:104  C I  -  
F95F  24 01     BIT $01 = FF                    A:40 X:33 Y:92 P:25 SP:F9 CYC:110  C I  -  
F961  60        RTS                             A:40 X:33 Y:92 P:E5 SP:F9 CYC:119  C I  -VN
D363  E5 78     SBC $78 = 41                    A:40 X:33 Y:92 P:E5 SP:FB CYC:137  C I  -VN
D365  20 62 F9  JSR $F962                       A:FF X:33 Y:92 P:A4 SP:FB CYC:146    I  - N
F962  B0 0B     BCS $F96F                       A:FF X:33 Y:92 P:A4 SP:F9 CYC:164    I  - N
F964  F0 09     BEQ $F96F                       A:FF X:33 Y:92 P:A4 SP:F9 CYC:170    I  - N
F966  10 07     BPL $F96F                       A:FF X:33 Y:92 P:A4 SP:F9 CYC:176    I  - N
F968  70 05     BVS $F96F                       A:FF X:33 Y:92 P:A4 SP:F9 CYC:182    I  - N
F96A  C9 FF     CMP #$FF                        A:FF X:33 Y:92 P:A4 SP:F9 CYC:188    I  - N
F96C  D0 01     BNE $F96F                       A:FF X:33 Y:92 P:27 SP:F9 CYC:194  CZI  -  
F96E  60        RTS                             A:FF X:33 Y:92 P:27 SP:F9 CYC:200  CZI  -  
D368  C8        INY                             A:FF X:33 Y:92 P:27 SP:FB CYC:218  CZI  -  
D369  A9 00     LDA #$00                        A:FF X:33 Y:93 P:A5 SP:FB CYC:224  C I  - N
D36B  85 78     STA $78 = 41                    A:00 X:33 Y:93 P:27 SP:FB CYC:230  CZI  -  
D36D  20 72 F9  JSR $F972                       A:00 X:33 Y:93 P:27 SP:FB CYC:239  CZI  -  
F972  18        CLC                             A:00 X:33 Y:93 P:27 SP:F9 CYC:257  CZI  -  
F973  A9 80     LDA #$80                        A:00 X:33 Y:93 P:26 SP:F9 CYC:263   ZI  -  
F975  60        RTS                             A:80 X:33 Y:93 P:A4 SP:F9 CYC:269    I  - N
D370  E5 78     SBC $78 = 00                    A:80 X:33 Y:93 P:A4 SP:FB CYC:287    I  - N
D372  20 76 F9  JSR $F976                       A:7F X:33 Y:93 P:65 SP:FB CYC:296  C I  -V 
F976  90 05     BCC $F97D                       A:7F X:33 Y:93 P:65 SP:F9 CYC:314  C I  -V 
F978  C9 7F     CMP #$7F                        A:7F X:33 Y:93 P:65 SP:F9 CYC:320  C I  -V 
F97A  D0 01     BNE $F97D                       A:7F X:33 Y:93 P:67 SP:F9 CYC:326  CZI  -V 
F97C  60        RTS                             A:7F X:33 Y:93 P:67 SP:F9 CYC:332  CZI  -V 
D375  C8        INY                             A:7F X:33 Y:93 P:67 SP:FB CYC:  9  CZI  -V 
D376  A9 7F     LDA #$7F                        A:7F X:33 Y:94 P:E5 SP:FB CYC: 15  C I  -VN
D378  85 78     STA $78 = 00                    A:7F X:33 Y:94 P:65 SP:FB CYC: 21  C I  -V 
D37A  20 80 F9  JSR $F980                       A:7F X:33 Y:94 P:65 SP:FB CYC: 30  C I  -V 
F980  38        SEC                             A:7F X:33 Y:94 P:65 SP:F9 CYC: 48  C I  -V 
F981  A9 81     LDA #$81                        A:7F X:33 Y:94 P:65 SP:F9 CYC: 54  C I  -V 
F983  60        RTS                             A:81 X:33 Y:94 P:E5 SP:F9 CYC: 60  C I  -VN
D37D  E5 78     SBC $78 = 7F                    A:81 X:33 Y:94 P:E5 SP:FB CYC: 78  C I  -VN
D37F  20 84 F9  JSR $F984                       A:02 X:33 Y:94 P:65 SP:FB CYC: 87  C I  -V 
F984  50 07     BVC $F98D                       A:02 X:33 Y:94 P:65 SP:F9 CYC:105  C I  -V 
F986  90 05     BCC $F98D                       A:02 X:33 Y:94 P:65 SP:F9 CYC:111  C I  -V 
F988  C9 02     CMP #$02                        A:02 X:33 Y:94 P:65 SP:F9 CYC:117  C I  -V 
F98A  D0 01     BNE $F98D                       A:02 X:33 Y:94 P:67 SP:F9 CYC:123  CZI  -V 
F98C  60        RTS                             A:02 X:33 Y:94 P:67 SP:F9 CYC:129  CZI  -V 
D382  C8        INY                             A:02 X:33 Y:94 P:67 SP:FB CYC:147  CZI  -V 
D383  A9 40     LDA #$40                        A:02 X:33 Y:95 P:E5 SP:FB CYC:153  C I  -VN
D385  85 78     STA $78 = 7F                    A:40 X:33 Y:95 P:65 SP:FB CYC:159  C I  -V 
D387  20 89 F8  JSR $F889                       A:40 X:33 Y:95 P:65 SP:FB CYC:168  C I  -V 
F889  24 01     BIT $01 = FF                    A:40 X:33 Y:95 P:65 SP:F9 CYC:186  C I  -V 
F88B  A9 40     LDA #$40                        A:40 X:33 Y:95 P:E5 SP:F9 CYC:195  C I  -VN
F88D  60        RTS                             A:40 X:33 Y:95 P:65 SP:F9 CYC:201  C I  -V 
D38A  AA        TAX                             A:40 X:33 Y:95 P:65 SP:FB CYC:219  C I  -V 
D38B  E4 78     CPX $78 = 40                    A:40 X:40 Y:95 P:65 SP:FB CYC:225  C I  -V 
D38D  20 8E F8  JSR $F88E                       A:40 X:40 Y:95 P:67 SP:FB CYC:234  CZI  -V 
F88E  30 07     BMI $F897                       A:40 X:40 Y:95 P:67 SP:F9 CYC:252  CZI  -V 
F890  90 05     BCC $F897                       A:40 X:40 Y:95 P:67 SP:F9 CYC:258  CZI  -V 
F892  D0 03     BNE $F897                       A:40 X:40 Y:95 P:67 SP:F9 CYC:264  CZI  -V 
F894  50 01     BVC $F897                       A:40 X:40 Y:95 P:67 SP:F9 CYC:270  CZI  -V 
F896  60        RTS                             A:40 X:40 Y:95 P:67 SP:F9 CYC:276  CZI  -V 
D390  C8        INY                             A:40 X:40 Y:95 P:67 SP:FB CYC:294  CZI  -V 
D391  A9 3F     LDA #$3F                        A:40 X:40 Y:96 P:E5 SP:FB CYC:300  C I  -VN
D393  85 78     STA $78 = 40                    A:3F X:40 Y:96 P:65 SP:FB CYC:306  C I  -V 
D395  20 9A F8  JSR $F89A                       A:3F X:40 Y:96 P:65 SP:FB CYC:315  C I  -V 
F89A  B8        CLV                             A:3F X:40 Y:96 P:65 SP:F9 CYC:333  C I  -V 
F89B  60        RTS                             A:3F X:40 Y:96 P:25 SP:F9 CYC:339  C I  -  
D398  E4 78     CPX $78 = 3F                    A:3F X:40 Y:96 P:25 SP:FB CYC: 16  C I  -  
D39A  20 9C F8  JSR $F89C                       A:3F X:40 Y:96 P:25 SP:FB CYC: 25  C I  -  
F89C  F0 07     BEQ $F8A5                       A:3F X:40 Y:96 P:25 SP:F9 CYC: 43  C I  -  
F89E  30 05     BMI $F8A5                       A:3F X:40 Y:96 P:25 SP:F9 CYC: 49  C I  -  
F8A0  90 03     BCC $F8A5                       A:3F X:40 Y:96 P:25 SP:F9 CYC: 55  C I  -  
F8A2  70 01     BVS $F8A5                       A:3F X:40 Y:96 P:25 SP:F9 CYC: 61  C I  -  
F8A4  60        RTS                             A:3F X:40 Y:96 P:25 SP:F9 CYC: 67  C I  -  
D39D  C8        INY                             A:3F X:40 Y:96 P:25 SP:FB CYC: 85  C I  -  
D39E  A9 41     LDA #$41                        A:3F X:40 Y:97 P:A5 SP:FB CYC: 91  C I  - N
D3A0  85 78     STA $78 = 3F                    A:41 X:40 Y:97 P:25 SP:FB CYC: 97  C I  -  
D3A2  E4 78     CPX $78 = 41                    A:41 X:40 Y:97 P:25 SP:FB CYC:106  C I  -  
D3A4  20 A8 F8  JSR $F8A8                       A:41 X:40 Y:97 P:A4 SP:FB CYC:115    I  - N
F8A8  F0 05     BEQ $F8AF                       A:41 X:40 Y:97 P:A4 SP:F9 CYC:133    I  - N
F8AA  10 03     BPL $F8AF                       A:41 X:40 Y:97 P:A4 SP:F9 CYC:139    I  - N
F8AC  10 01     BPL $F8AF                       A:41 X:40 Y:97 P:A4 SP:F9 CYC:145    I  - N
F8AE  60        RTS                             A:41 X:40 Y:97 P:A4 SP:F9 CYC:151    I  - N
D3A7  C8        INY                             A:41 X:40 Y:97 P:A4 SP:FB CYC:169    I  - N
D3A8  A9 00     LDA #$00                        A:41 X:40 Y:98 P:A4 SP:FB CYC:175    I  - N
D3AA  85 78     STA $78 = 41                    A:00 X:40 Y:98 P:26 SP:FB CYC:181   ZI  -  
D3AC  20 B2 F8  JSR $F8B2                       A:00 X:40 Y:98 P:26 SP:FB CYC:190   ZI  -  
F8B2  A9 80     LDA #$80                        A:00 X:40 Y:98 P:26 SP:F9 CYC:208   ZI  -  
F8B4  60        RTS                             A:80 X:40 Y:98 P:A4 SP:F9 CYC:214    I  - N
D3AF  AA        TAX                             A:80 X:40 Y:98 P:A4 SP:FB CYC:232    I  - N
D3B0  E4 78     CPX $78 = 00                    A:80 X:80 Y:98 P:A4 SP:FB CYC:238    I  - N
D3B2  20 B5 F8  JSR $F8B5                       A:80 X:80 Y:98 P:A5 SP:FB CYC:247  C I  - N
F8B5  F0 05     BEQ $F8BC                       A:80 X:80 Y:98 P:A5 SP:F9 CYC:265  C I  - N
F8B7  10 03     BPL $F8BC                       A:80 X:80 Y:98 P:A5 SP:F9 CYC:271  C I  - N
F8B9  90 01     BCC $F8BC                       A:80 X:80 Y:98 P:A5 SP:F9 CYC:277  C I  - N
F8BB  60        RTS                             A:80 X:80 Y:98 P:A5 SP:F9 CYC:283  C I  - N
D3B5  C8        INY                             A:80 X:80 Y:98 P:A5 SP:FB CYC:301  C I  - N
D3B6  A9 80     LDA #$80                        A:80 X:80 Y:99 P:A5 SP:FB CYC:307  C I  - N
D3B8  85 78     STA $78 = 00                    A:80 X:80 Y:99 P:A5 SP:FB CYC:313  C I  - N
D3BA  E4 78     CPX $78 = 80                    A:80 X:80 Y:99 P:A5 SP:FB CYC:322  C I  - N
D3BC  20 BF F8  JSR $F8BF                       A:80 X:80 Y:99 P:27 SP:FB CYC:331  CZI  -  
F8BF  D0 05     BNE $F8C6                       A:80 X:80 Y:99 P:27 SP:F9 CYC:  8  CZI  -  
F8C1  30 03     BMI $F8C6                       A:80 X:80 Y:99 P:27 SP:F9 CYC: 14  CZI  -  
F8C3  90 01     BCC $F8C6                       A:80 X:80 Y:99 P:27 SP:F9 CYC: 20  CZI  -  
F8C5  60        RTS                             A:80 X:80 Y:99 P:27 SP:F9 CYC: 26  CZI  -  
D3BF  C8        INY                             A:80 X:80 Y:99 P:27 SP:FB CYC: 44  CZI  -  
D3C0  A9 81     LDA #$81                        A:80 X:80 Y:9A P:A5 SP:FB CYC: 50  C I  - N
D3C2  85 78     STA $78 = 80                    A:81 X:80 Y:9A P:A5 SP:FB CYC: 56  C I  - N
D3C4  E4 78     CPX $78 = 81                    A:81 X:80 Y:9A P:A5 SP:FB CYC: 65  C I  - N
D3C6  20 C9 F8  JSR $F8C9                       A:81 X:80 Y:9A P:A4 SP:FB CYC: 74    I  - N
F8C9  B0 05     BCS $F8D0                       A:81 X:80 Y:9A P:A4 SP:F9 CYC: 92    I  - N
F8CB  F0 03     BEQ $F8D0                       A:81 X:80 Y:9A P:A4 SP:F9 CYC: 98    I  - N
F8CD  10 01     BPL $F8D0                       A:81 X:80 Y:9A P:A4 SP:F9 CYC:104    I  - N
F8CF  60        RTS                             A:81 X:80 Y:9A P:A4 SP:F9 CYC:110    I  - N
D3C9  C8        INY                             A:81 X:80 Y:9A P:A4 SP:FB CYC:128    I  - N
D3CA  A9 7F     LDA #$7F                        A:81 X:80 Y:9B P:A4 SP:FB CYC:134    I  - N
D3CC  85 78     STA $78 = 81                    A:7F X:80 Y:9B P:24 SP:FB CYC:140    I  -  
D3CE  E4 78     CPX $78 = 7F                    A:7F X:80 Y:9B P:24 SP:FB CYC:149    I  -  
D3D0  20 D3 F8  JSR $F8D3                       A:7F X:80 Y:9B P:25 SP:FB CYC:158  C I  -  
F8D3  90 05     BCC $F8DA                       A:7F X:80 Y:9B P:25 SP:F9 CYC:176  C I  -  
F8D5  F0 03     BEQ $F8DA                       A:7F X:80 Y:9B P:25 SP:F9 CYC:182  C I  -  
F8D7  30 01     BMI $F8DA                       A:7F X:80 Y:9B P:25 SP:F9 CYC:188  C I  -  
F8D9  60        RTS                             A:7F X:80 Y:9B P:25 SP:F9 CYC:194  C I  -  
D3D3  C8        INY                             A:7F X:80 Y:9B P:25 SP:FB CYC:212  C I  -  
D3D4  98        TYA                             A:7F X:80 Y:9C P:A5 SP:FB CYC:218  C I  - N
D3D5  AA        TAX                             A:9C X:80 Y:9C P:A5 SP:FB CYC:224  C I  - N
D3D6  A9 40     LDA #$40                        A:9C X:9C Y:9C P:A5 SP:FB CYC:230  C I  - N
D3D8  85 78     STA $78 = 7F                    A:40 X:9C Y:9C P:25 SP:FB CYC:236  C I  -  
D3DA  20 DD F8  JSR $F8DD                       A:40 X:9C Y:9C P:25 SP:FB CYC:245  C I  -  
F8DD  24 01     BIT $01 = FF                    A:40 X:9C Y:9C P:25 SP:F9 CYC:263  C I  -  
F8DF  A0 40     LDY #$40                        A:40 X:9C Y:9C P:E5 SP:F9 CYC:272  C I  -VN
F8E1  60        RTS                             A:40 X:9C Y:40 P:65 SP:F9 CYC:278  C I  -V 
D3DD  C4 78     CPY $78 = 40                    A:40 X:9C Y:40 P:65 SP:FB CYC:296  C I  -V 
D3DF  20 E2 F8  JSR $F8E2                       A:40 X:9C Y:40 P:67 SP:FB CYC:305  CZI  -V 
F8E2  30 07     BMI $F8EB                       A:40 X:9C Y:40 P:67 SP:F9 CYC:323  CZI  -V 
F8E4  90 05     BCC $F8EB                       A:40 X:9C Y:40 P:67 SP:F9 CYC:329  CZI  -V 
F8E6  D0 03     BNE $F8EB                       A:40 X:9C Y:40 P:67 SP:F9 CYC:335  CZI  -V 
F8E8  50 01     BVC $F8EB                       A:40 X:9C Y:40 P:67 SP:F9 CYC:  0  CZI  -V 
F8EA  60        RTS                             A:40 X:9C Y:40 P:67 SP:F9 CYC:  6  CZI  -V 
D3E2  E8        INX                             A:40 X:9C Y:40 P:67 SP:FB CYC: 24  CZI  -V 
D3E3  A9 3F     LDA #$3F                        A:40 X:9D Y:40 P:E5 SP:FB CYC: 30  C I  -VN
D3E5  85 78     STA $78 = 40                    A:3F X:9D Y:40 P:65 SP:FB CYC: 36  C I  -V 
D3E7  20 EE F8  JSR $F8EE                       A:3F X:9D Y:40 P:65 SP:FB CYC: 45  C I  -V 
F8EE  B8        CLV                             A:3F X:9D Y:40 P:65 SP:F9 CYC: 63  C I  -V 
F8EF  60        RTS                             A:3F X:9D Y:40 P:25 SP:F9 CYC: 69  C I  -  
D3EA  C4 78     CPY $78 = 3F                    A:3F X:9D Y:40 P:25 SP:FB CYC: 87  C I  -  
D3EC  20 F0 F8  JSR $F8F0                       A:3F X:9D Y:40 P:25 SP:FB CYC: 96  C I  -  
F8F0  F0 07     BEQ $F8F9                       A:3F X:9D Y:40 P:25 SP:F9 CYC:114  C I  -  
F8F2  30 05     BMI $F8F9                       A:3F X:9D Y:40 P:25 SP:F9 CYC:120  C I  -  
F8F4  90 03     BCC $F8F9                       A:3F X:9D Y:40 P:25 SP:F9 CYC:126  C I  -  
F8F6  70 01     BVS $F8F9                       A:3F X:9D Y:40 P:25 SP:F9 CYC:132  C I  -  
F8F8  60        RTS                             A:3F X:9D Y:40 P:25 SP:F9 CYC:138  C I  -  
D3EF  E8        INX                             A:3F X:9D Y:40 P:25 SP:FB CYC:156  C I  -  
D3F0  A9 41     LDA #$41                        A:3F X:9E Y:40 P:A5 SP:FB CYC:162  C I  - N
D3F2  85 78     STA $78 = 3F                    A:41 X:9E Y:40 P:25 SP:FB CYC:168  C I  -  
D3F4  C4 78     CPY $78 = 41                    A:41 X:9E Y:40 P:25 SP:FB CYC:177  C I  -  
D3F6  20 FC F8  JSR $F8FC                       A:41 X:9E Y:40 P:A4 SP:FB CYC:186    I  - N
F8FC  F0 05     BEQ $F903                       A:41 X:9E Y:40 P:A4 SP:F9 CYC:204    I  - N
F8FE  10 03     BPL $F903                       A:41 X:9E Y:40 P:A4 SP:F9 CYC:210    I  - N
F900  10 01     BPL $F903                       A:41 X:9E Y:40 P:A4 SP:F9 CYC:216    I  - N
F902  60        RTS                             A:41 X:9E Y:40 P:A4 SP:F9 CYC:222    I  - N
D3F9  E8        INX                             A:41 X:9E Y:40 P:A4 SP:FB CYC:240    I  - N
D3FA  A9 00     LDA #$00                        A:41 X:9F Y:40 P:A4 SP:FB CYC:246    I  - N
D3FC  85 78     STA $78 = 41                    A:00 X:9F Y:40 P:26 SP:FB CYC:252   ZI  -  
D3FE  20 06 F9  JSR $F906                       A:00 X:9F Y:40 P:26 SP:FB CYC:261   ZI  -  
F906  A0 80     LDY #$80                        A:00 X:9F Y:40 P:26 SP:F9 CYC:279   ZI  -  
F908  60        RTS                             A:00 X:9F Y:80 P:A4 SP:F9 CYC:285    I  - N
D401  C4 78     CPY $78 = 00                    A:00 X:9F Y:80 P:A4 SP:FB CYC:303    I  - N
D403  20 09 F9  JSR $F909                       A:00 X:9F Y:80 P:A5 SP:FB CYC:312  C I  - N
F909  F0 05     BEQ $F910                       A:00 X:9F Y:80 P:A5 SP:F9 CYC:330  C I  - N
F90B  10 03     BPL $F910                       A:00 X:9F Y:80 P:A5 SP:F9 CYC:336  C I  - N
F90D  90 01     BCC $F910                       A:00 X:9F Y:80 P:A5 SP:F9 CYC:  1  C I  - N
F90F  60        RTS                             A:00 X:9F Y:80 P:A5 SP:F9 CYC:  7  C I  - N
D406  E8        INX                             A:00 X:9F Y:80 P:A5 SP:FB CYC: 25  C I  - N
D407  A9 80     LDA #$80                        A:00 X:A0 Y:80 P:A5 SP:FB CYC: 31  C I  - N
D409  85 78     STA $78 = 00                    A:80 X:A0 Y:80 P:A5 SP:FB CYC: 37  C I  - N
D40B  C4 78     CPY $78 = 80                    A:80 X:A0 Y:80 P:A5 SP:FB CYC: 46  C I  - N
D40D  20 13 F9  JSR $F913                       A:80 X:A0 Y:80 P:27 SP:FB CYC: 55  CZI  -  
F913  D0 05     BNE $F91A                       A:80 X:A0 Y:80 P:27 SP:F9 CYC: 73  CZI  -  
F915  30 03     BMI $F91A                       A:80 X:A0 Y:80 P:27 SP:F9 CYC: 79  CZI  -  
F917  90 01     BCC $F91A                       A:80 X:A0 Y:80 P:27 SP:F9 CYC: 85  CZI  -  
F919  60        RTS                             A:80 X:A0 Y:80 P:27 SP:F9 CYC: 91  CZI  -  
D410  E8        INX                             A:80 X:A0 Y:80 P:27 SP:FB CYC:109  CZI  -  
D411  A9 81     LDA #$81                        A:80 X:A1 Y:80 P:A5 SP:FB CYC:115  C I  - N
D413  85 78     STA $78 = 80                    A:81 X:A1 Y:80 P:A5 SP:FB CYC:121  C I  - N
D415  C4 78     CPY $78 = 81                    A:81 X:A1 Y:80 P:A5 SP:FB CYC:130  C I  - N
D417  20 1D F9  JSR $F91D                       A:81 X:A1 Y:80 P:A4 SP:FB CYC:139    I  - N
F91D  B0 05     BCS $F924                       A:81 X:A1 Y:80 P:A4 SP:F9 CYC:157    I  - N
F91F  F0 03     BEQ $F924                       A:81 X:A1 Y:80 P:A4 SP:F9 CYC:163    I  - N
F921  10 01     BPL $F924                       A:81 X:A1 Y:80 P:A4 SP:F9 CYC:169    I  - N
F923  60        RTS                             A:81 X:A1 Y:80 P:A4 SP:F9 CYC:175    I  - N
D41A  E8        INX                             A:81 X:A1 Y:80 P:A4 SP:FB CYC:193    I  - N
D41B  A9 7F     LDA #$7F                        A:81 X:A2 Y:80 P:A4 SP:FB CYC:199    I  - N
D41D  85 78     STA $78 = 81                    A:7F X:A2 Y:80 P:24 SP:FB CYC:205    I  -  
D41F  C4 78     CPY $78 = 7F                    A:7F X:A2 Y:80 P:24 SP:FB CYC:214    I  -  
D421  20 27 F9  JSR $F927                       A:7F X:A2 Y:80 P:25 SP:FB CYC:223  C I  -  
F927  90 05     BCC $F92E                       A:7F X:A2 Y:80 P:25 SP:F9 CYC:241  C I  -  
F929  F0 03     BEQ $F92E                       A:7F X:A2 Y:80 P:25 SP:F9 CYC:247  C I  -  
F92B  30 01     BMI $F92E                       A:7F X:A2 Y:80 P:25 SP:F9 CYC:253  C I  -  
F92D  60        RTS                             A:7F X:A2 Y:80 P:25 SP:F9 CYC:259  C I  -  
D424  E8        INX                             A:7F X:A2 Y:80 P:25 SP:FB CYC:277  C I  -  
D425  8A        TXA                             A:7F X:A3 Y:80 P:A5 SP:FB CYC:283  C I  - N
D426  A8        TAY                             A:A3 X:A3 Y:80 P:A5 SP:FB CYC:289  C I  - N
D427  20 90 F9  JSR $F990                       A:A3 X:A3 Y:A3 P:A5 SP:FB CYC:295  C I  - N
F990  A2 55     LDX #$55                        A:A3 X:A3 Y:A3 P:A5 SP:F9 CYC:313  C I  - N
F992  A9 FF     LDA #$FF                        A:A3 X:55 Y:A3 P:25 SP:F9 CYC:319  C I  -  
F994  85 01     STA $01 = FF                    A:FF X:55 Y:A3 P:A5 SP:F9 CYC:325  C I  - N
F996  EA        NOP                             A:FF X:55 Y:A3 P:A5 SP:F9 CYC:334  C I  - N
F997  24 01     BIT $01 = FF                    A:FF X:55 Y:A3 P:A5 SP:F9 CYC:340  C I  - N
F999  38        SEC                             A:FF X:55 Y:A3 P:E5 SP:F9 CYC:  8  C I  -VN
F99A  A9 01     LDA #$01                        A:FF X:55 Y:A3 P:E5 SP:F9 CYC: 14  C I  -VN
F99C  60        RTS                             A:01 X:55 Y:A3 P:65 SP:F9 CYC: 20  C I  -V 
D42A  85 78     STA $78 = 7F                    A:01 X:55 Y:A3 P:65 SP:FB CYC: 38  C I  -V 
D42C  46 78     LSR $78 = 01                    A:01 X:55 Y:A3 P:65 SP:FB CYC: 47  C I  -V 
D42E  A5 78     LDA $78 = 00                    A:01 X:55 Y:A3 P:67 SP:FB CYC: 62  CZI  -V 
D430  20 9D F9  JSR $F99D                       A:00 X:55 Y:A3 P:67 SP:FB CYC: 71  CZI  -V 
F99D  90 1B     BCC $F9BA                       A:00 X:55 Y:A3 P:67 SP:F9 CYC: 89  CZI  -V 
F99F  D0 19     BNE $F9BA                       A:00 X:55 Y:A3 P:67 SP:F9 CYC: 95  CZI  -V 
F9A1  30 17     BMI $F9BA                       A:00 X:55 Y:A3 P:67 SP:F9 CYC:101  CZI  -V 
F9A3  50 15     BVC $F9BA                       A:00 X:55 Y:A3 P:67 SP:F9 CYC:107  CZI  -V 
F9A5  C9 00     CMP #$00                        A:00 X:55 Y:A3 P:67 SP:F9 CYC:113  CZI  -V 
F9A7  D0 11     BNE $F9BA                       A:00 X:55 Y:A3 P:67 SP:F9 CYC:119  CZI  -V 
F9A9  B8        CLV                             A:00 X:55 Y:A3 P:67 SP:F9 CYC:125  CZI  -V 
F9AA  A9 AA     LDA #$AA                        A:00 X:55 Y:A3 P:27 SP:F9 CYC:131  CZI  -  
F9AC  60        RTS                             A:AA X:55 Y:A3 P:A5 SP:F9 CYC:137  C I  - N
D433  C8        INY                             A:AA X:55 Y:A3 P:A5 SP:FB CYC:155  C I  - N
D434  85 78     STA $78 = 00                    A:AA X:55 Y:A4 P:A5 SP:FB CYC:161  C I  - N
D436  46 78     LSR $78 = AA                    A:AA X:55 Y:A4 P:A5 SP:FB CYC:170  C I  - N
D438  A5 78     LDA $78 = 55                    A:AA X:55 Y:A4 P:24 SP:FB CYC:185    I  -  
D43A  20 AD F9  JSR $F9AD                       A:55 X:55 Y:A4 P:24 SP:FB CYC:194    I  -  
F9AD  B0 0B     BCS $F9BA                       A:55 X:55 Y:A4 P:24 SP:F9 CYC:212    I  -  
F9AF  F0 09     BEQ $F9BA                       A:55 X:55 Y:A4 P:24 SP:F9 CYC:218    I  -  
F9B1  30 07     BMI $F9BA                       A:55 X:55 Y:A4 P:24 SP:F9 CYC:224    I  -  
F9B3  70 05     BVS $F9BA                       A:55 X:55 Y:A4 P:24 SP:F9 CYC:230    I  -  
F9B5  C9 55     CMP #$55                        A:55 X:55 Y:A4 P:24 SP:F9 CYC:236    I  -  
F9B7  D0 01     BNE $F9BA                       A:55 X:55 Y:A4 P:27 SP:F9 CYC:242  CZI  -  
F9B9  60        RTS                             A:55 X:55 Y:A4 P:27 SP:F9 CYC:248  CZI  -  
D43D  C8        INY                             A:55 X:55 Y:A4 P:27 SP:FB CYC:266  CZI  -  
D43E  20 BD F9  JSR $F9BD                       A:55 X:55 Y:A5 P:A5 SP:FB CYC:272  C I  - N
F9BD  24 01     BIT $01 = FF                    A:55 X:55 Y:A5 P:A5 SP:F9 CYC:290  C I  - N
F9BF  38        SEC                             A:55 X:55 Y:A5 P:E5 SP:F9 CYC:299  C I  -VN
F9C0  A9 80     LDA #$80                        A:55 X:55 Y:A5 P:E5 SP:F9 CYC:305  C I  -VN
F9C2  60        RTS                             A:80 X:55 Y:A5 P:E5 SP:F9 CYC:311  C I  -VN
D441  85 78     STA $78 = 55                    A:80 X:55 Y:A5 P:E5 SP:FB CYC:329  C I  -VN
D443  06 78     ASL $78 = 80                    A:80 X:55 Y:A5 P:E5 SP:FB CYC:338  C I  -VN
D445  A5 78     LDA $78 = 00                    A:80 X:55 Y:A5 P:67 SP:FB CYC: 12  CZI  -V 
D447  20 C3 F9  JSR $F9C3                       A:00 X:55 Y:A5 P:67 SP:FB CYC: 21  CZI  -V 
F9C3  90 1C     BCC $F9E1                       A:00 X:55 Y:A5 P:67 SP:F9 CYC: 39  CZI  -V 
F9C5  D0 1A     BNE $F9E1                       A:00 X:55 Y:A5 P:67 SP:F9 CYC: 45  CZI  -V 
F9C7  30 18     BMI $F9E1                       A:00 X:55 Y:A5 P:67 SP:F9 CYC: 51  CZI  -V 
F9C9  50 16     BVC $F9E1                       A:00 X:55 Y:A5 P:67 SP:F9 CYC: 57  CZI  -V 
F9CB  C9 00     CMP #$00                        A:00 X:55 Y:A5 P:67 SP:F9 CYC: 63  CZI  -V 
F9CD  D0 12     BNE $F9E1                       A:00 X:55 Y:A5 P:67 SP:F9 CYC: 69  CZI  -V 
F9CF  B8        CLV                             A:00 X:55 Y:A5 P:67 SP:F9 CYC: 75  CZI  -V 
F9D0  A9 55     LDA #$55                        A:00 X:55 Y:A5 P:27 SP:F9 CYC: 81  CZI  -  
F9D2  38        SEC                             A:55 X:55 Y:A5 P:25 SP:F9 CYC: 87  C I  -  
F9D3  60        RTS                             A:55 X:55 Y:A5 P:25 SP:F9 CYC: 93  C I  -  
D44A  C8        INY                             A:55 X:55 Y:A5 P:25 SP:FB CYC:111  C I  -  
D44B  85 78     STA $78 = 00                    A:55 X:55 Y:A6 P:A5 SP:FB CYC:117  C I  - N
D44D  06 78     ASL $78 = 55                    A:55 X:55 Y:A6 P:A5 SP:FB CYC:126  C I  - N
D44F  A5 78     LDA $78 = AA                    A:55 X:55 Y:A6 P:A4 SP:FB CYC:141    I  - N
D451  20 D4 F9  JSR $F9D4                       A:AA X:55 Y:A6 P:A4 SP:FB CYC:150    I  - N
F9D4  B0 0B     BCS $F9E1                       A:AA X:55 Y:A6 P:A4 SP:F9 CYC:168    I  - N
F9D6  F0 09     BEQ $F9E1                       A:AA X:55 Y:A6 P:A4 SP:F9 CYC:174    I  - N
F9D8  10 07     BPL $F9E1                       A:AA X:55 Y:A6 P:A4 SP:F9 CYC:180    I  - N
F9DA  70 05     BVS $F9E1                       A:AA X:55 Y:A6 P:A4 SP:F9 CYC:186    I  - N
F9DC  C9 AA     CMP #$AA                        A:AA X:55 Y:A6 P:A4 SP:F9 CYC:192    I  - N
F9DE  D0 01     BNE $F9E1                       A:AA X:55 Y:A6 P:27 SP:F9 CYC:198  CZI  -  
F9E0  60        RTS                             A:AA X:55 Y:A6 P:27 SP:F9 CYC:204  CZI  -  
D454  C8        INY                             A:AA X:55 Y:A6 P:27 SP:FB CYC:222  CZI  -  
D455  20 E4 F9  JSR $F9E4                       A:AA X:55 Y:A7 P:A5 SP:FB CYC:228  C I  - N
F9E4  24 01     BIT $01 = FF                    A:AA X:55 Y:A7 P:A5 SP:F9 CYC:246  C I  - N
F9E6  38        SEC                             A:AA X:55 Y:A7 P:E5 SP:F9 CYC:255  C I  -VN
F9E7  A9 01     LDA #$01                        A:AA X:55 Y:A7 P:E5 SP:F9 CYC:261  C I  -VN
F9E9  60        RTS                             A:01 X:55 Y:A7 P:65 SP:F9 CYC:267  C I  -V 
D458  85 78     STA $78 = AA                    A:01 X:55 Y:A7 P:65 SP:FB CYC:285  C I  -V 
D45A  66 78     ROR $78 = 01                    A:01 X:55 Y:A7 P:65 SP:FB CYC:294  C I  -V 
D45C  A5 78     LDA $78 = 80                    A:01 X:55 Y:A7 P:E5 SP:FB CYC:309  C I  -VN
D45E  20 EA F9  JSR $F9EA                       A:80 X:55 Y:A7 P:E5 SP:FB CYC:318  C I  -VN
F9EA  90 1C     BCC $FA08                       A:80 X:55 Y:A7 P:E5 SP:F9 CYC:336  C I  -VN
F9EC  F0 1A     BEQ $FA08                       A:80 X:55 Y:A7 P:E5 SP:F9 CYC:  1  C I  -VN
F9EE  10 18     BPL $FA08                       A:80 X:55 Y:A7 P:E5 SP:F9 CYC:  7  C I  -VN
F9F0  50 16     BVC $FA08                       A:80 X:55 Y:A7 P:E5 SP:F9 CYC: 13  C I  -VN
F9F2  C9 80     CMP #$80                        A:80 X:55 Y:A7 P:E5 SP:F9 CYC: 19  C I  -VN
F9F4  D0 12     BNE $FA08                       A:80 X:55 Y:A7 P:67 SP:F9 CYC: 25  CZI  -V 
F9F6  B8        CLV                             A:80 X:55 Y:A7 P:67 SP:F9 CYC: 31  CZI  -V 
F9F7  18        CLC                             A:80 X:55 Y:A7 P:27 SP:F9 CYC: 37  CZI  -  
F9F8  A9 55     LDA #$55                        A:80 X:55 Y:A7 P:26 SP:F9 CYC: 43   ZI  -  
F9FA  60        RTS                             A:55 X:55 Y:A7 P:24 SP:F9 CYC: 49    I  -  
D461  C8        INY                             A:55 X:55 Y:A7 P:24 SP:FB CYC: 67    I  -  
D462  85 78     STA $78 = 80                    A:55 X:55 Y:A8 P:A4 SP:FB CYC: 73    I  - N
D464  66 78     ROR $78 = 55                    A:55 X:55 Y:A8 P:A4 SP:FB CYC: 82    I  - N
D466  A5 78     LDA $78 = 2A                    A:55 X:55 Y:A8 P:25 SP:FB CYC: 97  C I  -  
D468  20 FB F9  JSR $F9FB                       A:2A X:55 Y:A8 P:25 SP:FB CYC:106  C I  -  
F9FB  90 0B     BCC $FA08                       A:2A X:55 Y:A8 P:25 SP:F9 CYC:124  C I  -  
F9FD  F0 09     BEQ $FA08                       A:2A X:55 Y:A8 P:25 SP:F9 CYC:130  C I  -  
F9FF  30 07     BMI $FA08                       A:2A X:55 Y:A8 P:25 SP:F9 CYC:136  C I  -  
FA01  70 05     BVS $FA08                       A:2A X:55 Y:A8 P:25 SP:F9 CYC:142  C I  -  
FA03  C9 2A     CMP #$2A                        A:2A X:55 Y:A8 P:25 SP:F9 CYC:148  C I  -  
FA05  D0 01     BNE $FA08                       A:2A X:55 Y:A8 P:27 SP:F9 CYC:154  CZI  -  
FA07  60        RTS                             A:2A X:55 Y:A8 P:27 SP:F9 CYC:160  CZI  -  
D46B  C8        INY                             A:2A X:55 Y:A8 P:27 SP:FB CYC:178  CZI  -  
D46C  20 0A FA  JSR $FA0A                       A:2A X:55 Y:A9 P:A5 SP:FB CYC:184  C I  - N
FA0A  24 01     BIT $01 = FF                    A:2A X:55 Y:A9 P:A5 SP:F9 CYC:202  C I  - N
FA0C  38        SEC                             A:2A X:55 Y:A9 P:E5 SP:F9 CYC:211  C I  -VN
FA0D  A9 80     LDA #$80                        A:2A X:55 Y:A9 P:E5 SP:F9 CYC:217  C I  -VN
FA0F  60        RTS                             A:80 X:55 Y:A9 P:E5 SP:F9 CYC:223  C I  -VN
D46F  85 78     STA $78 = 2A                    A:80 X:55 Y:A9 P:E5 SP:FB CYC:241  C I  -VN
D471  26 78     ROL $78 = 80                    A:80 X:55 Y:A9 P:E5 SP:FB CYC:250  C I  -VN
D473  A5 78     LDA $78 = 01                    A:80 X:55 Y:A9 P:65 SP:FB CYC:265  C I  -V 
D475  20 10 FA  JSR $FA10                       A:01 X:55 Y:A9 P:65 SP:FB CYC:274  C I  -V 
FA10  90 1C     BCC $FA2E                       A:01 X:55 Y:A9 P:65 SP:F9 CYC:292  C I  -V 
FA12  F0 1A     BEQ $FA2E                       A:01 X:55 Y:A9 P:65 SP:F9 CYC:298  C I  -V 
FA14  30 18     BMI $FA2E                       A:01 X:55 Y:A9 P:65 SP:F9 CYC:304  C I  -V 
FA16  50 16     BVC $FA2E                       A:01 X:55 Y:A9 P:65 SP:F9 CYC:310  C I  -V 
FA18  C9 01     CMP #$01                        A:01 X:55 Y:A9 P:65 SP:F9 CYC:316  C I  -V 
FA1A  D0 12     BNE $FA2E                       A:01 X:55 Y:A9 P:67 SP:F9 CYC:322  CZI  -V 
FA1C  B8        CLV                             A:01 X:55 Y:A9 P:67 SP:F9 CYC:328  CZI  -V 
FA1D  18        CLC                             A:01 X:55 Y:A9 P:27 SP:F9 CYC:334  CZI  -  
FA1E  A9 55     LDA #$55                        A:01 X:55 Y:A9 P:26 SP:F9 CYC:340   ZI  -  
FA20  60        RTS                             A:55 X:55 Y:A9 P:24 SP:F9 CYC:  5    I  -  
D478  C8        INY                             A:55 X:55 Y:A9 P:24 SP:FB CYC: 23    I  -  
D479  85 78     STA $78 = 01                    A:55 X:55 Y:AA P:A4 SP:FB CYC: 29    I  - N
D47B  26 78     ROL $78 = 55                    A:55 X:55 Y:AA P:A4 SP:FB CYC: 38    I  - N
D47D  A5 78     LDA $78 = AA                    A:55 X:55 Y:AA P:A4 SP:FB CYC: 53    I  - N
D47F  20 21 FA  JSR $FA21                       A:AA X:55 Y:AA P:A4 SP:FB CYC: 62    I  - N
FA21  B0 0B     BCS $FA2E                       A:AA X:55 Y:AA P:A4 SP:F9 CYC: 80    I  - N
FA23  F0 09     BEQ $FA2E                       A:AA X:55 Y:AA P:A4 SP:F9 CYC: 86    I  - N
FA25  10 07     BPL $FA2E                       A:AA X:55 Y:AA P:A4 SP:F9 CYC: 92    I  - N
FA27  70 05     BVS $FA2E                       A:AA X:55 Y:AA P:A4 SP:F9 CYC: 98    I  - N
FA29  C9 AA     CMP #$AA                        A:AA X:55 Y:AA P:A4 SP:F9 CYC:104    I  - N
FA2B  D0 01     BNE $FA2E                       A:AA X:55 Y:AA P:27 SP:F9 CYC:110  CZI  -  
FA2D  60        RTS                             A:AA X:55 Y:AA P:27 SP:F9 CYC:116  CZI  -  
D482  A9 FF     LDA #$FF                        A:AA X:55 Y:AA P:27 SP:FB CYC:134  CZI  -  
D484  85 78     STA $78 = AA                    A:FF X:55 Y:AA P:A5 SP:FB CYC:140  C I  - N
D486  85 01     STA $01 = FF                    A:FF X:55 Y:AA P:A5 SP:FB CYC:149  C I  - N
D488  24 01     BIT $01 = FF                    A:FF X:55 Y:AA P:A5 SP:FB CYC:158  C I  - N
D48A  38        SEC                             A:FF X:55 Y:AA P:E5 SP:FB CYC:167  C I  -VN
D48B  E6 78     INC $78 = FF                    A:FF X:55 Y:AA P:E5 SP:FB CYC:173  C I  -VN
D48D  D0 0C     BNE $D49B                       A:FF X:55 Y:AA P:67 SP:FB CYC:188  CZI  -V 
D48F  30 0A     BMI $D49B                       A:FF X:55 Y:AA P:67 SP:FB CYC:194  CZI  -V 
D491  50 08     BVC $D49B                       A:FF X:55 Y:AA P:67 SP:FB CYC:200  CZI  -V 
D493  90 06     BCC $D49B                       A:FF X:55 Y:AA P:67 SP:FB CYC:206  CZI  -V 
D495  A5 78     LDA $78 = 00                    A:FF X:55 Y:AA P:67 SP:FB CYC:212  CZI  -V 
D497  C9 00     CMP #$00                        A:00 X:55 Y:AA P:67 SP:FB CYC:221  CZI  -V 
D499  F0 04     BEQ $D49F                       A:00 X:55 Y:AA P:67 SP:FB CYC:227  CZI  -V 
D49F  A9 7F     LDA #$7F                        A:00 X:55 Y:AA P:67 SP:FB CYC:236  CZI  -V 
D4A1  85 78     STA $78 = 00                    A:7F X:55 Y:AA P:65 SP:FB CYC:242  C I  -V 
D4A3  B8        CLV                             A:7F X:55 Y:AA P:65 SP:FB CYC:251  C I  -V 
D4A4  18        CLC                             A:7F X:55 Y:AA P:25 SP:FB CYC:257  C I  -  
D4A5  E6 78     INC $78 = 7F                    A:7F X:55 Y:AA P:24 SP:FB CYC:263    I  -  
D4A7  F0 0C     BEQ $D4B5                       A:7F X:55 Y:AA P:A4 SP:FB CYC:278    I  - N
D4A9  10 0A     BPL $D4B5                       A:7F X:55 Y:AA P:A4 SP:FB CYC:284    I  - N
D4AB  70 08     BVS $D4B5                       A:7F X:55 Y:AA P:A4 SP:FB CYC:290    I  - N
D4AD  B0 06     BCS $D4B5                       A:7F X:55 Y:AA P:A4 SP:FB CYC:296    I  - N
D4AF  A5 78     LDA $78 = 80                    A:7F X:55 Y:AA P:A4 SP:FB CYC:302    I  - N
D4B1  C9 80     CMP #$80                        A:80 X:55 Y:AA P:A4 SP:FB CYC:311    I  - N
D4B3  F0 04     BEQ $D4B9                       A:80 X:55 Y:AA P:27 SP:FB CYC:317  CZI  -  
D4B9  A9 00     LDA #$00                        A:80 X:55 Y:AA P:27 SP:FB CYC:326  CZI  -  
D4BB  85 78     STA $78 = 80                    A:00 X:55 Y:AA P:27 SP:FB CYC:332  CZI  -  
D4BD  24 01     BIT $01 = FF                    A:00 X:55 Y:AA P:27 SP:FB CYC:  0  CZI  -  
D4BF  38        SEC                             A:00 X:55 Y:AA P:E7 SP:FB CYC:  9  CZI  -VN
D4C0  C6 78     DEC $78 = 00                    A:00 X:55 Y:AA P:E7 SP:FB CYC: 15  CZI  -VN
D4C2  F0 0C     BEQ $D4D0                       A:00 X:55 Y:AA P:E5 SP:FB CYC: 30  C I  -VN
D4C4  10 0A     BPL $D4D0                       A:00 X:55 Y:AA P:E5 SP:FB CYC: 36  C I  -VN
D4C6  50 08     BVC $D4D0                       A:00 X:55 Y:AA P:E5 SP:FB CYC: 42  C I  -VN
D4C8  90 06     BCC $D4D0                       A:00 X:55 Y:AA P:E5 SP:FB CYC: 48  C I  -VN
D4CA  A5 78     LDA $78 = FF                    A:00 X:55 Y:AA P:E5 SP:FB CYC: 54  C I  -VN
D4CC  C9 FF     CMP #$FF                        A:FF X:55 Y:AA P:E5 SP:FB CYC: 63  C I  -VN
D4CE  F0 04     BEQ $D4D4                       A:FF X:55 Y:AA P:67 SP:FB CYC: 69  CZI  -V 
D4D4  A9 80     LDA #$80                        A:FF X:55 Y:AA P:67 SP:FB CYC: 78  CZI  -V 
D4D6  85 78     STA $78 = FF                    A:80 X:55 Y:AA P:E5 SP:FB CYC: 84  C I  -VN
D4D8  B8        CLV                             A:80 X:55 Y:AA P:E5 SP:FB CYC: 93  C I  -VN
D4D9  18        CLC                             A:80 X:55 Y:AA P:A5 SP:FB CYC: 99  C I  - N
D4DA  C6 78     DEC $78 = 80                    A:80 X:55 Y:AA P:A4 SP:FB CYC:105    I  - N
D4DC  F0 0C     BEQ $D4EA                       A:80 X:55 Y:AA P:24 SP:FB CYC:120    I  -  
D4DE  30 0A     BMI $D4EA                       A:80 X:55 Y:AA P:24 SP:FB CYC:126    I  -  
D4E0  70 08     BVS $D4EA                       A:80 X:55 Y:AA P:24 SP:FB CYC:132    I  -  
D4E2  B0 06     BCS $D4EA                       A:80 X:55 Y:AA P:24 SP:FB CYC:138    I  -  
D4E4  A5 78     LDA $78 = 7F                    A:80 X:55 Y:AA P:24 SP:FB CYC:144    I  -  
D4E6  C9 7F     CMP #$7F                        A:7F X:55 Y:AA P:24 SP:FB CYC:153    I  -  
D4E8  F0 04     BEQ $D4EE                       A:7F X:55 Y:AA P:27 SP:FB CYC:159  CZI  -  
D4EE  A9 01     LDA #$01                        A:7F X:55 Y:AA P:27 SP:FB CYC:168  CZI  -  
D4F0  85 78     STA $78 = 7F                    A:01 X:55 Y:AA P:25 SP:FB CYC:174  C I  -  
D4F2  C6 78     DEC $78 = 01                    A:01 X:55 Y:AA P:25 SP:FB CYC:183  C I  -  
D4F4  F0 04     BEQ $D4FA                       A:01 X:55 Y:AA P:27 SP:FB CYC:198  CZI  -  
D4FA  60        RTS                             A:01 X:55 Y:AA P:27 SP:FB CYC:207  CZI  -  
C615  20 FB D4  JSR $D4FB                       A:01 X:55 Y:AA P:27 SP:FD CYC:225  CZI  -  
D4FB  A9 55     LDA #$55                        A:01 X:55 Y:AA P:27 SP:FB CYC:243  CZI  -  
D4FD  8D 78 06  STA $0678 = 00                  A:55 X:55 Y:AA P:25 SP:FB CYC:249  C I  -  
D500  A9 FF     LDA #$FF                        A:55 X:55 Y:AA P:25 SP:FB CYC:261  C I  -  
D502  85 01     STA $01 = FF                    A:FF X:55 Y:AA P:A5 SP:FB CYC:267  C I  - N
D504  24 01     BIT $01 = FF                    A:FF X:55 Y:AA P:A5 SP:FB CYC:276  C I  - N
D506  A0 11     LDY #$11                        A:FF X:55 Y:AA P:E5 SP:FB CYC:285  C I  -VN
D508  A2 23     LDX #$23                        A:FF X:55 Y:11 P:65 SP:FB CYC:291  C I  -V 
D50A  A9 00     LDA #$00                        A:FF X:23 Y:11 P:65 SP:FB CYC:297  C I  -V 
D50C  AD 78 06  LDA $0678 = 55                  A:00 X:23 Y:11 P:67 SP:FB CYC:303  CZI  -V 
D50F  F0 10     BEQ $D521                       A:55 X:23 Y:11 P:65 SP:FB CYC:315  C I  -V 
D511  30 0E     BMI $D521                       A:55 X:23 Y:11 P:65 SP:FB CYC:321  C I  -V 
D513  C9 55     CMP #$55                        A:55 X:23 Y:11 P:65 SP:FB CYC:327  C I  -V 
D515  D0 0A     BNE $D521                       A:55 X:23 Y:11 P:67 SP:FB CYC:333  CZI  -V 
D517  C0 11     CPY #$11                        A:55 X:23 Y:11 P:67 SP:FB CYC:339  CZI  -V 
D519  D0 06     BNE $D521                       A:55 X:23 Y:11 P:67 SP:FB CYC:  4  CZI  -V 
D51B  E0 23     CPX #$23                        A:55 X:23 Y:11 P:67 SP:FB CYC: 10  CZI  -V 
D51D  50 02     BVC $D521                       A:55 X:23 Y:11 P:67 SP:FB CYC: 16  CZI  -V 
D51F  F0 04     BEQ $D525                       A:55 X:23 Y:11 P:67 SP:FB CYC: 22  CZI  -V 
D525  A9 46     LDA #$46                        A:55 X:23 Y:11 P:67 SP:FB CYC: 31  CZI  -V 
D527  24 01     BIT $01 = FF                    A:46 X:23 Y:11 P:65 SP:FB CYC: 37  C I  -V 
D529  8D 78 06  STA $0678 = 55                  A:46 X:23 Y:11 P:E5 SP:FB CYC: 46  C I  -VN
D52C  F0 0B     BEQ $D539                       A:46 X:23 Y:11 P:E5 SP:FB CYC: 58  C I  -VN
D52E  10 09     BPL $D539                       A:46 X:23 Y:11 P:E5 SP:FB CYC: 64  C I  -VN
D530  50 07     BVC $D539                       A:46 X:23 Y:11 P:E5 SP:FB CYC: 70  C I  -VN
D532  AD 78 06  LDA $0678 = 46                  A:46 X:23 Y:11 P:E5 SP:FB CYC: 76  C I  -VN
D535  C9 46     CMP #$46                        A:46 X:23 Y:11 P:65 SP:FB CYC: 88  C I  -V 
D537  F0 04     BEQ $D53D                       A:46 X:23 Y:11 P:67 SP:FB CYC: 94  CZI  -V 
D53D  A9 55     LDA #$55                        A:46 X:23 Y:11 P:67 SP:FB CYC:103  CZI  -V 
D53F  8D 78 06  STA $0678 = 46                  A:55 X:23 Y:11 P:65 SP:FB CYC:109  C I  -V 
D542  24 01     BIT $01 = FF                    A:55 X:23 Y:11 P:65 SP:FB CYC:121  C I  -V 
D544  A9 11     LDA #$11                        A:55 X:23 Y:11 P:E5 SP:FB CYC:130  C I  -VN
D546  A2 23     LDX #$23                        A:11 X:23 Y:11 P:65 SP:FB CYC:136  C I  -V 
D548  A0 00     LDY #$00                        A:11 X:23 Y:11 P:65 SP:FB CYC:142  C I  -V 
D54A  AC 78 06  LDY $0678 = 55                  A:11 X:23 Y:00 P:67 SP:FB CYC:148  CZI  -V 
D54D  F0 10     BEQ $D55F                       A:11 X:23 Y:55 P:65 SP:FB CYC:160  C I  -V 
D54F  30 0E     BMI $D55F                       A:11 X:23 Y:55 P:65 SP:FB CYC:166  C I  -V 
D551  C0 55     CPY #$55                        A:11 X:23 Y:55 P:65 SP:FB CYC:172  C I  -V 
D553  D0 0A     BNE $D55F                       A:11 X:23 Y:55 P:67 SP:FB CYC:178  CZI  -V 
D555  C9 11     CMP #$11                        A:11 X:23 Y:55 P:67 SP:FB CYC:184  CZI  -V 
D557  D0 06     BNE $D55F                       A:11 X:23 Y:55 P:67 SP:FB CYC:190  CZI  -V 
D559  E0 23     CPX #$23                        A:11 X:23 Y:55 P:67 SP:FB CYC:196  CZI  -V 
D55B  50 02     BVC $D55F                       A:11 X:23 Y:55 P:67 SP:FB CYC:202  CZI  -V 
D55D  F0 04     BEQ $D563                       A:11 X:23 Y:55 P:67 SP:FB CYC:208  CZI  -V 
D563  A0 46     LDY #$46                        A:11 X:23 Y:55 P:67 SP:FB CYC:217  CZI  -V 
D565  24 01     BIT $01 = FF                    A:11 X:23 Y:46 P:65 SP:FB CYC:223  C I  -V 
D567  8C 78 06  STY $0678 = 55                  A:11 X:23 Y:46 P:E5 SP:FB CYC:232  C I  -VN
D56A  F0 0B     BEQ $D577                       A:11 X:23 Y:46 P:E5 SP:FB CYC:244  C I  -VN
D56C  10 09     BPL $D577                       A:11 X:23 Y:46 P:E5 SP:FB CYC:250  C I  -VN
D56E  50 07     BVC $D577                       A:11 X:23 Y:46 P:E5 SP:FB CYC:256  C I  -VN
D570  AC 78 06  LDY $0678 = 46                  A:11 X:23 Y:46 P:E5 SP:FB CYC:262  C I  -VN
D573  C0 46     CPY #$46                        A:11 X:23 Y:46 P:65 SP:FB CYC:274  C I  -V 
D575  F0 04     BEQ $D57B                       A:11 X:23 Y:46 P:67 SP:FB CYC:280  CZI  -V 
D57B  24 01     BIT $01 = FF                    A:11 X:23 Y:46 P:67 SP:FB CYC:289  CZI  -V 
D57D  A9 55     LDA #$55                        A:11 X:23 Y:46 P:E5 SP:FB CYC:298  C I  -VN
D57F  8D 78 06  STA $0678 = 46                  A:55 X:23 Y:46 P:65 SP:FB CYC:304  C I  -V 
D582  A0 11     LDY #$11                        A:55 X:23 Y:46 P:65 SP:FB CYC:316  C I  -V 
D584  A9 23     LDA #$23                        A:55 X:23 Y:11 P:65 SP:FB CYC:322  C I  -V 
D586  A2 00     LDX #$00                        A:23 X:23 Y:11 P:65 SP:FB CYC:328  C I  -V 
D588  AE 78 06  LDX $0678 = 55                  A:23 X:00 Y:11 P:67 SP:FB CYC:334  CZI  -V 
D58B  F0 10     BEQ $D59D                       A:23 X:55 Y:11 P:65 SP:FB CYC:  5  C I  -V 
D58D  30 0E     BMI $D59D                       A:23 X:55 Y:11 P:65 SP:FB CYC: 11  C I  -V 
D58F  E0 55     CPX #$55                        A:23 X:55 Y:11 P:65 SP:FB CYC: 17  C I  -V 
D591  D0 0A     BNE $D59D                       A:23 X:55 Y:11 P:67 SP:FB CYC: 23  CZI  -V 
D593  C0 11     CPY #$11                        A:23 X:55 Y:11 P:67 SP:FB CYC: 29  CZI  -V 
D595  D0 06     BNE $D59D                       A:23 X:55 Y:11 P:67 SP:FB CYC: 35  CZI  -V 
D597  C9 23     CMP #$23                        A:23 X:55 Y:11 P:67 SP:FB CYC: 41  CZI  -V 
D599  50 02     BVC $D59D                       A:23 X:55 Y:11 P:67 SP:FB CYC: 47  CZI  -V 
D59B  F0 04     BEQ $D5A1                       A:23 X:55 Y:11 P:67 SP:FB CYC: 53  CZI  -V 
D5A1  A2 46     LDX #$46                        A:23 X:55 Y:11 P:67 SP:FB CYC: 62  CZI  -V 
D5A3  24 01     BIT $01 = FF                    A:23 X:46 Y:11 P:65 SP:FB CYC: 68  C I  -V 
D5A5  8E 78 06  STX $0678 = 55                  A:23 X:46 Y:11 P:E5 SP:FB CYC: 77  C I  -VN
D5A8  F0 0B     BEQ $D5B5                       A:23 X:46 Y:11 P:E5 SP:FB CYC: 89  C I  -VN
D5AA  10 09     BPL $D5B5                       A:23 X:46 Y:11 P:E5 SP:FB CYC: 95  C I  -VN
D5AC  50 07     BVC $D5B5                       A:23 X:46 Y:11 P:E5 SP:FB CYC:101  C I  -VN
D5AE  AE 78 06  LDX $0678 = 46                  A:23 X:46 Y:11 P:E5 SP:FB CYC:107  C I  -VN
D5B1  E0 46     CPX #$46                        A:23 X:46 Y:11 P:65 SP:FB CYC:119  C I  -V 
D5B3  F0 04     BEQ $D5B9                       A:23 X:46 Y:11 P:67 SP:FB CYC:125  CZI  -V 
D5B9  A9 C0     LDA #$C0                        A:23 X:46 Y:11 P:67 SP:FB CYC:134  CZI  -V 
D5BB  8D 78 06  STA $0678 = 46                  A:C0 X:46 Y:11 P:E5 SP:FB CYC:140  C I  -VN
D5BE  A2 33     LDX #$33                        A:C0 X:46 Y:11 P:E5 SP:FB CYC:152  C I  -VN
D5C0  A0 88     LDY #$88                        A:C0 X:33 Y:11 P:65 SP:FB CYC:158  C I  -V 
D5C2  A9 05     LDA #$05                        A:C0 X:33 Y:88 P:E5 SP:FB CYC:164  C I  -VN
D5C4  2C 78 06  BIT $0678 = C0                  A:05 X:33 Y:88 P:65 SP:FB CYC:170  C I  -V 
D5C7  10 10     BPL $D5D9                       A:05 X:33 Y:88 P:E7 SP:FB CYC:182  CZI  -VN
D5C9  50 0E     BVC $D5D9                       A:05 X:33 Y:88 P:E7 SP:FB CYC:188  CZI  -VN
D5CB  D0 0C     BNE $D5D9                       A:05 X:33 Y:88 P:E7 SP:FB CYC:194  CZI  -VN
D5CD  C9 05     CMP #$05                        A:05 X:33 Y:88 P:E7 SP:FB CYC:200  CZI  -VN
D5CF  D0 08     BNE $D5D9                       A:05 X:33 Y:88 P:67 SP:FB CYC:206  CZI  -V 
D5D1  E0 33     CPX #$33                        A:05 X:33 Y:88 P:67 SP:FB CYC:212  CZI  -V 
D5D3  D0 04     BNE $D5D9                       A:05 X:33 Y:88 P:67 SP:FB CYC:218  CZI  -V 
D5D5  C0 88     CPY #$88                        A:05 X:33 Y:88 P:67 SP:FB CYC:224  CZI  -V 
D5D7  F0 04     BEQ $D5DD                       A:05 X:33 Y:88 P:67 SP:FB CYC:230  CZI  -V 
D5DD  A9 03     LDA #$03                        A:05 X:33 Y:88 P:67 SP:FB CYC:239  CZI  -V 
D5DF  8D 78 06  STA $0678 = C0                  A:03 X:33 Y:88 P:65 SP:FB CYC:245  C I  -V 
D5E2  A9 01     LDA #$01                        A:03 X:33 Y:88 P:65 SP:FB CYC:257  C I  -V 
D5E4  2C 78 06  BIT $0678 = 03                  A:01 X:33 Y:88 P:65 SP:FB CYC:263  C I  -V 
D5E7  30 08     BMI $D5F1                       A:01 X:33 Y:88 P:25 SP:FB CYC:275  C I  -  
D5E9  70 06     BVS $D5F1                       A:01 X:33 Y:88 P:25 SP:FB CYC:281  C I  -  
D5EB  F0 04     BEQ $D5F1                       A:01 X:33 Y:88 P:25 SP:FB CYC:287  C I  -  
D5ED  C9 01     CMP #$01                        A:01 X:33 Y:88 P:25 SP:FB CYC:293  C I  -  
D5EF  F0 04     BEQ $D5F5                       A:01 X:33 Y:88 P:27 SP:FB CYC:299  CZI  -  
D5F5  A0 B8     LDY #$B8                        A:01 X:33 Y:88 P:27 SP:FB CYC:308  CZI  -  
D5F7  A9 AA     LDA #$AA                        A:01 X:33 Y:B8 P:A5 SP:FB CYC:314  C I  - N
D5F9  8D 78 06  STA $0678 = 03                  A:AA X:33 Y:B8 P:A5 SP:FB CYC:320  C I  - N
D5FC  20 B6 F7  JSR $F7B6                       A:AA X:33 Y:B8 P:A5 SP:FB CYC:332  C I  - N
F7B6  18        CLC                             A:AA X:33 Y:B8 P:A5 SP:F9 CYC:  9  C I  - N
F7B7  A9 FF     LDA #$FF                        A:AA X:33 Y:B8 P:A4 SP:F9 CYC: 15    I  - N
F7B9  85 01     STA $01 = FF                    A:FF X:33 Y:B8 P:A4 SP:F9 CYC: 21    I  - N
F7BB  24 01     BIT $01 = FF                    A:FF X:33 Y:B8 P:A4 SP:F9 CYC: 30    I  - N
F7BD  A9 55     LDA #$55                        A:FF X:33 Y:B8 P:E4 SP:F9 CYC: 39    I  -VN
F7BF  60        RTS                             A:55 X:33 Y:B8 P:64 SP:F9 CYC: 45    I  -V 
D5FF  0D 78 06  ORA $0678 = AA                  A:55 X:33 Y:B8 P:64 SP:FB CYC: 63    I  -V 
D602  20 C0 F7  JSR $F7C0                       A:FF X:33 Y:B8 P:E4 SP:FB CYC: 75    I  -VN
F7C0  B0 09     BCS $F7CB                       A:FF X:33 Y:B8 P:E4 SP:F9 CYC: 93    I  -VN
F7C2  10 07     BPL $F7CB                       A:FF X:33 Y:B8 P:E4 SP:F9 CYC: 99    I  -VN
F7C4  C9 FF     CMP #$FF                        A:FF X:33 Y:B8 P:E4 SP:F9 CYC:105    I  -VN
F7C6  D0 03     BNE $F7CB                       A:FF X:33 Y:B8 P:67 SP:F9 CYC:111  CZI  -V 
F7C8  50 01     BVC $F7CB                       A:FF X:33 Y:B8 P:67 SP:F9 CYC:117  CZI  -V 
F7CA  60        RTS                             A:FF X:33 Y:B8 P:67 SP:F9 CYC:123  CZI  -V 
D605  C8        INY                             A:FF X:33 Y:B8 P:67 SP:FB CYC:141  CZI  -V 
D606  A9 00     LDA #$00                        A:FF X:33 Y:B9 P:E5 SP:FB CYC:147  C I  -VN
D608  8D 78 06  STA $0678 = AA                  A:00 X:33 Y:B9 P:67 SP:FB CYC:153  CZI  -V 
D60B  20 CE F7  JSR $F7CE                       A:00 X:33 Y:B9 P:67 SP:FB CYC:165  CZI  -V 
F7CE  38        SEC                             A:00 X:33 Y:B9 P:67 SP:F9 CYC:183  CZI  -V 
F7CF  B8        CLV                             A:00 X:33 Y:B9 P:67 SP:F9 CYC:189  CZI  -V 
F7D0  A9 00     LDA #$00                        A:00 X:33 Y:B9 P:27 SP:F9 CYC:195  CZI  -  
F7D2  60        RTS                             A:00 X:33 Y:B9 P:27 SP:F9 CYC:201  CZI  -  
D60E  0D 78 06  ORA $0678 = 00                  A:00 X:33 Y:B9 P:27 SP:FB CYC:219  CZI  -  
D611  20 D3 F7  JSR $F7D3                       A:00 X:33 Y:B9 P:27 SP:FB CYC:231  CZI  -  
F7D3  D0 07     BNE $F7DC                       A:00 X:33 Y:B9 P:27 SP:F9 CYC:249  CZI  -  
F7D5  70 05     BVS $F7DC                       A:00 X:33 Y:B9 P:27 SP:F9 CYC:255  CZI  -  
F7D7  90 03     BCC $F7DC                       A:00 X:33 Y:B9 P:27 SP:F9 CYC:261  CZI  -  
F7D9  30 01     BMI $F7DC                       A:00 X:33 Y:B9 P:27 SP:F9 CYC:267  CZI  -  
F7DB  60        RTS                             A:00 X:33 Y:B9 P:27 SP:F9 CYC:273  CZI  -  
D614  C8        INY                             A:00 X:33 Y:B9 P:27 SP:FB CYC:291  CZI  -  
D615  A9 AA     LDA #$AA                        A:00 X:33 Y:BA P:A5 SP:FB CYC:297  C I  - N
D617  8D 78 06  STA $0678 = 00                  A:AA X:33 Y:BA P:A5 SP:FB CYC:303  C I  - N
D61A  20 DF F7  JSR $F7DF                       A:AA X:33 Y:BA P:A5 SP:FB CYC:315  C I  - N
F7DF  18        CLC                             A:AA X:33 Y:BA P:A5 SP:F9 CYC:333  C I  - N
F7E0  24 01     BIT $01 = FF                    A:AA X:33 Y:BA P:A4 SP:F9 CYC:339    I  - N
F7E2  A9 55     LDA #$55                        A:AA X:33 Y:BA P:E4 SP:F9 CYC:  7    I  -VN
F7E4  60        RTS                             A:55 X:33 Y:BA P:64 SP:F9 CYC: 13    I  -V 
D61D  2D 78 06  AND $0678 = AA                  A:55 X:33 Y:BA P:64 SP:FB CYC: 31    I  -V 
D620  20 E5 F7  JSR $F7E5                       A:00 X:33 Y:BA P:66 SP:FB CYC: 43   ZI  -V 
F7E5  D0 07     BNE $F7EE                       A:00 X:33 Y:BA P:66 SP:F9 CYC: 61   ZI  -V 
F7E7  50 05     BVC $F7EE                       A:00 X:33 Y:BA P:66 SP:F9 CYC: 67   ZI  -V 
F7E9  B0 03     BCS $F7EE                       A:00 X:33 Y:BA P:66 SP:F9 CYC: 73   ZI  -V 
F7EB  30 01     BMI $F7EE                       A:00 X:33 Y:BA P:66 SP:F9 CYC: 79   ZI  -V 
F7ED  60        RTS                             A:00 X:33 Y:BA P:66 SP:F9 CYC: 85   ZI  -V 
D623  C8        INY                             A:00 X:33 Y:BA P:66 SP:FB CYC:103   ZI  -V 
D624  A9 EF     LDA #$EF                        A:00 X:33 Y:BB P:E4 SP:FB CYC:109    I  -VN
D626  8D 78 06  STA $0678 = AA                  A:EF X:33 Y:BB P:E4 SP:FB CYC:115    I  -VN
D629  20 F1 F7  JSR $F7F1                       A:EF X:33 Y:BB P:E4 SP:FB CYC:127    I  -VN
F7F1  38        SEC                             A:EF X:33 Y:BB P:E4 SP:F9 CYC:145    I  -VN
F7F2  B8        CLV                             A:EF X:33 Y:BB P:E5 SP:F9 CYC:151  C I  -VN
F7F3  A9 F8     LDA #$F8                        A:EF X:33 Y:BB P:A5 SP:F9 CYC:157  C I  - N
F7F5  60        RTS                             A:F8 X:33 Y:BB P:A5 SP:F9 CYC:163  C I  - N
D62C  2D 78 06  AND $0678 = EF                  A:F8 X:33 Y:BB P:A5 SP:FB CYC:181  C I  - N
D62F  20 F6 F7  JSR $F7F6                       A:E8 X:33 Y:BB P:A5 SP:FB CYC:193  C I  - N
F7F6  90 09     BCC $F801                       A:E8 X:33 Y:BB P:A5 SP:F9 CYC:211  C I  - N
F7F8  10 07     BPL $F801                       A:E8 X:33 Y:BB P:A5 SP:F9 CYC:217  C I  - N
F7FA  C9 E8     CMP #$E8                        A:E8 X:33 Y:BB P:A5 SP:F9 CYC:223  C I  - N
F7FC  D0 03     BNE $F801                       A:E8 X:33 Y:BB P:27 SP:F9 CYC:229  CZI  -  
F7FE  70 01     BVS $F801                       A:E8 X:33 Y:BB P:27 SP:F9 CYC:235  CZI  -  
F800  60        RTS                             A:E8 X:33 Y:BB P:27 SP:F9 CYC:241  CZI  -  
D632  C8        INY                             A:E8 X:33 Y:BB P:27 SP:FB CYC:259  CZI  -  
D633  A9 AA     LDA #$AA                        A:E8 X:33 Y:BC P:A5 SP:FB CYC:265  C I  - N
D635  8D 78 06  STA $0678 = EF                  A:AA X:33 Y:BC P:A5 SP:FB CYC:271  C I  - N
D638  20 04 F8  JSR $F804                       A:AA X:33 Y:BC P:A5 SP:FB CYC:283  C I  - N
F804  18        CLC                             A:AA X:33 Y:BC P:A5 SP:F9 CYC:301  C I  - N
F805  24 01     BIT $01 = FF                    A:AA X:33 Y:BC P:A4 SP:F9 CYC:307    I  - N
F807  A9 5F     LDA #$5F                        A:AA X:33 Y:BC P:E4 SP:F9 CYC:316    I  -VN
F809  60        RTS                             A:5F X:33 Y:BC P:64 SP:F9 CYC:322    I  -V 
D63B  4D 78 06  EOR $0678 = AA                  A:5F X:33 Y:BC P:64 SP:FB CYC:340    I  -V 
D63E  20 0A F8  JSR $F80A                       A:F5 X:33 Y:BC P:E4 SP:FB CYC: 11    I  -VN
F80A  B0 09     BCS $F815                       A:F5 X:33 Y:BC P:E4 SP:F9 CYC: 29    I  -VN
F80C  10 07     BPL $F815                       A:F5 X:33 Y:BC P:E4 SP:F9 CYC: 35    I  -VN
F80E  C9 F5     CMP #$F5                        A:F5 X:33 Y:BC P:E4 SP:F9 CYC: 41    I  -VN
F810  D0 03     BNE $F815                       A:F5 X:33 Y:BC P:67 SP:F9 CYC: 47  CZI  -V 
F812  50 01     BVC $F815                       A:F5 X:33 Y:BC P:67 SP:F9 CYC: 53  CZI  -V 
F814  60        RTS                             A:F5 X:33 Y:BC P:67 SP:F9 CYC: 59  CZI  -V 
D641  C8        INY                             A:F5 X:33 Y:BC P:67 SP:FB CYC: 77  CZI  -V 
D642  A9 70     LDA #$70                        A:F5 X:33 Y:BD P:E5 SP:FB CYC: 83  C I  -VN
D644  8D 78 06  STA $0678 = AA                  A:70 X:33 Y:BD P:65 SP:FB CYC: 89  C I  -V 
D647  20 18 F8  JSR $F818                       A:70 X:33 Y:BD P:65 SP:FB CYC:101  C I  -V 
F818  38        SEC                             A:70 X:33 Y:BD P:65 SP:F9 CYC:119  C I  -V 
F819  B8        CLV                             A:70 X:33 Y:BD P:65 SP:F9 CYC:125  C I  -V 
F81A  A9 70     LDA #$70                        A:70 X:33 Y:BD P:25 SP:F9 CYC:131  C I  -  
F81C  60        RTS                             A:70 X:33 Y:BD P:25 SP:F9 CYC:137  C I  -  
D64A  4D 78 06  EOR $0678 = 70                  A:70 X:33 Y:BD P:25 SP:FB CYC:155  C I  -  
D64D  20 1D F8  JSR $F81D                       A:00 X:33 Y:BD P:27 SP:FB CYC:167  CZI  -  
F81D  D0 07     BNE $F826                       A:00 X:33 Y:BD P:27 SP:F9 CYC:185  CZI  -  
F81F  70 05     BVS $F826                       A:00 X:33 Y:BD P:27 SP:F9 CYC:191  CZI  -  
F821  90 03     BCC $F826                       A:00 X:33 Y:BD P:27 SP:F9 CYC:197  CZI  -  
F823  30 01     BMI $F826                       A:00 X:33 Y:BD P:27 SP:F9 CYC:203  CZI  -  
F825  60        RTS                             A:00 X:33 Y:BD P:27 SP:F9 CYC:209  CZI  -  
D650  C8        INY                             A:00 X:33 Y:BD P:27 SP:FB CYC:227  CZI  -  
D651  A9 69     LDA #$69                        A:00 X:33 Y:BE P:A5 SP:FB CYC:233  C I  - N
D653  8D 78 06  STA $0678 = 70                  A:69 X:33 Y:BE P:25 SP:FB CYC:239  C I  -  
D656  20 29 F8  JSR $F829                       A:69 X:33 Y:BE P:25 SP:FB CYC:251  C I  -  
F829  18        CLC                             A:69 X:33 Y:BE P:25 SP:F9 CYC:269  C I  -  
F82A  24 01     BIT $01 = FF                    A:69 X:33 Y:BE P:24 SP:F9 CYC:275    I  -  
F82C  A9 00     LDA #$00                        A:69 X:33 Y:BE P:E4 SP:F9 CYC:284    I  -VN
F82E  60        RTS                             A:00 X:33 Y:BE P:66 SP:F9 CYC:290   ZI  -V 
D659  6D 78 06  ADC $0678 = 69                  A:00 X:33 Y:BE P:66 SP:FB CYC:308   ZI  -V 
D65C  20 2F F8  JSR $F82F                       A:69 X:33 Y:BE P:24 SP:FB CYC:320    I  -  
F82F  30 09     BMI $F83A                       A:69 X:33 Y:BE P:24 SP:F9 CYC:338    I  -  
F831  B0 07     BCS $F83A                       A:69 X:33 Y:BE P:24 SP:F9 CYC:  3    I  -  
F833  C9 69     CMP #$69                        A:69 X:33 Y:BE P:24 SP:F9 CYC:  9    I  -  
F835  D0 03     BNE $F83A                       A:69 X:33 Y:BE P:27 SP:F9 CYC: 15  CZI  -  
F837  70 01     BVS $F83A                       A:69 X:33 Y:BE P:27 SP:F9 CYC: 21  CZI  -  
F839  60        RTS                             A:69 X:33 Y:BE P:27 SP:F9 CYC: 27  CZI  -  
D65F  C8        INY                             A:69 X:33 Y:BE P:27 SP:FB CYC: 45  CZI  -  
D660  20 3D F8  JSR $F83D                       A:69 X:33 Y:BF P:A5 SP:FB CYC: 51  C I  - N
F83D  38        SEC                             A:69 X:33 Y:BF P:A5 SP:F9 CYC: 69  C I  - N
F83E  24 01     BIT $01 = FF                    A:69 X:33 Y:BF P:A5 SP:F9 CYC: 75  C I  - N
F840  A9 00     LDA #$00                        A:69 X:33 Y:BF P:E5 SP:F9 CYC: 84  C I  -VN
F842  60        RTS                             A:00 X:33 Y:BF P:67 SP:F9 CYC: 90  CZI  -V 
D663  6D 78 06  ADC $0678 = 69                  A:00 X:33 Y:BF P:67 SP:FB CYC:108  CZI  -V 
D666  20 43 F8  JSR $F843                       A:6A X:33 Y:BF P:24 SP:FB CYC:120    I  -  
F843  30 09     BMI $F84E                       A:6A X:33 Y:BF P:24 SP:F9 CYC:138    I  -  
F845  B0 07     BCS $F84E                       A:6A X:33 Y:BF P:24 SP:F9 CYC:144    I  -  
F847  C9 6A     CMP #$6A                        A:6A X:33 Y:BF P:24 SP:F9 CYC:150    I  -  
F849  D0 03     BNE $F84E                       A:6A X:33 Y:BF P:27 SP:F9 CYC:156  CZI  -  
F84B  70 01     BVS $F84E                       A:6A X:33 Y:BF P:27 SP:F9 CYC:162  CZI  -  
F84D  60        RTS                             A:6A X:33 Y:BF P:27 SP:F9 CYC:168  CZI  -  
D669  C8        INY                             A:6A X:33 Y:BF P:27 SP:FB CYC:186  CZI  -  
D66A  A9 7F     LDA #$7F                        A:6A X:33 Y:C0 P:A5 SP:FB CYC:192  C I  - N
D66C  8D 78 06  STA $0678 = 69                  A:7F X:33 Y:C0 P:25 SP:FB CYC:198  C I  -  
D66F  20 51 F8  JSR $F851                       A:7F X:33 Y:C0 P:25 SP:FB CYC:210  C I  -  
F851  38        SEC                             A:7F X:33 Y:C0 P:25 SP:F9 CYC:228  C I  -  
F852  B8        CLV                             A:7F X:33 Y:C0 P:25 SP:F9 CYC:234  C I  -  
F853  A9 7F     LDA #$7F                        A:7F X:33 Y:C0 P:25 SP:F9 CYC:240  C I  -  
F855  60        RTS                             A:7F X:33 Y:C0 P:25 SP:F9 CYC:246  C I  -  
D672  6D 78 06  ADC $0678 = 7F                  A:7F X:33 Y:C0 P:25 SP:FB CYC:264  C I  -  
D675  20 56 F8  JSR $F856                       A:FF X:33 Y:C0 P:E4 SP:FB CYC:276    I  -VN
F856  10 09     BPL $F861                       A:FF X:33 Y:C0 P:E4 SP:F9 CYC:294    I  -VN
F858  B0 07     BCS $F861                       A:FF X:33 Y:C0 P:E4 SP:F9 CYC:300    I  -VN
F85A  C9 FF     CMP #$FF                        A:FF X:33 Y:C0 P:E4 SP:F9 CYC:306    I  -VN
F85C  D0 03     BNE $F861                       A:FF X:33 Y:C0 P:67 SP:F9 CYC:312  CZI  -V 
F85E  50 01     BVC $F861                       A:FF X:33 Y:C0 P:67 SP:F9 CYC:318  CZI  -V 
F860  60        RTS                             A:FF X:33 Y:C0 P:67 SP:F9 CYC:324  CZI  -V 
D678  C8        INY                             A:FF X:33 Y:C0 P:67 SP:FB CYC:  1  CZI  -V 
D679  A9 80     LDA #$80                        A:FF X:33 Y:C1 P:E5 SP:FB CYC:  7  C I  -VN
D67B  8D 78 06  STA $0678 = 7F                  A:80 X:33 Y:C1 P:E5 SP:FB CYC: 13  C I  -VN
D67E  20 64 F8  JSR $F864                       A:80 X:33 Y:C1 P:E5 SP:FB CYC: 25  C I  -VN
F864  18        CLC                             A:80 X:33 Y:C1 P:E5 SP:F9 CYC: 43  C I  -VN
F865  24 01     BIT $01 = FF                    A:80 X:33 Y:C1 P:E4 SP:F9 CYC: 49    I  -VN
F867  A9 7F     LDA #$7F                        A:80 X:33 Y:C1 P:E4 SP:F9 CYC: 58    I  -VN
F869  60        RTS                             A:7F X:33 Y:C1 P:64 SP:F9 CYC: 64    I  -V 
D681  6D 78 06  ADC $0678 = 80                  A:7F X:33 Y:C1 P:64 SP:FB CYC: 82    I  -V 
D684  20 6A F8  JSR $F86A                       A:FF X:33 Y:C1 P:A4 SP:FB CYC: 94    I  - N
F86A  10 09     BPL $F875                       A:FF X:33 Y:C1 P:A4 SP:F9 CYC:112    I  - N
F86C  B0 07     BCS $F875                       A:FF X:33 Y:C1 P:A4 SP:F9 CYC:118    I  - N
F86E  C9 FF     CMP #$FF                        A:FF X:33 Y:C1 P:A4 SP:F9 CYC:124    I  - N
F870  D0 03     BNE $F875                       A:FF X:33 Y:C1 P:27 SP:F9 CYC:130  CZI  -  
F872  70 01     BVS $F875                       A:FF X:33 Y:C1 P:27 SP:F9 CYC:136  CZI  -  
F874  60        RTS                             A:FF X:33 Y:C1 P:27 SP:F9 CYC:142  CZI  -  
D687  C8        INY                             A:FF X:33 Y:C1 P:27 SP:FB CYC:160  CZI  -  
D688  20 78 F8  JSR $F878                       A:FF X:33 Y:C2 P:A5 SP:FB CYC:166  C I  - N
F878  38        SEC                             A:FF X:33 Y:C2 P:A5 SP:F9 CYC:184  C I  - N
F879  B8        CLV                             A:FF X:33 Y:C2 P:A5 SP:F9 CYC:190  C I  - N
F87A  A9 7F     LDA #$7F                        A:FF X:33 Y:C2 P:A5 SP:F9 CYC:196  C I  - N
F87C  60        RTS                             A:7F X:33 Y:C2 P:25 SP:F9 CYC:202  C I  -  
D68B  6D 78 06  ADC $0678 = 80                  A:7F X:33 Y:C2 P:25 SP:FB CYC:220  C I  -  
D68E  20 7D F8  JSR $F87D                       A:00 X:33 Y:C2 P:27 SP:FB CYC:232  CZI  -  
F87D  D0 07     BNE $F886                       A:00 X:33 Y:C2 P:27 SP:F9 CYC:250  CZI  -  
F87F  30 05     BMI $F886                       A:00 X:33 Y:C2 P:27 SP:F9 CYC:256  CZI  -  
F881  70 03     BVS $F886                       A:00 X:33 Y:C2 P:27 SP:F9 CYC:262  CZI  -  
F883  90 01     BCC $F886                       A:00 X:33 Y:C2 P:27 SP:F9 CYC:268  CZI  -  
F885  60        RTS                             A:00 X:33 Y:C2 P:27 SP:F9 CYC:274  CZI  -  
D691  C8        INY                             A:00 X:33 Y:C2 P:27 SP:FB CYC:292  CZI  -  
D692  A9 40     LDA #$40                        A:00 X:33 Y:C3 P:A5 SP:FB CYC:298  C I  - N
D694  8D 78 06  STA $0678 = 80                  A:40 X:33 Y:C3 P:25 SP:FB CYC:304  C I  -  
D697  20 89 F8  JSR $F889                       A:40 X:33 Y:C3 P:25 SP:FB CYC:316  C I  -  
F889  24 01     BIT $01 = FF                    A:40 X:33 Y:C3 P:25 SP:F9 CYC:334  C I  -  
F88B  A9 40     LDA #$40                        A:40 X:33 Y:C3 P:E5 SP:F9 CYC:  2  C I  -VN
F88D  60        RTS                             A:40 X:33 Y:C3 P:65 SP:F9 CYC:  8  C I  -V 
D69A  CD 78 06  CMP $0678 = 40                  A:40 X:33 Y:C3 P:65 SP:FB CYC: 26  C I  -V 
D69D  20 8E F8  JSR $F88E                       A:40 X:33 Y:C3 P:67 SP:FB CYC: 38  CZI  -V 
F88E  30 07     BMI $F897                       A:40 X:33 Y:C3 P:67 SP:F9 CYC: 56  CZI  -V 
F890  90 05     BCC $F897                       A:40 X:33 Y:C3 P:67 SP:F9 CYC: 62  CZI  -V 
F892  D0 03     BNE $F897                       A:40 X:33 Y:C3 P:67 SP:F9 CYC: 68  CZI  -V 
F894  50 01     BVC $F897                       A:40 X:33 Y:C3 P:67 SP:F9 CYC: 74  CZI  -V 
F896  60        RTS                             A:40 X:33 Y:C3 P:67 SP:F9 CYC: 80  CZI  -V 
D6A0  C8        INY                             A:40 X:33 Y:C3 P:67 SP:FB CYC: 98  CZI  -V 
D6A1  48        PHA                             A:40 X:33 Y:C4 P:E5 SP:FB CYC:104  C I  -VN
D6A2  A9 3F     LDA #$3F                        A:40 X:33 Y:C4 P:E5 SP:FA CYC:113  C I  -VN
D6A4  8D 78 06  STA $0678 = 40                  A:3F X:33 Y:C4 P:65 SP:FA CYC:119  C I  -V 
D6A7  68        PLA                             A:3F X:33 Y:C4 P:65 SP:FA CYC:131  C I  -V 
D6A8  20 9A F8  JSR $F89A                       A:40 X:33 Y:C4 P:65 SP:FB CYC:143  C I  -V 
F89A  B8        CLV                             A:40 X:33 Y:C4 P:65 SP:F9 CYC:161  C I  -V 
F89B  60        RTS                             A:40 X:33 Y:C4 P:25 SP:F9 CYC:167  C I  -  
D6AB  CD 78 06  CMP $0678 = 3F                  A:40 X:33 Y:C4 P:25 SP:FB CYC:185  C I  -  
D6AE  20 9C F8  JSR $F89C                       A:40 X:33 Y:C4 P:25 SP:FB CYC:197  C I  -  
F89C  F0 07     BEQ $F8A5                       A:40 X:33 Y:C4 P:25 SP:F9 CYC:215  C I  -  
F89E  30 05     BMI $F8A5                       A:40 X:33 Y:C4 P:25 SP:F9 CYC:221  C I  -  
F8A0  90 03     BCC $F8A5                       A:40 X:33 Y:C4 P:25 SP:F9 CYC:227  C I  -  
F8A2  70 01     BVS $F8A5                       A:40 X:33 Y:C4 P:25 SP:F9 CYC:233  C I  -  
F8A4  60        RTS                             A:40 X:33 Y:C4 P:25 SP:F9 CYC:239  C I  -  
D6B1  C8        INY                             A:40 X:33 Y:C4 P:25 SP:FB CYC:257  C I  -  
D6B2  48        PHA                             A:40 X:33 Y:C5 P:A5 SP:FB CYC:263  C I  - N
D6B3  A9 41     LDA #$41                        A:40 X:33 Y:C5 P:A5 SP:FA CYC:272  C I  - N
D6B5  8D 78 06  STA $0678 = 3F                  A:41 X:33 Y:C5 P:25 SP:FA CYC:278  C I  -  
D6B8  68        PLA                             A:41 X:33 Y:C5 P:25 SP:FA CYC:290  C I  -  
D6B9  CD 78 06  CMP $0678 = 41                  A:40 X:33 Y:C5 P:25 SP:FB CYC:302  C I  -  
D6BC  20 A8 F8  JSR $F8A8                       A:40 X:33 Y:C5 P:A4 SP:FB CYC:314    I  - N
F8A8  F0 05     BEQ $F8AF                       A:40 X:33 Y:C5 P:A4 SP:F9 CYC:332    I  - N
F8AA  10 03     BPL $F8AF                       A:40 X:33 Y:C5 P:A4 SP:F9 CYC:338    I  - N
F8AC  10 01     BPL $F8AF                       A:40 X:33 Y:C5 P:A4 SP:F9 CYC:  3    I  - N
F8AE  60        RTS                             A:40 X:33 Y:C5 P:A4 SP:F9 CYC:  9    I  - N
D6BF  C8        INY                             A:40 X:33 Y:C5 P:A4 SP:FB CYC: 27    I  - N
D6C0  48        PHA                             A:40 X:33 Y:C6 P:A4 SP:FB CYC: 33    I  - N
D6C1  A9 00     LDA #$00                        A:40 X:33 Y:C6 P:A4 SP:FA CYC: 42    I  - N
D6C3  8D 78 06  STA $0678 = 41                  A:00 X:33 Y:C6 P:26 SP:FA CYC: 48   ZI  -  
D6C6  68        PLA                             A:00 X:33 Y:C6 P:26 SP:FA CYC: 60   ZI  -  
D6C7  20 B2 F8  JSR $F8B2                       A:40 X:33 Y:C6 P:24 SP:FB CYC: 72    I  -  
F8B2  A9 80     LDA #$80                        A:40 X:33 Y:C6 P:24 SP:F9 CYC: 90    I  -  
F8B4  60        RTS                             A:80 X:33 Y:C6 P:A4 SP:F9 CYC: 96    I  - N
D6CA  CD 78 06  CMP $0678 = 00                  A:80 X:33 Y:C6 P:A4 SP:FB CYC:114    I  - N
D6CD  20 B5 F8  JSR $F8B5                       A:80 X:33 Y:C6 P:A5 SP:FB CYC:126  C I  - N
F8B5  F0 05     BEQ $F8BC                       A:80 X:33 Y:C6 P:A5 SP:F9 CYC:144  C I  - N
F8B7  10 03     BPL $F8BC                       A:80 X:33 Y:C6 P:A5 SP:F9 CYC:150  C I  - N
F8B9  90 01     BCC $F8BC                       A:80 X:33 Y:C6 P:A5 SP:F9 CYC:156  C I  - N
F8BB  60        RTS                             A:80 X:33 Y:C6 P:A5 SP:F9 CYC:162  C I  - N
D6D0  C8        INY                             A:80 X:33 Y:C6 P:A5 SP:FB CYC:180  C I  - N
D6D1  48        PHA                             A:80 X:33 Y:C7 P:A5 SP:FB CYC:186  C I  - N
D6D2  A9 80     LDA #$80                        A:80 X:33 Y:C7 P:A5 SP:FA CYC:195  C I  - N
D6D4  8D 78 06  STA $0678 = 00                  A:80 X:33 Y:C7 P:A5 SP:FA CYC:201  C I  - N
D6D7  68        PLA                             A:80 X:33 Y:C7 P:A5 SP:FA CYC:213  C I  - N
D6D8  CD 78 06  CMP $0678 = 80                  A:80 X:33 Y:C7 P:A5 SP:FB CYC:225  C I  - N
D6DB  20 BF F8  JSR $F8BF                       A:80 X:33 Y:C7 P:27 SP:FB CYC:237  CZI  -  
F8BF  D0 05     BNE $F8C6                       A:80 X:33 Y:C7 P:27 SP:F9 CYC:255  CZI  -  
F8C1  30 03     BMI $F8C6                       A:80 X:33 Y:C7 P:27 SP:F9 CYC:261  CZI  -  
F8C3  90 01     BCC $F8C6                       A:80 X:33 Y:C7 P:27 SP:F9 CYC:267  CZI  -  
F8C5  60        RTS                             A:80 X:33 Y:C7 P:27 SP:F9 CYC:273  CZI  -  
D6DE  C8        INY                             A:80 X:33 Y:C7 P:27 SP:FB CYC:291  CZI  -  
D6DF  48        PHA                             A:80 X:33 Y:C8 P:A5 SP:FB CYC:297  C I  - N
D6E0  A9 81     LDA #$81                        A:80 X:33 Y:C8 P:A5 SP:FA CYC:306  C I  - N
D6E2  8D 78 06  STA $0678 = 80                  A:81 X:33 Y:C8 P:A5 SP:FA CYC:312  C I  - N
D6E5  68        PLA                             A:81 X:33 Y:C8 P:A5 SP:FA CYC:324  C I  - N
D6E6  CD 78 06  CMP $0678 = 81                  A:80 X:33 Y:C8 P:A5 SP:FB CYC:336  C I  - N
D6E9  20 C9 F8  JSR $F8C9                       A:80 X:33 Y:C8 P:A4 SP:FB CYC:  7    I  - N
F8C9  B0 05     BCS $F8D0                       A:80 X:33 Y:C8 P:A4 SP:F9 CYC: 25    I  - N
F8CB  F0 03     BEQ $F8D0                       A:80 X:33 Y:C8 P:A4 SP:F9 CYC: 31    I  - N
F8CD  10 01     BPL $F8D0                       A:80 X:33 Y:C8 P:A4 SP:F9 CYC: 37    I  - N
F8CF  60        RTS                             A:80 X:33 Y:C8 P:A4 SP:F9 CYC: 43    I  - N
D6EC  C8        INY                             A:80 X:33 Y:C8 P:A4 SP:FB CYC: 61    I  - N
D6ED  48        PHA                             A:80 X:33 Y:C9 P:A4 SP:FB CYC: 67    I  - N
D6EE  A9 7F     LDA #$7F                        A:80 X:33 Y:C9 P:A4 SP:FA CYC: 76    I  - N
D6F0  8D 78 06  STA $0678 = 81                  A:7F X:33 Y:C9 P:24 SP:FA CYC: 82    I  -  
D6F3  68        PLA                             A:7F X:33 Y:C9 P:24 SP:FA CYC: 94    I  -  
D6F4  CD 78 06  CMP $0678 = 7F                  A:80 X:33 Y:C9 P:A4 SP:FB CYC:106    I  - N
D6F7  20 D3 F8  JSR $F8D3                       A:80 X:33 Y:C9 P:25 SP:FB CYC:118  C I  -  
F8D3  90 05     BCC $F8DA                       A:80 X:33 Y:C9 P:25 SP:F9 CYC:136  C I  -  
F8D5  F0 03     BEQ $F8DA                       A:80 X:33 Y:C9 P:25 SP:F9 CYC:142  C I  -  
F8D7  30 01     BMI $F8DA                       A:80 X:33 Y:C9 P:25 SP:F9 CYC:148  C I  -  
F8D9  60        RTS                             A:80 X:33 Y:C9 P:25 SP:F9 CYC:154  C I  -  
D6FA  C8        INY                             A:80 X:33 Y:C9 P:25 SP:FB CYC:172  C I  -  
D6FB  A9 40     LDA #$40                        A:80 X:33 Y:CA P:A5 SP:FB CYC:178  C I  - N
D6FD  8D 78 06  STA $0678 = 7F                  A:40 X:33 Y:CA P:25 SP:FB CYC:184  C I  -  
D700  20 31 F9  JSR $F931                       A:40 X:33 Y:CA P:25 SP:FB CYC:196  C I  -  
F931  24 01     BIT $01 = FF                    A:40 X:33 Y:CA P:25 SP:F9 CYC:214  C I  -  
F933  A9 40     LDA #$40                        A:40 X:33 Y:CA P:E5 SP:F9 CYC:223  C I  -VN
F935  38        SEC                             A:40 X:33 Y:CA P:65 SP:F9 CYC:229  C I  -V 
F936  60        RTS                             A:40 X:33 Y:CA P:65 SP:F9 CYC:235  C I  -V 
D703  ED 78 06  SBC $0678 = 40                  A:40 X:33 Y:CA P:65 SP:FB CYC:253  C I  -V 
D706  20 37 F9  JSR $F937                       A:00 X:33 Y:CA P:27 SP:FB CYC:265  CZI  -  
F937  30 0B     BMI $F944                       A:00 X:33 Y:CA P:27 SP:F9 CYC:283  CZI  -  
F939  90 09     BCC $F944                       A:00 X:33 Y:CA P:27 SP:F9 CYC:289  CZI  -  
F93B  D0 07     BNE $F944                       A:00 X:33 Y:CA P:27 SP:F9 CYC:295  CZI  -  
F93D  70 05     BVS $F944                       A:00 X:33 Y:CA P:27 SP:F9 CYC:301  CZI  -  
F93F  C9 00     CMP #$00                        A:00 X:33 Y:CA P:27 SP:F9 CYC:307  CZI  -  
F941  D0 01     BNE $F944                       A:00 X:33 Y:CA P:27 SP:F9 CYC:313  CZI  -  
F943  60        RTS                             A:00 X:33 Y:CA P:27 SP:F9 CYC:319  CZI  -  
D709  C8        INY                             A:00 X:33 Y:CA P:27 SP:FB CYC:337  CZI  -  
D70A  A9 3F     LDA #$3F                        A:00 X:33 Y:CB P:A5 SP:FB CYC:  2  C I  - N
D70C  8D 78 06  STA $0678 = 40                  A:3F X:33 Y:CB P:25 SP:FB CYC:  8  C I  -  
D70F  20 47 F9  JSR $F947                       A:3F X:33 Y:CB P:25 SP:FB CYC: 20  C I  -  
F947  B8        CLV                             A:3F X:33 Y:CB P:25 SP:F9 CYC: 38  C I  -  
F948  38        SEC                             A:3F X:33 Y:CB P:25 SP:F9 CYC: 44  C I  -  
F949  A9 40     LDA #$40                        A:3F X:33 Y:CB P:25 SP:F9 CYC: 50  C I  -  
F94B  60        RTS                             A:40 X:33 Y:CB P:25 SP:F9 CYC: 56  C I  -  
D712  ED 78 06  SBC $0678 = 3F                  A:40 X:33 Y:CB P:25 SP:FB CYC: 74  C I  -  
D715  20 4C F9  JSR $F94C                       A:01 X:33 Y:CB P:25 SP:FB CYC: 86  C I  -  
F94C  F0 0B     BEQ $F959                       A:01 X:33 Y:CB P:25 SP:F9 CYC:104  C I  -  
F94E  30 09     BMI $F959                       A:01 X:33 Y:CB P:25 SP:F9 CYC:110  C I  -  
F950  90 07     BCC $F959                       A:01 X:33 Y:CB P:25 SP:F9 CYC:116  C I  -  
F952  70 05     BVS $F959                       A:01 X:33 Y:CB P:25 SP:F9 CYC:122  C I  -  
F954  C9 01     CMP #$01                        A:01 X:33 Y:CB P:25 SP:F9 CYC:128  C I  -  
F956  D0 01     BNE $F959                       A:01 X:33 Y:CB P:27 SP:F9 CYC:134  CZI  -  
F958  60        RTS                             A:01 X:33 Y:CB P:27 SP:F9 CYC:140  CZI  -  
D718  C8        INY                             A:01 X:33 Y:CB P:27 SP:FB CYC:158  CZI  -  
D719  A9 41     LDA #$41                        A:01 X:33 Y:CC P:A5 SP:FB CYC:164  C I  - N
D71B  8D 78 06  STA $0678 = 3F                  A:41 X:33 Y:CC P:25 SP:FB CYC:170  C I  -  
D71E  20 5C F9  JSR $F95C                       A:41 X:33 Y:CC P:25 SP:FB CYC:182  C I  -  
F95C  A9 40     LDA #$40                        A:41 X:33 Y:CC P:25 SP:F9 CYC:200  C I  -  
F95E  38        SEC                             A:40 X:33 Y:CC P:25 SP:F9 CYC:206  C I  -  
F95F  24 01     BIT $01 = FF                    A:40 X:33 Y:CC P:25 SP:F9 CYC:212  C I  -  
F961  60        RTS                             A:40 X:33 Y:CC P:E5 SP:F9 CYC:221  C I  -VN
D721  ED 78 06  SBC $0678 = 41                  A:40 X:33 Y:CC P:E5 SP:FB CYC:239  C I  -VN
D724  20 62 F9  JSR $F962                       A:FF X:33 Y:CC P:A4 SP:FB CYC:251    I  - N
F962  B0 0B     BCS $F96F                       A:FF X:33 Y:CC P:A4 SP:F9 CYC:269    I  - N
F964  F0 09     BEQ $F96F                       A:FF X:33 Y:CC P:A4 SP:F9 CYC:275    I  - N
F966  10 07     BPL $F96F                       A:FF X:33 Y:CC P:A4 SP:F9 CYC:281    I  - N
F968  70 05     BVS $F96F                       A:FF X:33 Y:CC P:A4 SP:F9 CYC:287    I  - N
F96A  C9 FF     CMP #$FF                        A:FF X:33 Y:CC P:A4 SP:F9 CYC:293    I  - N
F96C  D0 01     BNE $F96F                       A:FF X:33 Y:CC P:27 SP:F9 CYC:299  CZI  -  
F96E  60        RTS                             A:FF X:33 Y:CC P:27 SP:F9 CYC:305  CZI  -  
D727  C8        INY                             A:FF X:33 Y:CC P:27 SP:FB CYC:323  CZI  -  
D728  A9 00     LDA #$00                        A:FF X:33 Y:CD P:A5 SP:FB CYC:329  C I  - N
D72A  8D 78 06  STA $0678 = 41                  A:00 X:33 Y:CD P:27 SP:FB CYC:335  CZI  -  
D72D  20 72 F9  JSR $F972                       A:00 X:33 Y:CD P:27 SP:FB CYC:  6  CZI  -  
F972  18        CLC                             A:00 X:33 Y:CD P:27 SP:F9 CYC: 24  CZI  -  
F973  A9 80     LDA #$80                        A:00 X:33 Y:CD P:26 SP:F9 CYC: 30   ZI  -  
F975  60        RTS                             A:80 X:33 Y:CD P:A4 SP:F9 CYC: 36    I  - N
D730  ED 78 06  SBC $0678 = 00                  A:80 X:33 Y:CD P:A4 SP:FB CYC: 54    I  - N
D733  20 76 F9  JSR $F976                       A:7F X:33 Y:CD P:65 SP:FB CYC: 66  C I  -V 
F976  90 05     BCC $F97D                       A:7F X:33 Y:CD P:65 SP:F9 CYC: 84  C I  -V 
F978  C9 7F     CMP #$7F                        A:7F X:33 Y:CD P:65 SP:F9 CYC: 90  C I  -V 
F97A  D0 01     BNE $F97D                       A:7F X:33 Y:CD P:67 SP:F9 CYC: 96  CZI  -V 
F97C  60        RTS                             A:7F X:33 Y:CD P:67 SP:F9 CYC:102  CZI  -V 
D736  C8        INY                             A:7F X:33 Y:CD P:67 SP:FB CYC:120  CZI  -V 
D737  A9 7F     LDA #$7F                        A:7F X:33 Y:CE P:E5 SP:FB CYC:126  C I  -VN
D739  8D 78 06  STA $0678 = 00                  A:7F X:33 Y:CE P:65 SP:FB CYC:132  C I  -V 
D73C  20 80 F9  JSR $F980                       A:7F X:33 Y:CE P:65 SP:FB CYC:144  C I  -V 
F980  38        SEC                             A:7F X:33 Y:CE P:65 SP:F9 CYC:162  C I  -V 
F981  A9 81     LDA #$81                        A:7F X:33 Y:CE P:65 SP:F9 CYC:168  C I  -V 
F983  60        RTS                             A:81 X:33 Y:CE P:E5 SP:F9 CYC:174  C I  -VN
D73F  ED 78 06  SBC $0678 = 7F                  A:81 X:33 Y:CE P:E5 SP:FB CYC:192  C I  -VN
D742  20 84 F9  JSR $F984                       A:02 X:33 Y:CE P:65 SP:FB CYC:204  C I  -V 
F984  50 07     BVC $F98D                       A:02 X:33 Y:CE P:65 SP:F9 CYC:222  C I  -V 
F986  90 05     BCC $F98D                       A:02 X:33 Y:CE P:65 SP:F9 CYC:228  C I  -V 
F988  C9 02     CMP #$02                        A:02 X:33 Y:CE P:65 SP:F9 CYC:234  C I  -V 
F98A  D0 01     BNE $F98D                       A:02 X:33 Y:CE P:67 SP:F9 CYC:240  CZI  -V 
F98C  60        RTS                             A:02 X:33 Y:CE P:67 SP:F9 CYC:246  CZI  -V 
D745  C8        INY                             A:02 X:33 Y:CE P:67 SP:FB CYC:264  CZI  -V 
D746  A9 40     LDA #$40                        A:02 X:33 Y:CF P:E5 SP:FB CYC:270  C I  -VN
D748  8D 78 06  STA $0678 = 7F                  A:40 X:33 Y:CF P:65 SP:FB CYC:276  C I  -V 
D74B  20 89 F8  JSR $F889                       A:40 X:33 Y:CF P:65 SP:FB CYC:288  C I  -V 
F889  24 01     BIT $01 = FF                    A:40 X:33 Y:CF P:65 SP:F9 CYC:306  C I  -V 
F88B  A9 40     LDA #$40                        A:40 X:33 Y:CF P:E5 SP:F9 CYC:315  C I  -VN
F88D  60        RTS                             A:40 X:33 Y:CF P:65 SP:F9 CYC:321  C I  -V 
D74E  AA        TAX                             A:40 X:33 Y:CF P:65 SP:FB CYC:339  C I  -V 
D74F  EC 78 06  CPX $0678 = 40                  A:40 X:40 Y:CF P:65 SP:FB CYC:  4  C I  -V 
D752  20 8E F8  JSR $F88E                       A:40 X:40 Y:CF P:67 SP:FB CYC: 16  CZI  -V 
F88E  30 07     BMI $F897                       A:40 X:40 Y:CF P:67 SP:F9 CYC: 34  CZI  -V 
F890  90 05     BCC $F897                       A:40 X:40 Y:CF P:67 SP:F9 CYC: 40  CZI  -V 
F892  D0 03     BNE $F897                       A:40 X:40 Y:CF P:67 SP:F9 CYC: 46  CZI  -V 
F894  50 01     BVC $F897                       A:40 X:40 Y:CF P:67 SP:F9 CYC: 52  CZI  -V 
F896  60        RTS                             A:40 X:40 Y:CF P:67 SP:F9 CYC: 58  CZI  -V 
D755  C8        INY                             A:40 X:40 Y:CF P:67 SP:FB CYC: 76  CZI  -V 
D756  A9 3F     LDA #$3F                        A:40 X:40 Y:D0 P:E5 SP:FB CYC: 82  C I  -VN
D758  8D 78 06  STA $0678 = 40                  A:3F X:40 Y:D0 P:65 SP:FB CYC: 88  C I  -V 
D75B  20 9A F8  JSR $F89A                       A:3F X:40 Y:D0 P:65 SP:FB CYC:100  C I  -V 
F89A  B8        CLV                             A:3F X:40 Y:D0 P:65 SP:F9 CYC:118  C I  -V 
F89B  60        RTS                             A:3F X:40 Y:D0 P:25 SP:F9 CYC:124  C I  -  
D75E  EC 78 06  CPX $0678 = 3F                  A:3F X:40 Y:D0 P:25 SP:FB CYC:142  C I  -  
D761  20 9C F8  JSR $F89C                       A:3F X:40 Y:D0 P:25 SP:FB CYC:154  C I  -  
F89C  F0 07     BEQ $F8A5                       A:3F X:40 Y:D0 P:25 SP:F9 CYC:172  C I  -  
F89E  30 05     BMI $F8A5                       A:3F X:40 Y:D0 P:25 SP:F9 CYC:178  C I  -  
F8A0  90 03     BCC $F8A5                       A:3F X:40 Y:D0 P:25 SP:F9 CYC:184  C I  -  
F8A2  70 01     BVS $F8A5                       A:3F X:40 Y:D0 P:25 SP:F9 CYC:190  C I  -  
F8A4  60        RTS                             A:3F X:40 Y:D0 P:25 SP:F9 CYC:196  C I  -  
D764  C8        INY                             A:3F X:40 Y:D0 P:25 SP:FB CYC:214  C I  -  
D765  A9 41     LDA #$41                        A:3F X:40 Y:D1 P:A5 SP:FB CYC:220  C I  - N
D767  8D 78 06  STA $0678 = 3F                  A:41 X:40 Y:D1 P:25 SP:FB CYC:226  C I  -  
D76A  EC 78 06  CPX $0678 = 41                  A:41 X:40 Y:D1 P:25 SP:FB CYC:238  C I  -  
D76D  20 A8 F8  JSR $F8A8                       A:41 X:40 Y:D1 P:A4 SP:FB CYC:250    I  - N
F8A8  F0 05     BEQ $F8AF                       A:41 X:40 Y:D1 P:A4 SP:F9 CYC:268    I  - N
F8AA  10 03     BPL $F8AF                       A:41 X:40 Y:D1 P:A4 SP:F9 CYC:274    I  - N
F8AC  10 01     BPL $F8AF                       A:41 X:40 Y:D1 P:A4 SP:F9 CYC:280    I  - N
F8AE  60        RTS                             A:41 X:40 Y:D1 P:A4 SP:F9 CYC:286    I  - N
D770  C8        INY                             A:41 X:40 Y:D1 P:A4 SP:FB CYC:304    I  - N
D771  A9 00     LDA #$00                        A:41 X:40 Y:D2 P:A4 SP:FB CYC:310    I  - N
D773  8D 78 06  STA $0678 = 41                  A:00 X:40 Y:D2 P:26 SP:FB CYC:316   ZI  -  
D776  20 B2 F8  JSR $F8B2                       A:00 X:40 Y:D2 P:26 SP:FB CYC:328   ZI  -  
F8B2  A9 80     LDA #$80                        A:00 X:40 Y:D2 P:26 SP:F9 CYC:  5   ZI  -  
F8B4  60        RTS                             A:80 X:40 Y:D2 P:A4 SP:F9 CYC: 11    I  - N
D779  AA        TAX                             A:80 X:40 Y:D2 P:A4 SP:FB CYC: 29    I  - N
D77A  EC 78 06  CPX $0678 = 00                  A:80 X:80 Y:D2 P:A4 SP:FB CYC: 35    I  - N
D77D  20 B5 F8  JSR $F8B5                       A:80 X:80 Y:D2 P:A5 SP:FB CYC: 47  C I  - N
F8B5  F0 05     BEQ $F8BC                       A:80 X:80 Y:D2 P:A5 SP:F9 CYC: 65  C I  - N
F8B7  10 03     BPL $F8BC                       A:80 X:80 Y:D2 P:A5 SP:F9 CYC: 71  C I  - N
F8B9  90 01     BCC $F8BC                       A:80 X:80 Y:D2 P:A5 SP:F9 CYC: 77  C I  - N
F8BB  60        RTS                             A:80 X:80 Y:D2 P:A5 SP:F9 CYC: 83  C I  - N
D780  C8        INY                             A:80 X:80 Y:D2 P:A5 SP:FB CYC:101  C I  - N
D781  A9 80     LDA #$80                        A:80 X:80 Y:D3 P:A5 SP:FB CYC:107  C I  - N
D783  8D 78 06  STA $0678 = 00                  A:80 X:80 Y:D3 P:A5 SP:FB CYC:113  C I  - N
D786  EC 78 06  CPX $0678 = 80                  A:80 X:80 Y:D3 P:A5 SP:FB CYC:125  C I  - N
D789  20 BF F8  JSR $F8BF                       A:80 X:80 Y:D3 P:27 SP:FB CYC:137  CZI  -  
F8BF  D0 05     BNE $F8C6                       A:80 X:80 Y:D3 P:27 SP:F9 CYC:155  CZI  -  
F8C1  30 03     BMI $F8C6                       A:80 X:80 Y:D3 P:27 SP:F9 CYC:161  CZI  -  
F8C3  90 01     BCC $F8C6                       A:80 X:80 Y:D3 P:27 SP:F9 CYC:167  CZI  -  
F8C5  60        RTS                             A:80 X:80 Y:D3 P:27 SP:F9 CYC:173  CZI  -  
D78C  C8        INY                             A:80 X:80 Y:D3 P:27 SP:FB CYC:191  CZI  -  
D78D  A9 81     LDA #$81                        A:80 X:80 Y:D4 P:A5 SP:FB CYC:197  C I  - N
D78F  8D 78 06  STA $0678 = 80                  A:81 X:80 Y:D4 P:A5 SP:FB CYC:203  C I  - N
D792  EC 78 06  CPX $0678 = 81                  A:81 X:80 Y:D4 P:A5 SP:FB CYC:215  C I  - N
D795  20 C9 F8  JSR $F8C9                       A:81 X:80 Y:D4 P:A4 SP:FB CYC:227    I  - N
F8C9  B0 05     BCS $F8D0                       A:81 X:80 Y:D4 P:A4 SP:F9 CYC:245    I  - N
F8CB  F0 03     BEQ $F8D0                       A:81 X:80 Y:D4 P:A4 SP:F9 CYC:251    I  - N
F8CD  10 01     BPL $F8D0                       A:81 X:80 Y:D4 P:A4 SP:F9 CYC:257    I  - N
F8CF  60        RTS                             A:81 X:80 Y:D4 P:A4 SP:F9 CYC:263    I  - N
D798  C8        INY                             A:81 X:80 Y:D4 P:A4 SP:FB CYC:281    I  - N
D799  A9 7F     LDA #$7F                        A:81 X:80 Y:D5 P:A4 SP:FB CYC:287    I  - N
D79B  8D 78 06  STA $0678 = 81                  A:7F X:80 Y:D5 P:24 SP:FB CYC:293    I  -  
D79E  EC 78 06  CPX $0678 = 7F                  A:7F X:80 Y:D5 P:24 SP:FB CYC:305    I  -  
D7A1  20 D3 F8  JSR $F8D3                       A:7F X:80 Y:D5 P:25 SP:FB CYC:317  C I  -  
F8D3  90 05     BCC $F8DA                       A:7F X:80 Y:D5 P:25 SP:F9 CYC:335  C I  -  
F8D5  F0 03     BEQ $F8DA                       A:7F X:80 Y:D5 P:25 SP:F9 CYC:  0  C I  -  
F8D7  30 01     BMI $F8DA                       A:7F X:80 Y:D5 P:25 SP:F9 CYC:  6  C I  -  
F8D9  60        RTS                             A:7F X:80 Y:D5 P:25 SP:F9 CYC: 12  C I  -  
D7A4  C8        INY                             A:7F X:80 Y:D5 P:25 SP:FB CYC: 30  C I  -  
D7A5  98        TYA                             A:7F X:80 Y:D6 P:A5 SP:FB CYC: 36  C I  - N
D7A6  AA        TAX                             A:D6 X:80 Y:D6 P:A5 SP:FB CYC: 42  C I  - N
D7A7  A9 40     LDA #$40                        A:D6 X:D6 Y:D6 P:A5 SP:FB CYC: 48  C I  - N
D7A9  8D 78 06  STA $0678 = 7F                  A:40 X:D6 Y:D6 P:25 SP:FB CYC: 54  C I  -  
D7AC  20 DD F8  JSR $F8DD                       A:40 X:D6 Y:D6 P:25 SP:FB CYC: 66  C I  -  
F8DD  24 01     BIT $01 = FF                    A:40 X:D6 Y:D6 P:25 SP:F9 CYC: 84  C I  -  
F8DF  A0 40     LDY #$40                        A:40 X:D6 Y:D6 P:E5 SP:F9 CYC: 93  C I  -VN
F8E1  60        RTS                             A:40 X:D6 Y:40 P:65 SP:F9 CYC: 99  C I  -V 
D7AF  CC 78 06  CPY $0678 = 40                  A:40 X:D6 Y:40 P:65 SP:FB CYC:117  C I  -V 
D7B2  20 E2 F8  JSR $F8E2                       A:40 X:D6 Y:40 P:67 SP:FB CYC:129  CZI  -V 
F8E2  30 07     BMI $F8EB                       A:40 X:D6 Y:40 P:67 SP:F9 CYC:147  CZI  -V 
F8E4  90 05     BCC $F8EB                       A:40 X:D6 Y:40 P:67 SP:F9 CYC:153  CZI  -V 
F8E6  D0 03     BNE $F8EB                       A:40 X:D6 Y:40 P:67 SP:F9 CYC:159  CZI  -V 
F8E8  50 01     BVC $F8EB                       A:40 X:D6 Y:40 P:67 SP:F9 CYC:165  CZI  -V 
F8EA  60        RTS                             A:40 X:D6 Y:40 P:67 SP:F9 CYC:171  CZI  -V 
D7B5  E8        INX                             A:40 X:D6 Y:40 P:67 SP:FB CYC:189  CZI  -V 
D7B6  A9 3F     LDA #$3F                        A:40 X:D7 Y:40 P:E5 SP:FB CYC:195  C I  -VN
D7B8  8D 78 06  STA $0678 = 40                  A:3F X:D7 Y:40 P:65 SP:FB CYC:201  C I  -V 
D7BB  20 EE F8  JSR $F8EE                       A:3F X:D7 Y:40 P:65 SP:FB CYC:213  C I  -V 
F8EE  B8        CLV                             A:3F X:D7 Y:40 P:65 SP:F9 CYC:231  C I  -V 
F8EF  60        RTS                             A:3F X:D7 Y:40 P:25 SP:F9 CYC:237  C I  -  
D7BE  CC 78 06  CPY $0678 = 3F                  A:3F X:D7 Y:40 P:25 SP:FB CYC:255  C I  -  
D7C1  20 F0 F8  JSR $F8F0                       A:3F X:D7 Y:40 P:25 SP:FB CYC:267  C I  -  
F8F0  F0 07     BEQ $F8F9                       A:3F X:D7 Y:40 P:25 SP:F9 CYC:285  C I  -  
F8F2  30 05     BMI $F8F9                       A:3F X:D7 Y:40 P:25 SP:F9 CYC:291  C I  -  
F8F4  90 03     BCC $F8F9                       A:3F X:D7 Y:40 P:25 SP:F9 CYC:297  C I  -  
F8F6  70 01     BVS $F8F9                       A:3F X:D7 Y:40 P:25 SP:F9 CYC:303  C I  -  
F8F8  60        RTS                             A:3F X:D7 Y:40 P:25 SP:F9 CYC:309  C I  -  
D7C4  E8        INX                             A:3F X:D7 Y:40 P:25 SP:FB CYC:327  C I  -  
D7C5  A9 41     LDA #$41                        A:3F X:D8 Y:40 P:A5 SP:FB CYC:333  C I  - N
D7C7  8D 78 06  STA $0678 = 3F                  A:41 X:D8 Y:40 P:25 SP:FB CYC:339  C I  -  
D7CA  CC 78 06  CPY $0678 = 41                  A:41 X:D8 Y:40 P:25 SP:FB CYC: 10  C I  -  
D7CD  20 FC F8  JSR $F8FC                       A:41 X:D8 Y:40 P:A4 SP:FB CYC: 22    I  - N
F8FC  F0 05     BEQ $F903                       A:41 X:D8 Y:40 P:A4 SP:F9 CYC: 40    I  - N
F8FE  10 03     BPL $F903                       A:41 X:D8 Y:40 P:A4 SP:F9 CYC: 46    I  - N
F900  10 01     BPL $F903                       A:41 X:D8 Y:40 P:A4 SP:F9 CYC: 52    I  - N
F902  60        RTS                             A:41 X:D8 Y:40 P:A4 SP:F9 CYC: 58    I  - N
D7D0  E8        INX                             A:41 X:D8 Y:40 P:A4 SP:FB CYC: 76    I  - N
D7D1  A9 00     LDA #$00                        A:41 X:D9 Y:40 P:A4 SP:FB CYC: 82    I  - N
D7D3  8D 78 06  STA $0678 = 41                  A:00 X:D9 Y:40 P:26 SP:FB CYC: 88   ZI  -  
D7D6  20 06 F9  JSR $F906                       A:00 X:D9 Y:40 P:26 SP:FB CYC:100   ZI  -  
F906  A0 80     LDY #$80                        A:00 X:D9 Y:40 P:26 SP:F9 CYC:118   ZI  -  
F908  60        RTS                             A:00 X:D9 Y:80 P:A4 SP:F9 CYC:124    I  - N
D7D9  CC 78 06  CPY $0678 = 00                  A:00 X:D9 Y:80 P:A4 SP:FB CYC:142    I  - N
D7DC  20 09 F9  JSR $F909                       A:00 X:D9 Y:80 P:A5 SP:FB CYC:154  C I  - N
F909  F0 05     BEQ $F910                       A:00 X:D9 Y:80 P:A5 SP:F9 CYC:172  C I  - N
F90B  10 03     BPL $F910                       A:00 X:D9 Y:80 P:A5 SP:F9 CYC:178  C I  - N
F90D  90 01     BCC $F910                       A:00 X:D9 Y:80 P:A5 SP:F9 CYC:184  C I  - N
F90F  60        RTS                             A:00 X:D9 Y:80 P:A5 SP:F9 CYC:190  C I  - N
D7DF  E8        INX                             A:00 X:D9 Y:80 P:A5 SP:FB CYC:208  C I  - N
D7E0  A9 80     LDA #$80                        A:00 X:DA Y:80 P:A5 SP:FB CYC:214  C I  - N
D7E2  8D 78 06  STA $0678 = 00                  A:80 X:DA Y:80 P:A5 SP:FB CYC:220  C I  - N
D7E5  CC 78 06  CPY $0678 = 80                  A:80 X:DA Y:80 P:A5 SP:FB CYC:232  C I  - N
D7E8  20 13 F9  JSR $F913                       A:80 X:DA Y:80 P:27 SP:FB CYC:244  CZI  -  
F913  D0 05     BNE $F91A                       A:80 X:DA Y:80 P:27 SP:F9 CYC:262  CZI  -  
F915  30 03     BMI $F91A                       A:80 X:DA Y:80 P:27 SP:F9 CYC:268  CZI  -  
F917  90 01     BCC $F91A                       A:80 X:DA Y:80 P:27 SP:F9 CYC:274  CZI  -  
F919  60        RTS                             A:80 X:DA Y:80 P:27 SP:F9 CYC:280  CZI  -  
D7EB  E8        INX                             A:80 X:DA Y:80 P:27 SP:FB CYC:298  CZI  -  
D7EC  A9 81     LDA #$81                        A:80 X:DB Y:80 P:A5 SP:FB CYC:304  C I  - N
D7EE  8D 78 06  STA $0678 = 80                  A:81 X:DB Y:80 P:A5 SP:FB CYC:310  C I  - N
D7F1  CC 78 06  CPY $0678 = 81                  A:81 X:DB Y:80 P:A5 SP:FB CYC:322  C I  - N
D7F4  20 1D F9  JSR $F91D                       A:81 X:DB Y:80 P:A4 SP:FB CYC:334    I  - N
F91D  B0 05     BCS $F924                       A:81 X:DB Y:80 P:A4 SP:F9 CYC: 11    I  - N
F91F  F0 03     BEQ $F924                       A:81 X:DB Y:80 P:A4 SP:F9 CYC: 17    I  - N
F921  10 01     BPL $F924                       A:81 X:DB Y:80 P:A4 SP:F9 CYC: 23    I  - N
F923  60        RTS                             A:81 X:DB Y:80 P:A4 SP:F9 CYC: 29    I  - N
D7F7  E8        INX                             A:81 X:DB Y:80 P:A4 SP:FB CYC: 47    I  - N
D7F8  A9 7F     LDA #$7F                        A:81 X:DC Y:80 P:A4 SP:FB CYC: 53    I  - N
D7FA  8D 78 06  STA $0678 = 81                  A:7F X:DC Y:80 P:24 SP:FB CYC: 59    I  -  
D7FD  CC 78 06  CPY $0678 = 7F                  A:7F X:DC Y:80 P:24 SP:FB CYC: 71    I  -  
D800  20 27 F9  JSR $F927                       A:7F X:DC Y:80 P:25 SP:FB CYC: 83  C I  -  
F927  90 05     BCC $F92E                       A:7F X:DC Y:80 P:25 SP:F9 CYC:101  C I  -  
F929  F0 03     BEQ $F92E                       A:7F X:DC Y:80 P:25 SP:F9 CYC:107  C I  -  
F92B  30 01     BMI $F92E                       A:7F X:DC Y:80 P:25 SP:F9 CYC:113  C I  -  
F92D  60        RTS                             A:7F X:DC Y:80 P:25 SP:F9 CYC:119  C I  -  
D803  E8        INX                             A:7F X:DC Y:80 P:25 SP:FB CYC:137  C I  -  
D804  8A        TXA                             A:7F X:DD Y:80 P:A5 SP:FB CYC:143  C I  - N
D805  A8        TAY                             A:DD X:DD Y:80 P:A5 SP:FB CYC:149  C I  - N
D806  20 90 F9  JSR $F990                       A:DD X:DD Y:DD P:A5 SP:FB CYC:155  C I  - N
F990  A2 55     LDX #$55                        A:DD X:DD Y:DD P:A5 SP:F9 CYC:173  C I  - N
F992  A9 FF     LDA #$FF                        A:DD X:55 Y:DD P:25 SP:F9 CYC:179  C I  -  
F994  85 01     STA $01 = FF                    A:FF X:55 Y:DD P:A5 SP:F9 CYC:185  C I  - N
F996  EA        NOP                             A:FF X:55 Y:DD P:A5 SP:F9 CYC:194  C I  - N
F997  24 01     BIT $01 = FF                    A:FF X:55 Y:DD P:A5 SP:F9 CYC:200  C I  - N
F999  38        SEC                             A:FF X:55 Y:DD P:E5 SP:F9 CYC:209  C I  -VN
F99A  A9 01     LDA #$01                        A:FF X:55 Y:DD P:E5 SP:F9 CYC:215  C I  -VN
F99C  60        RTS                             A:01 X:55 Y:DD P:65 SP:F9 CYC:221  C I  -V 
D809  8D 78 06  STA $0678 = 7F                  A:01 X:55 Y:DD P:65 SP:FB CYC:239  C I  -V 
D80C  4E 78 06  LSR $0678 = 01                  A:01 X:55 Y:DD P:65 SP:FB CYC:251  C I  -V 
D80F  AD 78 06  LDA $0678 = 00                  A:01 X:55 Y:DD P:67 SP:FB CYC:269  CZI  -V 
D812  20 9D F9  JSR $F99D                       A:00 X:55 Y:DD P:67 SP:FB CYC:281  CZI  -V 
F99D  90 1B     BCC $F9BA                       A:00 X:55 Y:DD P:67 SP:F9 CYC:299  CZI  -V 
F99F  D0 19     BNE $F9BA                       A:00 X:55 Y:DD P:67 SP:F9 CYC:305  CZI  -V 
F9A1  30 17     BMI $F9BA                       A:00 X:55 Y:DD P:67 SP:F9 CYC:311  CZI  -V 
F9A3  50 15     BVC $F9BA                       A:00 X:55 Y:DD P:67 SP:F9 CYC:317  CZI  -V 
F9A5  C9 00     CMP #$00                        A:00 X:55 Y:DD P:67 SP:F9 CYC:323  CZI  -V 
F9A7  D0 11     BNE $F9BA                       A:00 X:55 Y:DD P:67 SP:F9 CYC:329  CZI  -V 
F9A9  B8        CLV                             A:00 X:55 Y:DD P:67 SP:F9 CYC:335  CZI  -V 
F9AA  A9 AA     LDA #$AA                        A:00 X:55 Y:DD P:27 SP:F9 CYC:  0  CZI  -  
F9AC  60        RTS                             A:AA X:55 Y:DD P:A5 SP:F9 CYC:  6  C I  - N
D815  C8        INY                             A:AA X:55 Y:DD P:A5 SP:FB CYC: 24  C I  - N
D816  8D 78 06  STA $0678 = 00                  A:AA X:55 Y:DE P:A5 SP:FB CYC: 30  C I  - N
D819  4E 78 06  LSR $0678 = AA                  A:AA X:55 Y:DE P:A5 SP:FB CYC: 42  C I  - N
D81C  AD 78 06  LDA $0678 = 55                  A:AA X:55 Y:DE P:24 SP:FB CYC: 60    I  -  
D81F  20 AD F9  JSR $F9AD                       A:55 X:55 Y:DE P:24 SP:FB CYC: 72    I  -  
F9AD  B0 0B     BCS $F9BA                       A:55 X:55 Y:DE P:24 SP:F9 CYC: 90    I  -  
F9AF  F0 09     BEQ $F9BA                       A:55 X:55 Y:DE P:24 SP:F9 CYC: 96    I  -  
F9B1  30 07     BMI $F9BA                       A:55 X:55 Y:DE P:24 SP:F9 CYC:102    I  -  
F9B3  70 05     BVS $F9BA                       A:55 X:55 Y:DE P:24 SP:F9 CYC:108    I  -  
F9B5  C9 55     CMP #$55                        A:55 X:55 Y:DE P:24 SP:F9 CYC:114    I  -  
F9B7  D0 01     BNE $F9BA                       A:55 X:55 Y:DE P:27 SP:F9 CYC:120  CZI  -  
F9B9  60        RTS                             A:55 X:55 Y:DE P:27 SP:F9 CYC:126  CZI  -  
D822  C8        INY                             A:55 X:55 Y:DE P:27 SP:FB CYC:144  CZI  -  
D823  20 BD F9  JSR $F9BD                       A:55 X:55 Y:DF P:A5 SP:FB CYC:150  C I  - N
F9BD  24 01     BIT $01 = FF                    A:55 X:55 Y:DF P:A5 SP:F9 CYC:168  C I  - N
F9BF  38        SEC                             A:55 X:55 Y:DF P:E5 SP:F9 CYC:177  C I  -VN
F9C0  A9 80     LDA #$80                        A:55 X:55 Y:DF P:E5 SP:F9 CYC:183  C I  -VN
F9C2  60        RTS                             A:80 X:55 Y:DF P:E5 SP:F9 CYC:189  C I  -VN
D826  8D 78 06  STA $0678 = 55                  A:80 X:55 Y:DF P:E5 SP:FB CYC:207  C I  -VN
D829  0E 78 06  ASL $0678 = 80                  A:80 X:55 Y:DF P:E5 SP:FB CYC:219  C I  -VN
D82C  AD 78 06  LDA $0678 = 00                  A:80 X:55 Y:DF P:67 SP:FB CYC:237  CZI  -V 
D82F  20 C3 F9  JSR $F9C3                       A:00 X:55 Y:DF P:67 SP:FB CYC:249  CZI  -V 
F9C3  90 1C     BCC $F9E1                       A:00 X:55 Y:DF P:67 SP:F9 CYC:267  CZI  -V 
F9C5  D0 1A     BNE $F9E1                       A:00 X:55 Y:DF P:67 SP:F9 CYC:273  CZI  -V 
F9C7  30 18     BMI $F9E1                       A:00 X:55 Y:DF P:67 SP:F9 CYC:279  CZI  -V 
F9C9  50 16     BVC $F9E1                       A:00 X:55 Y:DF P:67 SP:F9 CYC:285  CZI  -V 
F9CB  C9 00     CMP #$00                        A:00 X:55 Y:DF P:67 SP:F9 CYC:291  CZI  -V 
F9CD  D0 12     BNE $F9E1                       A:00 X:55 Y:DF P:67 SP:F9 CYC:297  CZI  -V 
F9CF  B8        CLV                             A:00 X:55 Y:DF P:67 SP:F9 CYC:303  CZI  -V 
F9D0  A9 55     LDA #$55                        A:00 X:55 Y:DF P:27 SP:F9 CYC:309  CZI  -  
F9D2  38        SEC                             A:55 X:55 Y:DF P:25 SP:F9 CYC:315  C I  -  
F9D3  60        RTS                             A:55 X:55 Y:DF P:25 SP:F9 CYC:321  C I  -  
D832  C8        INY                             A:55 X:55 Y:DF P:25 SP:FB CYC:339  C I  -  
D833  8D 78 06  STA $0678 = 00                  A:55 X:55 Y:E0 P:A5 SP:FB CYC:  4  C I  - N
D836  0E 78 06  ASL $0678 = 55                  A:55 X:55 Y:E0 P:A5 SP:FB CYC: 16  C I  - N
D839  AD 78 06  LDA $0678 = AA                  A:55 X:55 Y:E0 P:A4 SP:FB CYC: 34    I  - N
D83C  20 D4 F9  JSR $F9D4                       A:AA X:55 Y:E0 P:A4 SP:FB CYC: 46    I  - N
F9D4  B0 0B     BCS $F9E1                       A:AA X:55 Y:E0 P:A4 SP:F9 CYC: 64    I  - N
F9D6  F0 09     BEQ $F9E1                       A:AA X:55 Y:E0 P:A4 SP:F9 CYC: 70    I  - N
F9D8  10 07     BPL $F9E1                       A:AA X:55 Y:E0 P:A4 SP:F9 CYC: 76    I  - N
F9DA  70 05     BVS $F9E1                       A:AA X:55 Y:E0 P:A4 SP:F9 CYC: 82    I  - N
F9DC  C9 AA     CMP #$AA                        A:AA X:55 Y:E0 P:A4 SP:F9 CYC: 88    I  - N
F9DE  D0 01     BNE $F9E1                       A:AA X:55 Y:E0 P:27 SP:F9 CYC: 94  CZI  -  
F9E0  60        RTS                             A:AA X:55 Y:E0 P:27 SP:F9 CYC:100  CZI  -  
D83F  C8        INY                             A:AA X:55 Y:E0 P:27 SP:FB CYC:118  CZI  -  
D840  20 E4 F9  JSR $F9E4                       A:AA X:55 Y:E1 P:A5 SP:FB CYC:124  C I  - N
F9E4  24 01     BIT $01 = FF                    A:AA X:55 Y:E1 P:A5 SP:F9 CYC:142  C I  - N
F9E6  38        SEC                             A:AA X:55 Y:E1 P:E5 SP:F9 CYC:151  C I  -VN
F9E7  A9 01     LDA #$01                        A:AA X:55 Y:E1 P:E5 SP:F9 CYC:157  C I  -VN
F9E9  60        RTS                             A:01 X:55 Y:E1 P:65 SP:F9 CYC:163  C I  -V 
D843  8D 78 06  STA $0678 = AA                  A:01 X:55 Y:E1 P:65 SP:FB CYC:181  C I  -V 
D846  6E 78 06  ROR $0678 = 01                  A:01 X:55 Y:E1 P:65 SP:FB CYC:193  C I  -V 
D849  AD 78 06  LDA $0678 = 80                  A:01 X:55 Y:E1 P:E5 SP:FB CYC:211  C I  -VN
D84C  20 EA F9  JSR $F9EA                       A:80 X:55 Y:E1 P:E5 SP:FB CYC:223  C I  -VN
F9EA  90 1C     BCC $FA08                       A:80 X:55 Y:E1 P:E5 SP:F9 CYC:241  C I  -VN
F9EC  F0 1A     BEQ $FA08                       A:80 X:55 Y:E1 P:E5 SP:F9 CYC:247  C I  -VN
F9EE  10 18     BPL $FA08                       A:80 X:55 Y:E1 P:E5 SP:F9 CYC:253  C I  -VN
F9F0  50 16     BVC $FA08                       A:80 X:55 Y:E1 P:E5 SP:F9 CYC:259  C I  -VN
F9F2  C9 80     CMP #$80                        A:80 X:55 Y:E1 P:E5 SP:F9 CYC:265  C I  -VN
F9F4  D0 12     BNE $FA08                       A:80 X:55 Y:E1 P:67 SP:F9 CYC:271  CZI  -V 
F9F6  B8        CLV                             A:80 X:55 Y:E1 P:67 SP:F9 CYC:277  CZI  -V 
F9F7  18        CLC                             A:80 X:55 Y:E1 P:27 SP:F9 CYC:283  CZI  -  
F9F8  A9 55     LDA #$55                        A:80 X:55 Y:E1 P:26 SP:F9 CYC:289   ZI  -  
F9FA  60        RTS                             A:55 X:55 Y:E1 P:24 SP:F9 CYC:295    I  -  
D84F  C8        INY                             A:55 X:55 Y:E1 P:24 SP:FB CYC:313    I  -  
D850  8D 78 06  STA $0678 = 80                  A:55 X:55 Y:E2 P:A4 SP:FB CYC:319    I  - N
D853  6E 78 06  ROR $0678 = 55                  A:55 X:55 Y:E2 P:A4 SP:FB CYC:331    I  - N
D856  AD 78 06  LDA $0678 = 2A                  A:55 X:55 Y:E2 P:25 SP:FB CYC:  8  C I  -  
D859  20 FB F9  JSR $F9FB                       A:2A X:55 Y:E2 P:25 SP:FB CYC: 20  C I  -  
F9FB  90 0B     BCC $FA08                       A:2A X:55 Y:E2 P:25 SP:F9 CYC: 38  C I  -  
F9FD  F0 09     BEQ $FA08                       A:2A X:55 Y:E2 P:25 SP:F9 CYC: 44  C I  -  
F9FF  30 07     BMI $FA08                       A:2A X:55 Y:E2 P:25 SP:F9 CYC: 50  C I  -  
FA01  70 05     BVS $FA08                       A:2A X:55 Y:E2 P:25 SP:F9 CYC: 56  C I  -  
FA03  C9 2A     CMP #$2A                        A:2A X:55 Y:E2 P:25 SP:F9 CYC: 62  C I  -  
FA05  D0 01     BNE $FA08                       A:2A X:55 Y:E2 P:27 SP:F9 CYC: 68  CZI  -  
FA07  60        RTS                             A:2A X:55 Y:E2 P:27 SP:F9 CYC: 74  CZI  -  
D85C  C8        INY                             A:2A X:55 Y:E2 P:27 SP:FB CYC: 92  CZI  -  
D85D  20 0A FA  JSR $FA0A                       A:2A X:55 Y:E3 P:A5 SP:FB CYC: 98  C I  - N
FA0A  24 01     BIT $01 = FF                    A:2A X:55 Y:E3 P:A5 SP:F9 CYC:116  C I  - N
FA0C  38        SEC                             A:2A X:55 Y:E3 P:E5 SP:F9 CYC:125  C I  -VN
FA0D  A9 80     LDA #$80                        A:2A X:55 Y:E3 P:E5 SP:F9 CYC:131  C I  -VN
FA0F  60        RTS                             A:80 X:55 Y:E3 P:E5 SP:F9 CYC:137  C I  -VN
D860  8D 78 06  STA $0678 = 2A                  A:80 X:55 Y:E3 P:E5 SP:FB CYC:155  C I  -VN
D863  2E 78 06  ROL $0678 = 80                  A:80 X:55 Y:E3 P:E5 SP:FB CYC:167  C I  -VN
D866  AD 78 06  LDA $0678 = 01                  A:80 X:55 Y:E3 P:65 SP:FB CYC:185  C I  -V 
D869  20 10 FA  JSR $FA10                       A:01 X:55 Y:E3 P:65 SP:FB CYC:197  C I  -V 
FA10  90 1C     BCC $FA2E                       A:01 X:55 Y:E3 P:65 SP:F9 CYC:215  C I  -V 
FA12  F0 1A     BEQ $FA2E                       A:01 X:55 Y:E3 P:65 SP:F9 CYC:221  C I  -V 
FA14  30 18     BMI $FA2E                       A:01 X:55 Y:E3 P:65 SP:F9 CYC:227  C I  -V 
FA16  50 16     BVC $FA2E                       A:01 X:55 Y:E3 P:65 SP:F9 CYC:233  C I  -V 
FA18  C9 01     CMP #$01                        A:01 X:55 Y:E3 P:65 SP:F9 CYC:239  C I  -V 
FA1A  D0 12     BNE $FA2E                       A:01 X:55 Y:E3 P:67 SP:F9 CYC:245  CZI  -V 
FA1C  B8        CLV                             A:01 X:55 Y:E3 P:67 SP:F9 CYC:251  CZI  -V 
FA1D  18        CLC                             A:01 X:55 Y:E3 P:27 SP:F9 CYC:257  CZI  -  
FA1E  A9 55     LDA #$55                        A:01 X:55 Y:E3 P:26 SP:F9 CYC:263   ZI  -  
FA20  60        RTS                             A:55 X:55 Y:E3 P:24 SP:F9 CYC:269    I  -  
D86C  C8        INY                             A:55 X:55 Y:E3 P:24 SP:FB CYC:287    I  -  
D86D  8D 78 06  STA $0678 = 01                  A:55 X:55 Y:E4 P:A4 SP:FB CYC:293    I  - N
D870  2E 78 06  ROL $0678 = 55                  A:55 X:55 Y:E4 P:A4 SP:FB CYC:305    I  - N
D873  AD 78 06  LDA $0678 = AA                  A:55 X:55 Y:E4 P:A4 SP:FB CYC:323    I  - N
D876  20 21 FA  JSR $FA21                       A:AA X:55 Y:E4 P:A4 SP:FB CYC:335    I  - N
FA21  B0 0B     BCS $FA2E                       A:AA X:55 Y:E4 P:A4 SP:F9 CYC: 12    I  - N
FA23  F0 09     BEQ $FA2E                       A:AA X:55 Y:E4 P:A4 SP:F9 CYC: 18    I  - N
FA25  10 07     BPL $FA2E                       A:AA X:55 Y:E4 P:A4 SP:F9 CYC: 24    I  - N
FA27  70 05     BVS $FA2E                       A:AA X:55 Y:E4 P:A4 SP:F9 CYC: 30    I  - N
FA29  C9 AA     CMP #$AA                        A:AA X:55 Y:E4 P:A4 SP:F9 CYC: 36    I  - N
FA2B  D0 01     BNE $FA2E                       A:AA X:55 Y:E4 P:27 SP:F9 CYC: 42  CZI  -  
FA2D  60        RTS                             A:AA X:55 Y:E4 P:27 SP:F9 CYC: 48  CZI  -  
D879  A9 FF     LDA #$FF                        A:AA X:55 Y:E4 P:27 SP:FB CYC: 66  CZI  -  
D87B  8D 78 06  STA $0678 = AA                  A:FF X:55 Y:E4 P:A5 SP:FB CYC: 72  C I  - N
D87E  85 01     STA $01 = FF                    A:FF X:55 Y:E4 P:A5 SP:FB CYC: 84  C I  - N
D880  24 01     BIT $01 = FF                    A:FF X:55 Y:E4 P:A5 SP:FB CYC: 93  C I  - N
D882  38        SEC                             A:FF X:55 Y:E4 P:E5 SP:FB CYC:102  C I  -VN
D883  EE 78 06  INC $0678 = FF                  A:FF X:55 Y:E4 P:E5 SP:FB CYC:108  C I  -VN
D886  D0 0D     BNE $D895                       A:FF X:55 Y:E4 P:67 SP:FB CYC:126  CZI  -V 
D888  30 0B     BMI $D895                       A:FF X:55 Y:E4 P:67 SP:FB CYC:132  CZI  -V 
D88A  50 09     BVC $D895                       A:FF X:55 Y:E4 P:67 SP:FB CYC:138  CZI  -V 
D88C  90 07     BCC $D895                       A:FF X:55 Y:E4 P:67 SP:FB CYC:144  CZI  -V 
D88E  AD 78 06  LDA $0678 = 00                  A:FF X:55 Y:E4 P:67 SP:FB CYC:150  CZI  -V 
D891  C9 00     CMP #$00                        A:00 X:55 Y:E4 P:67 SP:FB CYC:162  CZI  -V 
D893  F0 04     BEQ $D899                       A:00 X:55 Y:E4 P:67 SP:FB CYC:168  CZI  -V 
D899  A9 7F     LDA #$7F                        A:00 X:55 Y:E4 P:67 SP:FB CYC:177  CZI  -V 
D89B  8D 78 06  STA $0678 = 00                  A:7F X:55 Y:E4 P:65 SP:FB CYC:183  C I  -V 
D89E  B8        CLV                             A:7F X:55 Y:E4 P:65 SP:FB CYC:195  C I  -V 
D89F  18        CLC                             A:7F X:55 Y:E4 P:25 SP:FB CYC:201  C I  -  
D8A0  EE 78 06  INC $0678 = 7F                  A:7F X:55 Y:E4 P:24 SP:FB CYC:207    I  -  
D8A3  F0 0D     BEQ $D8B2                       A:7F X:55 Y:E4 P:A4 SP:FB CYC:225    I  - N
D8A5  10 0B     BPL $D8B2                       A:7F X:55 Y:E4 P:A4 SP:FB CYC:231    I  - N
D8A7  70 09     BVS $D8B2                       A:7F X:55 Y:E4 P:A4 SP:FB CYC:237    I  - N
D8A9  B0 07     BCS $D8B2                       A:7F X:55 Y:E4 P:A4 SP:FB CYC:243    I  - N
D8AB  AD 78 06  LDA $0678 = 80                  A:7F X:55 Y:E4 P:A4 SP:FB CYC:249    I  - N
D8AE  C9 80     CMP #$80                        A:80 X:55 Y:E4 P:A4 SP:FB CYC:261    I  - N
D8B0  F0 04     BEQ $D8B6                       A:80 X:55 Y:E4 P:27 SP:FB CYC:267  CZI  -  
D8B6  A9 00     LDA #$00                        A:80 X:55 Y:E4 P:27 SP:FB CYC:276  CZI  -  
D8B8  8D 78 06  STA $0678 = 80                  A:00 X:55 Y:E4 P:27 SP:FB CYC:282  CZI  -  
D8BB  24 01     BIT $01 = FF                    A:00 X:55 Y:E4 P:27 SP:FB CYC:294  CZI  -  
D8BD  38        SEC                             A:00 X:55 Y:E4 P:E7 SP:FB CYC:303  CZI  -VN
D8BE  CE 78 06  DEC $0678 = 00                  A:00 X:55 Y:E4 P:E7 SP:FB CYC:309  CZI  -VN
D8C1  F0 0D     BEQ $D8D0                       A:00 X:55 Y:E4 P:E5 SP:FB CYC:327  C I  -VN
D8C3  10 0B     BPL $D8D0                       A:00 X:55 Y:E4 P:E5 SP:FB CYC:333  C I  -VN
D8C5  50 09     BVC $D8D0                       A:00 X:55 Y:E4 P:E5 SP:FB CYC:339  C I  -VN
D8C7  90 07     BCC $D8D0                       A:00 X:55 Y:E4 P:E5 SP:FB CYC:  4  C I  -VN
D8C9  AD 78 06  LDA $0678 = FF                  A:00 X:55 Y:E4 P:E5 SP:FB CYC: 10  C I  -VN
D8CC  C9 FF     CMP #$FF                        A:FF X:55 Y:E4 P:E5 SP:FB CYC: 22  C I  -VN
D8CE  F0 04     BEQ $D8D4                       A:FF X:55 Y:E4 P:67 SP:FB CYC: 28  CZI  -V 
D8D4  A9 80     LDA #$80                        A:FF X:55 Y:E4 P:67 SP:FB CYC: 37  CZI  -V 
D8D6  8D 78 06  STA $0678 = FF                  A:80 X:55 Y:E4 P:E5 SP:FB CYC: 43  C I  -VN
D8D9  B8        CLV                             A:80 X:55 Y:E4 P:E5 SP:FB CYC: 55  C I  -VN
D8DA  18        CLC                             A:80 X:55 Y:E4 P:A5 SP:FB CYC: 61  C I  - N
D8DB  CE 78 06  DEC $0678 = 80                  A:80 X:55 Y:E4 P:A4 SP:FB CYC: 67    I  - N
D8DE  F0 0D     BEQ $D8ED                       A:80 X:55 Y:E4 P:24 SP:FB CYC: 85    I  -  
D8E0  30 0B     BMI $D8ED                       A:80 X:55 Y:E4 P:24 SP:FB CYC: 91    I  -  
D8E2  70 09     BVS $D8ED                       A:80 X:55 Y:E4 P:24 SP:FB CYC: 97    I  -  
D8E4  B0 07     BCS $D8ED                       A:80 X:55 Y:E4 P:24 SP:FB CYC:103    I  -  
D8E6  AD 78 06  LDA $0678 = 7F                  A:80 X:55 Y:E4 P:24 SP:FB CYC:109    I  -  
D8E9  C9 7F     CMP #$7F                        A:7F X:55 Y:E4 P:24 SP:FB CYC:121    I  -  
D8EB  F0 04     BEQ $D8F1                       A:7F X:55 Y:E4 P:27 SP:FB CYC:127  CZI  -  
D8F1  A9 01     LDA #$01                        A:7F X:55 Y:E4 P:27 SP:FB CYC:136  CZI  -  
D8F3  8D 78 06  STA $0678 = 7F                  A:01 X:55 Y:E4 P:25 SP:FB CYC:142  C I  -  
D8F6  CE 78 06  DEC $0678 = 01                  A:01 X:55 Y:E4 P:25 SP:FB CYC:154  C I  -  
D8F9  F0 04     BEQ $D8FF                       A:01 X:55 Y:E4 P:27 SP:FB CYC:172  CZI  -  
D8FF  60        RTS                             A:01 X:55 Y:E4 P:27 SP:FB CYC:181  CZI  -  
C618  20 00 D9  JSR $D900                       A:01 X:55 Y:E4 P:27 SP:FD CYC:199  CZI  -  
D900  A9 A3     LDA #$A3                        A:01 X:55 Y:E4 P:27 SP:FB CYC:217  CZI  -  
D902  85 33     STA $33 = 00                    A:A3 X:55 Y:E4 P:A5 SP:FB CYC:223  C I  - N
D904  A9 89     LDA #$89                        A:A3 X:55 Y:E4 P:A5 SP:FB CYC:232  C I  - N
D906  8D 00 03  STA $0300 = 70                  A:89 X:55 Y:E4 P:A5 SP:FB CYC:238  C I  - N
D909  A9 12     LDA #$12                        A:89 X:55 Y:E4 P:A5 SP:FB CYC:250  C I  - N
D90B  8D 45 02  STA $0245 = 00                  A:12 X:55 Y:E4 P:25 SP:FB CYC:256  C I  -  
D90E  A9 FF     LDA #$FF                        A:12 X:55 Y:E4 P:25 SP:FB CYC:268  C I  -  
D910  85 01     STA $01 = FF                    A:FF X:55 Y:E4 P:A5 SP:FB CYC:274  C I  - N
D912  A2 65     LDX #$65                        A:FF X:55 Y:E4 P:A5 SP:FB CYC:283  C I  - N
D914  A9 00     LDA #$00                        A:FF X:65 Y:E4 P:25 SP:FB CYC:289  C I  -  
D916  85 89     STA $89 = 00                    A:00 X:65 Y:E4 P:27 SP:FB CYC:295  CZI  -  
D918  A9 03     LDA #$03                        A:00 X:65 Y:E4 P:27 SP:FB CYC:304  CZI  -  
D91A  85 8A     STA $8A = 00                    A:03 X:65 Y:E4 P:25 SP:FB CYC:310  C I  -  
D91C  A0 00     LDY #$00                        A:03 X:65 Y:E4 P:25 SP:FB CYC:319  C I  -  
D91E  38        SEC                             A:03 X:65 Y:00 P:27 SP:FB CYC:325  CZI  -  
D91F  A9 00     LDA #$00                        A:03 X:65 Y:00 P:27 SP:FB CYC:331  CZI  -  
D921  B8        CLV                             A:00 X:65 Y:00 P:27 SP:FB CYC:337  CZI  -  
D922  B1 89     LDA ($89),Y = 0300 @ 0300 = 89  A:00 X:65 Y:00 P:27 SP:FB CYC:  2  CZI  -  
D924  F0 0C     BEQ $D932                       A:89 X:65 Y:00 P:A5 SP:FB CYC: 17  C I  - N
D926  90 0A     BCC $D932                       A:89 X:65 Y:00 P:A5 SP:FB CYC: 23  C I  - N
D928  70 08     BVS $D932                       A:89 X:65 Y:00 P:A5 SP:FB CYC: 29  C I  - N
D92A  C9 89     CMP #$89                        A:89 X:65 Y:00 P:A5 SP:FB CYC: 35  C I  - N
D92C  D0 04     BNE $D932                       A:89 X:65 Y:00 P:27 SP:FB CYC: 41  CZI  -  
D92E  E0 65     CPX #$65                        A:89 X:65 Y:00 P:27 SP:FB CYC: 47  CZI  -  
D930  F0 04     BEQ $D936                       A:89 X:65 Y:00 P:27 SP:FB CYC: 53  CZI  -  
D936  A9 FF     LDA #$FF                        A:89 X:65 Y:00 P:27 SP:FB CYC: 62  CZI  -  
D938  85 97     STA $97 = 00                    A:FF X:65 Y:00 P:A5 SP:FB CYC: 68  C I  - N
D93A  85 98     STA $98 = 00                    A:FF X:65 Y:00 P:A5 SP:FB CYC: 77  C I  - N
D93C  24 98     BIT $98 = FF                    A:FF X:65 Y:00 P:A5 SP:FB CYC: 86  C I  - N
D93E  A0 34     LDY #$34                        A:FF X:65 Y:00 P:E5 SP:FB CYC: 95  C I  -VN
D940  B1 97     LDA ($97),Y = FFFF @ 0033 = A3  A:FF X:65 Y:34 P:65 SP:FB CYC:101  C I  -V 
D942  C9 A3     CMP #$A3                        A:A3 X:65 Y:34 P:E5 SP:FB CYC:119  C I  -VN
D944  D0 02     BNE $D948                       A:A3 X:65 Y:34 P:67 SP:FB CYC:125  CZI  -V 
D946  B0 04     BCS $D94C                       A:A3 X:65 Y:34 P:67 SP:FB CYC:131  CZI  -V 
D94C  A5 00     LDA $00 = 00                    A:A3 X:65 Y:34 P:67 SP:FB CYC:140  CZI  -V 
D94E  48        PHA                             A:00 X:65 Y:34 P:67 SP:FB CYC:149  CZI  -V 
D94F  A9 46     LDA #$46                        A:00 X:65 Y:34 P:67 SP:FA CYC:158  CZI  -V 
D951  85 FF     STA $FF = 00                    A:46 X:65 Y:34 P:65 SP:FA CYC:164  C I  -V 
D953  A9 01     LDA #$01                        A:46 X:65 Y:34 P:65 SP:FA CYC:173  C I  -V 
D955  85 00     STA $00 = 00                    A:01 X:65 Y:34 P:65 SP:FA CYC:179  C I  -V 
D957  A0 FF     LDY #$FF                        A:01 X:65 Y:34 P:65 SP:FA CYC:188  C I  -V 
D959  B1 FF     LDA ($FF),Y = 0146 @ 0245 = 12  A:01 X:65 Y:FF P:E5 SP:FA CYC:194  C I  -VN
D95B  C9 12     CMP #$12                        A:12 X:65 Y:FF P:65 SP:FA CYC:212  C I  -V 
D95D  F0 04     BEQ $D963                       A:12 X:65 Y:FF P:67 SP:FA CYC:218  CZI  -V 
D963  68        PLA                             A:12 X:65 Y:FF P:67 SP:FA CYC:227  CZI  -V 
D964  85 00     STA $00 = 01                    A:00 X:65 Y:FF P:67 SP:FB CYC:239  CZI  -V 
D966  A2 ED     LDX #$ED                        A:00 X:65 Y:FF P:67 SP:FB CYC:248  CZI  -V 
D968  A9 00     LDA #$00                        A:00 X:ED Y:FF P:E5 SP:FB CYC:254  C I  -VN
D96A  85 33     STA $33 = A3                    A:00 X:ED Y:FF P:67 SP:FB CYC:260  CZI  -V 
D96C  A9 04     LDA #$04                        A:00 X:ED Y:FF P:67 SP:FB CYC:269  CZI  -V 
D96E  85 34     STA $34 = 00                    A:04 X:ED Y:FF P:65 SP:FB CYC:275  C I  -V 
D970  A0 00     LDY #$00                        A:04 X:ED Y:FF P:65 SP:FB CYC:284  C I  -V 
D972  18        CLC                             A:04 X:ED Y:00 P:67 SP:FB CYC:290  CZI  -V 
D973  A9 FF     LDA #$FF                        A:04 X:ED Y:00 P:66 SP:FB CYC:296   ZI  -V 
D975  85 01     STA $01 = FF                    A:FF X:ED Y:00 P:E4 SP:FB CYC:302    I  -VN
D977  24 01     BIT $01 = FF                    A:FF X:ED Y:00 P:E4 SP:FB CYC:311    I  -VN
D979  A9 AA     LDA #$AA                        A:FF X:ED Y:00 P:E4 SP:FB CYC:320    I  -VN
D97B  8D 00 04  STA $0400 = AD                  A:AA X:ED Y:00 P:E4 SP:FB CYC:326    I  -VN
D97E  A9 55     LDA #$55                        A:AA X:ED Y:00 P:E4 SP:FB CYC:338    I  -VN
D980  11 33     ORA ($33),Y = 0400 @ 0400 = AA  A:55 X:ED Y:00 P:64 SP:FB CYC:  3    I  -V 
D982  B0 08     BCS $D98C                       A:FF X:ED Y:00 P:E4 SP:FB CYC: 18    I  -VN
D984  10 06     BPL $D98C                       A:FF X:ED Y:00 P:E4 SP:FB CYC: 24    I  -VN
D986  C9 FF     CMP #$FF                        A:FF X:ED Y:00 P:E4 SP:FB CYC: 30    I  -VN
D988  D0 02     BNE $D98C                       A:FF X:ED Y:00 P:67 SP:FB CYC: 36  CZI  -V 
D98A  70 02     BVS $D98E                       A:FF X:ED Y:00 P:67 SP:FB CYC: 42  CZI  -V 
D98E  E8        INX                             A:FF X:ED Y:00 P:67 SP:FB CYC: 51  CZI  -V 
D98F  38        SEC                             A:FF X:EE Y:00 P:E5 SP:FB CYC: 57  C I  -VN
D990  B8        CLV                             A:FF X:EE Y:00 P:E5 SP:FB CYC: 63  C I  -VN
D991  A9 00     LDA #$00                        A:FF X:EE Y:00 P:A5 SP:FB CYC: 69  C I  - N
D993  11 33     ORA ($33),Y = 0400 @ 0400 = AA  A:00 X:EE Y:00 P:27 SP:FB CYC: 75  CZI  -  
D995  F0 06     BEQ $D99D                       A:AA X:EE Y:00 P:A5 SP:FB CYC: 90  C I  - N
D997  70 04     BVS $D99D                       A:AA X:EE Y:00 P:A5 SP:FB CYC: 96  C I  - N
D999  90 02     BCC $D99D                       A:AA X:EE Y:00 P:A5 SP:FB CYC:102  C I  - N
D99B  30 02     BMI $D99F                       A:AA X:EE Y:00 P:A5 SP:FB CYC:108  C I  - N
D99F  E8        INX                             A:AA X:EE Y:00 P:A5 SP:FB CYC:117  C I  - N
D9A0  18        CLC                             A:AA X:EF Y:00 P:A5 SP:FB CYC:123  C I  - N
D9A1  24 01     BIT $01 = FF                    A:AA X:EF Y:00 P:A4 SP:FB CYC:129    I  - N
D9A3  A9 55     LDA #$55                        A:AA X:EF Y:00 P:E4 SP:FB CYC:138    I  -VN
D9A5  31 33     AND ($33),Y = 0400 @ 0400 = AA  A:55 X:EF Y:00 P:64 SP:FB CYC:144    I  -V 
D9A7  D0 06     BNE $D9AF                       A:00 X:EF Y:00 P:66 SP:FB CYC:159   ZI  -V 
D9A9  50 04     BVC $D9AF                       A:00 X:EF Y:00 P:66 SP:FB CYC:165   ZI  -V 
D9AB  B0 02     BCS $D9AF                       A:00 X:EF Y:00 P:66 SP:FB CYC:171   ZI  -V 
D9AD  10 02     BPL $D9B1                       A:00 X:EF Y:00 P:66 SP:FB CYC:177   ZI  -V 
D9B1  E8        INX                             A:00 X:EF Y:00 P:66 SP:FB CYC:186   ZI  -V 
D9B2  38        SEC                             A:00 X:F0 Y:00 P:E4 SP:FB CYC:192    I  -VN
D9B3  B8        CLV                             A:00 X:F0 Y:00 P:E5 SP:FB CYC:198  C I  -VN
D9B4  A9 EF     LDA #$EF                        A:00 X:F0 Y:00 P:A5 SP:FB CYC:204  C I  - N
D9B6  8D 00 04  STA $0400 = AA                  A:EF X:F0 Y:00 P:A5 SP:FB CYC:210  C I  - N
D9B9  A9 F8     LDA #$F8                        A:EF X:F0 Y:00 P:A5 SP:FB CYC:222  C I  - N
D9BB  31 33     AND ($33),Y = 0400 @ 0400 = EF  A:F8 X:F0 Y:00 P:A5 SP:FB CYC:228  C I  - N
D9BD  90 08     BCC $D9C7                       A:E8 X:F0 Y:00 P:A5 SP:FB CYC:243  C I  - N
D9BF  10 06     BPL $D9C7                       A:E8 X:F0 Y:00 P:A5 SP:FB CYC:249  C I  - N
D9C1  C9 E8     CMP #$E8                        A:E8 X:F0 Y:00 P:A5 SP:FB CYC:255  C I  - N
D9C3  D0 02     BNE $D9C7                       A:E8 X:F0 Y:00 P:27 SP:FB CYC:261  CZI  -  
D9C5  50 02     BVC $D9C9                       A:E8 X:F0 Y:00 P:27 SP:FB CYC:267  CZI  -  
D9C9  E8        INX                             A:E8 X:F0 Y:00 P:27 SP:FB CYC:276  CZI  -  
D9CA  18        CLC                             A:E8 X:F1 Y:00 P:A5 SP:FB CYC:282  C I  - N
D9CB  24 01     BIT $01 = FF                    A:E8 X:F1 Y:00 P:A4 SP:FB CYC:288    I  - N
D9CD  A9 AA     LDA #$AA                        A:E8 X:F1 Y:00 P:E4 SP:FB CYC:297    I  -VN
D9CF  8D 00 04  STA $0400 = EF                  A:AA X:F1 Y:00 P:E4 SP:FB CYC:303    I  -VN
D9D2  A9 5F     LDA #$5F                        A:AA X:F1 Y:00 P:E4 SP:FB CYC:315    I  -VN
D9D4  51 33     EOR ($33),Y = 0400 @ 0400 = AA  A:5F X:F1 Y:00 P:64 SP:FB CYC:321    I  -V 
D9D6  B0 08     BCS $D9E0                       A:F5 X:F1 Y:00 P:E4 SP:FB CYC:336    I  -VN
D9D8  10 06     BPL $D9E0                       A:F5 X:F1 Y:00 P:E4 SP:FB CYC:  1    I  -VN
D9DA  C9 F5     CMP #$F5                        A:F5 X:F1 Y:00 P:E4 SP:FB CYC:  7    I  -VN
D9DC  D0 02     BNE $D9E0                       A:F5 X:F1 Y:00 P:67 SP:FB CYC: 13  CZI  -V 
D9DE  70 02     BVS $D9E2                       A:F5 X:F1 Y:00 P:67 SP:FB CYC: 19  CZI  -V 
D9E2  E8        INX                             A:F5 X:F1 Y:00 P:67 SP:FB CYC: 28  CZI  -V 
D9E3  38        SEC                             A:F5 X:F2 Y:00 P:E5 SP:FB CYC: 34  C I  -VN
D9E4  B8        CLV                             A:F5 X:F2 Y:00 P:E5 SP:FB CYC: 40  C I  -VN
D9E5  A9 70     LDA #$70                        A:F5 X:F2 Y:00 P:A5 SP:FB CYC: 46  C I  - N
D9E7  8D 00 04  STA $0400 = AA                  A:70 X:F2 Y:00 P:25 SP:FB CYC: 52  C I  -  
D9EA  51 33     EOR ($33),Y = 0400 @ 0400 = 70  A:70 X:F2 Y:00 P:25 SP:FB CYC: 64  C I  -  
D9EC  D0 06     BNE $D9F4                       A:00 X:F2 Y:00 P:27 SP:FB CYC: 79  CZI  -  
D9EE  70 04     BVS $D9F4                       A:00 X:F2 Y:00 P:27 SP:FB CYC: 85  CZI  -  
D9F0  90 02     BCC $D9F4                       A:00 X:F2 Y:00 P:27 SP:FB CYC: 91  CZI  -  
D9F2  10 02     BPL $D9F6                       A:00 X:F2 Y:00 P:27 SP:FB CYC: 97  CZI  -  
D9F6  E8        INX                             A:00 X:F2 Y:00 P:27 SP:FB CYC:106  CZI  -  
D9F7  18        CLC                             A:00 X:F3 Y:00 P:A5 SP:FB CYC:112  C I  - N
D9F8  24 01     BIT $01 = FF                    A:00 X:F3 Y:00 P:A4 SP:FB CYC:118    I  - N
D9FA  A9 69     LDA #$69                        A:00 X:F3 Y:00 P:E6 SP:FB CYC:127   ZI  -VN
D9FC  8D 00 04  STA $0400 = 70                  A:69 X:F3 Y:00 P:64 SP:FB CYC:133    I  -V 
D9FF  A9 00     LDA #$00                        A:69 X:F3 Y:00 P:64 SP:FB CYC:145    I  -V 
DA01  71 33     ADC ($33),Y = 0400 @ 0400 = 69  A:00 X:F3 Y:00 P:66 SP:FB CYC:151   ZI  -V 
DA03  30 08     BMI $DA0D                       A:69 X:F3 Y:00 P:24 SP:FB CYC:166    I  -  
DA05  B0 06     BCS $DA0D                       A:69 X:F3 Y:00 P:24 SP:FB CYC:172    I  -  
DA07  C9 69     CMP #$69                        A:69 X:F3 Y:00 P:24 SP:FB CYC:178    I  -  
DA09  D0 02     BNE $DA0D                       A:69 X:F3 Y:00 P:27 SP:FB CYC:184  CZI  -  
DA0B  50 02     BVC $DA0F                       A:69 X:F3 Y:00 P:27 SP:FB CYC:190  CZI  -  
DA0F  E8        INX                             A:69 X:F3 Y:00 P:27 SP:FB CYC:199  CZI  -  
DA10  38        SEC                             A:69 X:F4 Y:00 P:A5 SP:FB CYC:205  C I  - N
DA11  24 01     BIT $01 = FF                    A:69 X:F4 Y:00 P:A5 SP:FB CYC:211  C I  - N
DA13  A9 00     LDA #$00                        A:69 X:F4 Y:00 P:E5 SP:FB CYC:220  C I  -VN
DA15  71 33     ADC ($33),Y = 0400 @ 0400 = 69  A:00 X:F4 Y:00 P:67 SP:FB CYC:226  CZI  -V 
DA17  30 08     BMI $DA21                       A:6A X:F4 Y:00 P:24 SP:FB CYC:241    I  -  
DA19  B0 06     BCS $DA21                       A:6A X:F4 Y:00 P:24 SP:FB CYC:247    I  -  
DA1B  C9 6A     CMP #$6A                        A:6A X:F4 Y:00 P:24 SP:FB CYC:253    I  -  
DA1D  D0 02     BNE $DA21                       A:6A X:F4 Y:00 P:27 SP:FB CYC:259  CZI  -  
DA1F  50 02     BVC $DA23                       A:6A X:F4 Y:00 P:27 SP:FB CYC:265  CZI  -  
DA23  E8        INX                             A:6A X:F4 Y:00 P:27 SP:FB CYC:274  CZI  -  
DA24  38        SEC                             A:6A X:F5 Y:00 P:A5 SP:FB CYC:280  C I  - N
DA25  B8        CLV                             A:6A X:F5 Y:00 P:A5 SP:FB CYC:286  C I  - N
DA26  A9 7F     LDA #$7F                        A:6A X:F5 Y:00 P:A5 SP:FB CYC:292  C I  - N
DA28  8D 00 04  STA $0400 = 69                  A:7F X:F5 Y:00 P:25 SP:FB CYC:298  C I  -  
DA2B  71 33     ADC ($33),Y = 0400 @ 0400 = 7F  A:7F X:F5 Y:00 P:25 SP:FB CYC:310  C I  -  
DA2D  10 08     BPL $DA37                       A:FF X:F5 Y:00 P:E4 SP:FB CYC:325    I  -VN
DA2F  B0 06     BCS $DA37                       A:FF X:F5 Y:00 P:E4 SP:FB CYC:331    I  -VN
DA31  C9 FF     CMP #$FF                        A:FF X:F5 Y:00 P:E4 SP:FB CYC:337    I  -VN
DA33  D0 02     BNE $DA37                       A:FF X:F5 Y:00 P:67 SP:FB CYC:  2  CZI  -V 
DA35  70 02     BVS $DA39                       A:FF X:F5 Y:00 P:67 SP:FB CYC:  8  CZI  -V 
DA39  E8        INX                             A:FF X:F5 Y:00 P:67 SP:FB CYC: 17  CZI  -V 
DA3A  18        CLC                             A:FF X:F6 Y:00 P:E5 SP:FB CYC: 23  C I  -VN
DA3B  24 01     BIT $01 = FF                    A:FF X:F6 Y:00 P:E4 SP:FB CYC: 29    I  -VN
DA3D  A9 80     LDA #$80                        A:FF X:F6 Y:00 P:E4 SP:FB CYC: 38    I  -VN
DA3F  8D 00 04  STA $0400 = 7F                  A:80 X:F6 Y:00 P:E4 SP:FB CYC: 44    I  -VN
DA42  A9 7F     LDA #$7F                        A:80 X:F6 Y:00 P:E4 SP:FB CYC: 56    I  -VN
DA44  71 33     ADC ($33),Y = 0400 @ 0400 = 80  A:7F X:F6 Y:00 P:64 SP:FB CYC: 62    I  -V 
DA46  10 08     BPL $DA50                       A:FF X:F6 Y:00 P:A4 SP:FB CYC: 77    I  - N
DA48  B0 06     BCS $DA50                       A:FF X:F6 Y:00 P:A4 SP:FB CYC: 83    I  - N
DA4A  C9 FF     CMP #$FF                        A:FF X:F6 Y:00 P:A4 SP:FB CYC: 89    I  - N
DA4C  D0 02     BNE $DA50                       A:FF X:F6 Y:00 P:27 SP:FB CYC: 95  CZI  -  
DA4E  50 02     BVC $DA52                       A:FF X:F6 Y:00 P:27 SP:FB CYC:101  CZI  -  
DA52  E8        INX                             A:FF X:F6 Y:00 P:27 SP:FB CYC:110  CZI  -  
DA53  38        SEC                             A:FF X:F7 Y:00 P:A5 SP:FB CYC:116  C I  - N
DA54  B8        CLV                             A:FF X:F7 Y:00 P:A5 SP:FB CYC:122  C I  - N
DA55  A9 80     LDA #$80                        A:FF X:F7 Y:00 P:A5 SP:FB CYC:128  C I  - N
DA57  8D 00 04  STA $0400 = 80                  A:80 X:F7 Y:00 P:A5 SP:FB CYC:134  C I  - N
DA5A  A9 7F     LDA #$7F                        A:80 X:F7 Y:00 P:A5 SP:FB CYC:146  C I  - N
DA5C  71 33     ADC ($33),Y = 0400 @ 0400 = 80  A:7F X:F7 Y:00 P:25 SP:FB CYC:152  C I  -  
DA5E  D0 06     BNE $DA66                       A:00 X:F7 Y:00 P:27 SP:FB CYC:167  CZI  -  
DA60  30 04     BMI $DA66                       A:00 X:F7 Y:00 P:27 SP:FB CYC:173  CZI  -  
DA62  70 02     BVS $DA66                       A:00 X:F7 Y:00 P:27 SP:FB CYC:179  CZI  -  
DA64  B0 02     BCS $DA68                       A:00 X:F7 Y:00 P:27 SP:FB CYC:185  CZI  -  
DA68  E8        INX                             A:00 X:F7 Y:00 P:27 SP:FB CYC:194  CZI  -  
DA69  24 01     BIT $01 = FF                    A:00 X:F8 Y:00 P:A5 SP:FB CYC:200  C I  - N
DA6B  A9 40     LDA #$40                        A:00 X:F8 Y:00 P:E7 SP:FB CYC:209  CZI  -VN
DA6D  8D 00 04  STA $0400 = 80                  A:40 X:F8 Y:00 P:65 SP:FB CYC:215  C I  -V 
DA70  D1 33     CMP ($33),Y = 0400 @ 0400 = 40  A:40 X:F8 Y:00 P:65 SP:FB CYC:227  C I  -V 
DA72  30 06     BMI $DA7A                       A:40 X:F8 Y:00 P:67 SP:FB CYC:242  CZI  -V 
DA74  90 04     BCC $DA7A                       A:40 X:F8 Y:00 P:67 SP:FB CYC:248  CZI  -V 
DA76  D0 02     BNE $DA7A                       A:40 X:F8 Y:00 P:67 SP:FB CYC:254  CZI  -V 
DA78  70 02     BVS $DA7C                       A:40 X:F8 Y:00 P:67 SP:FB CYC:260  CZI  -V 
DA7C  E8        INX                             A:40 X:F8 Y:00 P:67 SP:FB CYC:269  CZI  -V 
DA7D  B8        CLV                             A:40 X:F9 Y:00 P:E5 SP:FB CYC:275  C I  -VN
DA7E  CE 00 04  DEC $0400 = 40                  A:40 X:F9 Y:00 P:A5 SP:FB CYC:281  C I  - N
DA81  D1 33     CMP ($33),Y = 0400 @ 0400 = 3F  A:40 X:F9 Y:00 P:25 SP:FB CYC:299  C I  -  
DA83  F0 06     BEQ $DA8B                       A:40 X:F9 Y:00 P:25 SP:FB CYC:314  C I  -  
DA85  30 04     BMI $DA8B                       A:40 X:F9 Y:00 P:25 SP:FB CYC:320  C I  -  
DA87  90 02     BCC $DA8B                       A:40 X:F9 Y:00 P:25 SP:FB CYC:326  C I  -  
DA89  50 02     BVC $DA8D                       A:40 X:F9 Y:00 P:25 SP:FB CYC:332  C I  -  
DA8D  E8        INX                             A:40 X:F9 Y:00 P:25 SP:FB CYC:  0  C I  -  
DA8E  EE 00 04  INC $0400 = 3F                  A:40 X:FA Y:00 P:A5 SP:FB CYC:  6  C I  - N
DA91  EE 00 04  INC $0400 = 40                  A:40 X:FA Y:00 P:25 SP:FB CYC: 24  C I  -  
DA94  D1 33     CMP ($33),Y = 0400 @ 0400 = 41  A:40 X:FA Y:00 P:25 SP:FB CYC: 42  C I  -  
DA96  F0 02     BEQ $DA9A                       A:40 X:FA Y:00 P:A4 SP:FB CYC: 57    I  - N
DA98  30 02     BMI $DA9C                       A:40 X:FA Y:00 P:A4 SP:FB CYC: 63    I  - N
DA9C  E8        INX                             A:40 X:FA Y:00 P:A4 SP:FB CYC: 72    I  - N
DA9D  A9 00     LDA #$00                        A:40 X:FB Y:00 P:A4 SP:FB CYC: 78    I  - N
DA9F  8D 00 04  STA $0400 = 41                  A:00 X:FB Y:00 P:26 SP:FB CYC: 84   ZI  -  
DAA2  A9 80     LDA #$80                        A:00 X:FB Y:00 P:26 SP:FB CYC: 96   ZI  -  
DAA4  D1 33     CMP ($33),Y = 0400 @ 0400 = 00  A:80 X:FB Y:00 P:A4 SP:FB CYC:102    I  - N
DAA6  F0 04     BEQ $DAAC                       A:80 X:FB Y:00 P:A5 SP:FB CYC:117  C I  - N
DAA8  10 02     BPL $DAAC                       A:80 X:FB Y:00 P:A5 SP:FB CYC:123  C I  - N
DAAA  B0 02     BCS $DAAE                       A:80 X:FB Y:00 P:A5 SP:FB CYC:129  C I  - N
DAAE  E8        INX                             A:80 X:FB Y:00 P:A5 SP:FB CYC:138  C I  - N
DAAF  A0 80     LDY #$80                        A:80 X:FC Y:00 P:A5 SP:FB CYC:144  C I  - N
DAB1  8C 00 04  STY $0400 = 00                  A:80 X:FC Y:80 P:A5 SP:FB CYC:150  C I  - N
DAB4  A0 00     LDY #$00                        A:80 X:FC Y:80 P:A5 SP:FB CYC:162  C I  - N
DAB6  D1 33     CMP ($33),Y = 0400 @ 0400 = 80  A:80 X:FC Y:00 P:27 SP:FB CYC:168  CZI  -  
DAB8  D0 04     BNE $DABE                       A:80 X:FC Y:00 P:27 SP:FB CYC:183  CZI  -  
DABA  30 02     BMI $DABE                       A:80 X:FC Y:00 P:27 SP:FB CYC:189  CZI  -  
DABC  B0 02     BCS $DAC0                       A:80 X:FC Y:00 P:27 SP:FB CYC:195  CZI  -  
DAC0  E8        INX                             A:80 X:FC Y:00 P:27 SP:FB CYC:204  CZI  -  
DAC1  EE 00 04  INC $0400 = 80                  A:80 X:FD Y:00 P:A5 SP:FB CYC:210  C I  - N
DAC4  D1 33     CMP ($33),Y = 0400 @ 0400 = 81  A:80 X:FD Y:00 P:A5 SP:FB CYC:228  C I  - N
DAC6  B0 04     BCS $DACC                       A:80 X:FD Y:00 P:A4 SP:FB CYC:243    I  - N
DAC8  F0 02     BEQ $DACC                       A:80 X:FD Y:00 P:A4 SP:FB CYC:249    I  - N
DACA  30 02     BMI $DACE                       A:80 X:FD Y:00 P:A4 SP:FB CYC:255    I  - N
DACE  E8        INX                             A:80 X:FD Y:00 P:A4 SP:FB CYC:264    I  - N
DACF  CE 00 04  DEC $0400 = 81                  A:80 X:FE Y:00 P:A4 SP:FB CYC:270    I  - N
DAD2  CE 00 04  DEC $0400 = 80                  A:80 X:FE Y:00 P:A4 SP:FB CYC:288    I  - N
DAD5  D1 33     CMP ($33),Y = 0400 @ 0400 = 7F  A:80 X:FE Y:00 P:24 SP:FB CYC:306    I  -  
DAD7  90 04     BCC $DADD                       A:80 X:FE Y:00 P:25 SP:FB CYC:321  C I  -  
DAD9  F0 02     BEQ $DADD                       A:80 X:FE Y:00 P:25 SP:FB CYC:327  C I  -  
DADB  10 02     BPL $DADF                       A:80 X:FE Y:00 P:25 SP:FB CYC:333  C I  -  
DADF  60        RTS                             A:80 X:FE Y:00 P:25 SP:FB CYC:  1  C I  -  
C61B  A5 00     LDA $00 = 00                    A:80 X:FE Y:00 P:25 SP:FD CYC: 19  C I  -  
C61D  85 10     STA $10 = 00                    A:00 X:FE Y:00 P:27 SP:FD CYC: 28  CZI  -  
C61F  A9 00     LDA #$00                        A:00 X:FE Y:00 P:27 SP:FD CYC: 37  CZI  -  
C621  85 00     STA $00 = 00                    A:00 X:FE Y:00 P:27 SP:FD CYC: 43  CZI  -  
C623  20 E0 DA  JSR $DAE0                       A:00 X:FE Y:00 P:27 SP:FD CYC: 52  CZI  -  
DAE0  A9 00     LDA #$00                        A:00 X:FE Y:00 P:27 SP:FB CYC: 70  CZI  -  
DAE2  85 33     STA $33 = 00                    A:00 X:FE Y:00 P:27 SP:FB CYC: 76  CZI  -  
DAE4  A9 04     LDA #$04                        A:00 X:FE Y:00 P:27 SP:FB CYC: 85  CZI  -  
DAE6  85 34     STA $34 = 04                    A:04 X:FE Y:00 P:25 SP:FB CYC: 91  C I  -  
DAE8  A0 00     LDY #$00                        A:04 X:FE Y:00 P:25 SP:FB CYC:100  C I  -  
DAEA  A2 01     LDX #$01                        A:04 X:FE Y:00 P:27 SP:FB CYC:106  CZI  -  
DAEC  24 01     BIT $01 = FF                    A:04 X:01 Y:00 P:25 SP:FB CYC:112  C I  -  
DAEE  A9 40     LDA #$40                        A:04 X:01 Y:00 P:E5 SP:FB CYC:121  C I  -VN
DAF0  8D 00 04  STA $0400 = 7F                  A:40 X:01 Y:00 P:65 SP:FB CYC:127  C I  -V 
DAF3  38        SEC                             A:40 X:01 Y:00 P:65 SP:FB CYC:139  C I  -V 
DAF4  F1 33     SBC ($33),Y = 0400 @ 0400 = 40  A:40 X:01 Y:00 P:65 SP:FB CYC:145  C I  -V 
DAF6  30 0A     BMI $DB02                       A:00 X:01 Y:00 P:27 SP:FB CYC:160  CZI  -  
DAF8  90 08     BCC $DB02                       A:00 X:01 Y:00 P:27 SP:FB CYC:166  CZI  -  
DAFA  D0 06     BNE $DB02                       A:00 X:01 Y:00 P:27 SP:FB CYC:172  CZI  -  
DAFC  70 04     BVS $DB02                       A:00 X:01 Y:00 P:27 SP:FB CYC:178  CZI  -  
DAFE  C9 00     CMP #$00                        A:00 X:01 Y:00 P:27 SP:FB CYC:184  CZI  -  
DB00  F0 02     BEQ $DB04                       A:00 X:01 Y:00 P:27 SP:FB CYC:190  CZI  -  
DB04  E8        INX                             A:00 X:01 Y:00 P:27 SP:FB CYC:199  CZI  -  
DB05  B8        CLV                             A:00 X:02 Y:00 P:25 SP:FB CYC:205  C I  -  
DB06  38        SEC                             A:00 X:02 Y:00 P:25 SP:FB CYC:211  C I  -  
DB07  A9 40     LDA #$40                        A:00 X:02 Y:00 P:25 SP:FB CYC:217  C I  -  
DB09  CE 00 04  DEC $0400 = 40                  A:40 X:02 Y:00 P:25 SP:FB CYC:223  C I  -  
DB0C  F1 33     SBC ($33),Y = 0400 @ 0400 = 3F  A:40 X:02 Y:00 P:25 SP:FB CYC:241  C I  -  
DB0E  F0 0A     BEQ $DB1A                       A:01 X:02 Y:00 P:25 SP:FB CYC:256  C I  -  
DB10  30 08     BMI $DB1A                       A:01 X:02 Y:00 P:25 SP:FB CYC:262  C I  -  
DB12  90 06     BCC $DB1A                       A:01 X:02 Y:00 P:25 SP:FB CYC:268  C I  -  
DB14  70 04     BVS $DB1A                       A:01 X:02 Y:00 P:25 SP:FB CYC:274  C I  -  
DB16  C9 01     CMP #$01                        A:01 X:02 Y:00 P:25 SP:FB CYC:280  C I  -  
DB18  F0 02     BEQ $DB1C                       A:01 X:02 Y:00 P:27 SP:FB CYC:286  CZI  -  
DB1C  E8        INX                             A:01 X:02 Y:00 P:27 SP:FB CYC:295  CZI  -  
DB1D  A9 40     LDA #$40                        A:01 X:03 Y:00 P:25 SP:FB CYC:301  C I  -  
DB1F  38        SEC                             A:40 X:03 Y:00 P:25 SP:FB CYC:307  C I  -  
DB20  24 01     BIT $01 = FF                    A:40 X:03 Y:00 P:25 SP:FB CYC:313  C I  -  
DB22  EE 00 04  INC $0400 = 3F                  A:40 X:03 Y:00 P:E5 SP:FB CYC:322  C I  -VN
DB25  EE 00 04  INC $0400 = 40                  A:40 X:03 Y:00 P:65 SP:FB CYC:340  C I  -V 
DB28  F1 33     SBC ($33),Y = 0400 @ 0400 = 41  A:40 X:03 Y:00 P:65 SP:FB CYC: 17  C I  -V 
DB2A  B0 0A     BCS $DB36                       A:FF X:03 Y:00 P:A4 SP:FB CYC: 32    I  - N
DB2C  F0 08     BEQ $DB36                       A:FF X:03 Y:00 P:A4 SP:FB CYC: 38    I  - N
DB2E  10 06     BPL $DB36                       A:FF X:03 Y:00 P:A4 SP:FB CYC: 44    I  - N
DB30  70 04     BVS $DB36                       A:FF X:03 Y:00 P:A4 SP:FB CYC: 50    I  - N
DB32  C9 FF     CMP #$FF                        A:FF X:03 Y:00 P:A4 SP:FB CYC: 56    I  - N
DB34  F0 02     BEQ $DB38                       A:FF X:03 Y:00 P:27 SP:FB CYC: 62  CZI  -  
DB38  E8        INX                             A:FF X:03 Y:00 P:27 SP:FB CYC: 71  CZI  -  
DB39  18        CLC                             A:FF X:04 Y:00 P:25 SP:FB CYC: 77  C I  -  
DB3A  A9 00     LDA #$00                        A:FF X:04 Y:00 P:24 SP:FB CYC: 83    I  -  
DB3C  8D 00 04  STA $0400 = 41                  A:00 X:04 Y:00 P:26 SP:FB CYC: 89   ZI  -  
DB3F  A9 80     LDA #$80                        A:00 X:04 Y:00 P:26 SP:FB CYC:101   ZI  -  
DB41  F1 33     SBC ($33),Y = 0400 @ 0400 = 00  A:80 X:04 Y:00 P:A4 SP:FB CYC:107    I  - N
DB43  90 04     BCC $DB49                       A:7F X:04 Y:00 P:65 SP:FB CYC:122  C I  -V 
DB45  C9 7F     CMP #$7F                        A:7F X:04 Y:00 P:65 SP:FB CYC:128  C I  -V 
DB47  F0 02     BEQ $DB4B                       A:7F X:04 Y:00 P:67 SP:FB CYC:134  CZI  -V 
DB4B  E8        INX                             A:7F X:04 Y:00 P:67 SP:FB CYC:143  CZI  -V 
DB4C  38        SEC                             A:7F X:05 Y:00 P:65 SP:FB CYC:149  C I  -V 
DB4D  A9 7F     LDA #$7F                        A:7F X:05 Y:00 P:65 SP:FB CYC:155  C I  -V 
DB4F  8D 00 04  STA $0400 = 00                  A:7F X:05 Y:00 P:65 SP:FB CYC:161  C I  -V 
DB52  A9 81     LDA #$81                        A:7F X:05 Y:00 P:65 SP:FB CYC:173  C I  -V 
DB54  F1 33     SBC ($33),Y = 0400 @ 0400 = 7F  A:81 X:05 Y:00 P:E5 SP:FB CYC:179  C I  -VN
DB56  50 06     BVC $DB5E                       A:02 X:05 Y:00 P:65 SP:FB CYC:194  C I  -V 
DB58  90 04     BCC $DB5E                       A:02 X:05 Y:00 P:65 SP:FB CYC:200  C I  -V 
DB5A  C9 02     CMP #$02                        A:02 X:05 Y:00 P:65 SP:FB CYC:206  C I  -V 
DB5C  F0 02     BEQ $DB60                       A:02 X:05 Y:00 P:67 SP:FB CYC:212  CZI  -V 
DB60  E8        INX                             A:02 X:05 Y:00 P:67 SP:FB CYC:221  CZI  -V 
DB61  A9 00     LDA #$00                        A:02 X:06 Y:00 P:65 SP:FB CYC:227  C I  -V 
DB63  A9 87     LDA #$87                        A:00 X:06 Y:00 P:67 SP:FB CYC:233  CZI  -V 
DB65  91 33     STA ($33),Y = 0400 @ 0400 = 7F  A:87 X:06 Y:00 P:E5 SP:FB CYC:239  C I  -VN
DB67  AD 00 04  LDA $0400 = 87                  A:87 X:06 Y:00 P:E5 SP:FB CYC:257  C I  -VN
DB6A  C9 87     CMP #$87                        A:87 X:06 Y:00 P:E5 SP:FB CYC:269  C I  -VN
DB6C  F0 02     BEQ $DB70                       A:87 X:06 Y:00 P:67 SP:FB CYC:275  CZI  -V 
DB70  E8        INX                             A:87 X:06 Y:00 P:67 SP:FB CYC:284  CZI  -V 
DB71  A9 7E     LDA #$7E                        A:87 X:07 Y:00 P:65 SP:FB CYC:290  C I  -V 
DB73  8D 00 02  STA $0200 = 7F                  A:7E X:07 Y:00 P:65 SP:FB CYC:296  C I  -V 
DB76  A9 DB     LDA #$DB                        A:7E X:07 Y:00 P:65 SP:FB CYC:308  C I  -V 
DB78  8D 01 02  STA $0201 = 00                  A:DB X:07 Y:00 P:E5 SP:FB CYC:314  C I  -VN
DB7B  6C 00 02  JMP ($0200) = DB7E              A:DB X:07 Y:00 P:E5 SP:FB CYC:326  C I  -VN
DB7E  A9 00     LDA #$00                        A:DB X:07 Y:00 P:E5 SP:FB CYC:  0  C I  -VN
DB80  8D FF 02  STA $02FF = 00                  A:00 X:07 Y:00 P:67 SP:FB CYC:  6  CZI  -V 
DB83  A9 01     LDA #$01                        A:00 X:07 Y:00 P:67 SP:FB CYC: 18  CZI  -V 
DB85  8D 00 03  STA $0300 = 89                  A:01 X:07 Y:00 P:65 SP:FB CYC: 24  C I  -V 
DB88  A9 03     LDA #$03                        A:01 X:07 Y:00 P:65 SP:FB CYC: 36  C I  -V 
DB8A  8D 00 02  STA $0200 = 7E                  A:03 X:07 Y:00 P:65 SP:FB CYC: 42  C I  -V 
DB8D  A9 A9     LDA #$A9                        A:03 X:07 Y:00 P:65 SP:FB CYC: 54  C I  -V 
DB8F  8D 00 01  STA $0100 = 00                  A:A9 X:07 Y:00 P:E5 SP:FB CYC: 60  C I  -VN
DB92  A9 55     LDA #$55                        A:A9 X:07 Y:00 P:E5 SP:FB CYC: 72  C I  -VN
DB94  8D 01 01  STA $0101 = 00                  A:55 X:07 Y:00 P:65 SP:FB CYC: 78  C I  -V 
DB97  A9 60     LDA #$60                        A:55 X:07 Y:00 P:65 SP:FB CYC: 90  C I  -V 
DB99  8D 02 01  STA $0102 = 00                  A:60 X:07 Y:00 P:65 SP:FB CYC: 96  C I  -V 
DB9C  A9 A9     LDA #$A9                        A:60 X:07 Y:00 P:65 SP:FB CYC:108  C I  -V 
DB9E  8D 00 03  STA $0300 = 01                  A:A9 X:07 Y:00 P:E5 SP:FB CYC:114  C I  -VN
DBA1  A9 AA     LDA #$AA                        A:A9 X:07 Y:00 P:E5 SP:FB CYC:126  C I  -VN
DBA3  8D 01 03  STA $0301 = 00                  A:AA X:07 Y:00 P:E5 SP:FB CYC:132  C I  -VN
DBA6  A9 60     LDA #$60                        A:AA X:07 Y:00 P:E5 SP:FB CYC:144  C I  -VN
DBA8  8D 02 03  STA $0302 = 00                  A:60 X:07 Y:00 P:65 SP:FB CYC:150  C I  -V 
DBAB  20 B5 DB  JSR $DBB5                       A:60 X:07 Y:00 P:65 SP:FB CYC:162  C I  -V 
DBB5  6C FF 02  JMP ($02FF) = 0300              A:60 X:07 Y:00 P:65 SP:F9 CYC:180  C I  -V 
0300  A9 AA     LDA #$AA                        A:60 X:07 Y:00 P:65 SP:F9 CYC:195  C I  -V 
0302  60        RTS                             A:AA X:07 Y:00 P:E5 SP:F9 CYC:201  C I  -VN
DBAE  C9 AA     CMP #$AA                        A:AA X:07 Y:00 P:E5 SP:FB CYC:219  C I  -VN
DBB0  F0 02     BEQ $DBB4                       A:AA X:07 Y:00 P:67 SP:FB CYC:225  CZI  -V 
DBB4  60        RTS                             A:AA X:07 Y:00 P:67 SP:FB CYC:234  CZI  -V 
C626  20 4A DF  JSR $DF4A                       A:AA X:07 Y:00 P:67 SP:FD CYC:252  CZI  -V 
DF4A  A9 89     LDA #$89                        A:AA X:07 Y:00 P:67 SP:FB CYC:270  CZI  -V 
DF4C  8D 00 03  STA $0300 = A9                  A:89 X:07 Y:00 P:E5 SP:FB CYC:276  C I  -VN
DF4F  A9 A3     LDA #$A3                        A:89 X:07 Y:00 P:E5 SP:FB CYC:288  C I  -VN
DF51  85 33     STA $33 = 00                    A:A3 X:07 Y:00 P:E5 SP:FB CYC:294  C I  -VN
DF53  A9 12     LDA #$12                        A:A3 X:07 Y:00 P:E5 SP:FB CYC:303  C I  -VN
DF55  8D 45 02  STA $0245 = 12                  A:12 X:07 Y:00 P:65 SP:FB CYC:309  C I  -V 
DF58  A2 65     LDX #$65                        A:12 X:07 Y:00 P:65 SP:FB CYC:321  C I  -V 
DF5A  A0 00     LDY #$00                        A:12 X:65 Y:00 P:65 SP:FB CYC:327  C I  -V 
DF5C  38        SEC                             A:12 X:65 Y:00 P:67 SP:FB CYC:333  CZI  -V 
DF5D  A9 00     LDA #$00                        A:12 X:65 Y:00 P:67 SP:FB CYC:339  CZI  -V 
DF5F  B8        CLV                             A:00 X:65 Y:00 P:67 SP:FB CYC:  4  CZI  -V 
DF60  B9 00 03  LDA $0300,Y @ 0300 = 89         A:00 X:65 Y:00 P:27 SP:FB CYC: 10  CZI  -  
DF63  F0 0C     BEQ $DF71                       A:89 X:65 Y:00 P:A5 SP:FB CYC: 22  C I  - N
DF65  90 0A     BCC $DF71                       A:89 X:65 Y:00 P:A5 SP:FB CYC: 28  C I  - N
DF67  70 08     BVS $DF71                       A:89 X:65 Y:00 P:A5 SP:FB CYC: 34  C I  - N
DF69  C9 89     CMP #$89                        A:89 X:65 Y:00 P:A5 SP:FB CYC: 40  C I  - N
DF6B  D0 04     BNE $DF71                       A:89 X:65 Y:00 P:27 SP:FB CYC: 46  CZI  -  
DF6D  E0 65     CPX #$65                        A:89 X:65 Y:00 P:27 SP:FB CYC: 52  CZI  -  
DF6F  F0 04     BEQ $DF75                       A:89 X:65 Y:00 P:27 SP:FB CYC: 58  CZI  -  
DF75  A9 FF     LDA #$FF                        A:89 X:65 Y:00 P:27 SP:FB CYC: 67  CZI  -  
DF77  85 01     STA $01 = FF                    A:FF X:65 Y:00 P:A5 SP:FB CYC: 73  C I  - N
DF79  24 01     BIT $01 = FF                    A:FF X:65 Y:00 P:A5 SP:FB CYC: 82  C I  - N
DF7B  A0 34     LDY #$34                        A:FF X:65 Y:00 P:E5 SP:FB CYC: 91  C I  -VN
DF7D  B9 FF FF  LDA $FFFF,Y @ 0033 = A3         A:FF X:65 Y:34 P:65 SP:FB CYC: 97  C I  -V 
DF80  C9 A3     CMP #$A3                        A:A3 X:65 Y:34 P:E5 SP:FB CYC:112  C I  -VN
DF82  D0 02     BNE $DF86                       A:A3 X:65 Y:34 P:67 SP:FB CYC:118  CZI  -V 
DF84  B0 04     BCS $DF8A                       A:A3 X:65 Y:34 P:67 SP:FB CYC:124  CZI  -V 
DF8A  A9 46     LDA #$46                        A:A3 X:65 Y:34 P:67 SP:FB CYC:133  CZI  -V 
DF8C  85 FF     STA $FF = 46                    A:46 X:65 Y:34 P:65 SP:FB CYC:139  C I  -V 
DF8E  A0 FF     LDY #$FF                        A:46 X:65 Y:34 P:65 SP:FB CYC:148  C I  -V 
DF90  B9 46 01  LDA $0146,Y @ 0245 = 12         A:46 X:65 Y:FF P:E5 SP:FB CYC:154  C I  -VN
DF93  C9 12     CMP #$12                        A:12 X:65 Y:FF P:65 SP:FB CYC:169  C I  -V 
DF95  F0 04     BEQ $DF9B                       A:12 X:65 Y:FF P:67 SP:FB CYC:175  CZI  -V 
DF9B  A2 39     LDX #$39                        A:12 X:65 Y:FF P:67 SP:FB CYC:184  CZI  -V 
DF9D  18        CLC                             A:12 X:39 Y:FF P:65 SP:FB CYC:190  C I  -V 
DF9E  A9 FF     LDA #$FF                        A:12 X:39 Y:FF P:64 SP:FB CYC:196    I  -V 
DFA0  85 01     STA $01 = FF                    A:FF X:39 Y:FF P:E4 SP:FB CYC:202    I  -VN
DFA2  24 01     BIT $01 = FF                    A:FF X:39 Y:FF P:E4 SP:FB CYC:211    I  -VN
DFA4  A9 AA     LDA #$AA                        A:FF X:39 Y:FF P:E4 SP:FB CYC:220    I  -VN
DFA6  8D 00 04  STA $0400 = 87                  A:AA X:39 Y:FF P:E4 SP:FB CYC:226    I  -VN
DFA9  A9 55     LDA #$55                        A:AA X:39 Y:FF P:E4 SP:FB CYC:238    I  -VN
DFAB  A0 00     LDY #$00                        A:55 X:39 Y:FF P:64 SP:FB CYC:244    I  -V 
DFAD  19 00 04  ORA $0400,Y @ 0400 = AA         A:55 X:39 Y:00 P:66 SP:FB CYC:250   ZI  -V 
DFB0  B0 08     BCS $DFBA                       A:FF X:39 Y:00 P:E4 SP:FB CYC:262    I  -VN
DFB2  10 06     BPL $DFBA                       A:FF X:39 Y:00 P:E4 SP:FB CYC:268    I  -VN
DFB4  C9 FF     CMP #$FF                        A:FF X:39 Y:00 P:E4 SP:FB CYC:274    I  -VN
DFB6  D0 02     BNE $DFBA                       A:FF X:39 Y:00 P:67 SP:FB CYC:280  CZI  -V 
DFB8  70 02     BVS $DFBC                       A:FF X:39 Y:00 P:67 SP:FB CYC:286  CZI  -V 
DFBC  E8        INX                             A:FF X:39 Y:00 P:67 SP:FB CYC:295  CZI  -V 
DFBD  38        SEC                             A:FF X:3A Y:00 P:65 SP:FB CYC:301  C I  -V 
DFBE  B8        CLV                             A:FF X:3A Y:00 P:65 SP:FB CYC:307  C I  -V 
DFBF  A9 00     LDA #$00                        A:FF X:3A Y:00 P:25 SP:FB CYC:313  C I  -  
DFC1  19 00 04  ORA $0400,Y @ 0400 = AA         A:00 X:3A Y:00 P:27 SP:FB CYC:319  CZI  -  
DFC4  F0 06     BEQ $DFCC                       A:AA X:3A Y:00 P:A5 SP:FB CYC:331  C I  - N
DFC6  70 04     BVS $DFCC                       A:AA X:3A Y:00 P:A5 SP:FB CYC:337  C I  - N
DFC8  90 02     BCC $DFCC                       A:AA X:3A Y:00 P:A5 SP:FB CYC:  2  C I  - N
DFCA  30 02     BMI $DFCE                       A:AA X:3A Y:00 P:A5 SP:FB CYC:  8  C I  - N
DFCE  E8        INX                             A:AA X:3A Y:00 P:A5 SP:FB CYC: 17  C I  - N
DFCF  18        CLC                             A:AA X:3B Y:00 P:25 SP:FB CYC: 23  C I  -  
DFD0  24 01     BIT $01 = FF                    A:AA X:3B Y:00 P:24 SP:FB CYC: 29    I  -  
DFD2  A9 55     LDA #$55                        A:AA X:3B Y:00 P:E4 SP:FB CYC: 38    I  -VN
DFD4  39 00 04  AND $0400,Y @ 0400 = AA         A:55 X:3B Y:00 P:64 SP:FB CYC: 44    I  -V 
DFD7  D0 06     BNE $DFDF                       A:00 X:3B Y:00 P:66 SP:FB CYC: 56   ZI  -V 
DFD9  50 04     BVC $DFDF                       A:00 X:3B Y:00 P:66 SP:FB CYC: 62   ZI  -V 
DFDB  B0 02     BCS $DFDF                       A:00 X:3B Y:00 P:66 SP:FB CYC: 68   ZI  -V 
DFDD  10 02     BPL $DFE1                       A:00 X:3B Y:00 P:66 SP:FB CYC: 74   ZI  -V 
DFE1  E8        INX                             A:00 X:3B Y:00 P:66 SP:FB CYC: 83   ZI  -V 
DFE2  38        SEC                             A:00 X:3C Y:00 P:64 SP:FB CYC: 89    I  -V 
DFE3  B8        CLV                             A:00 X:3C Y:00 P:65 SP:FB CYC: 95  C I  -V 
DFE4  A9 EF     LDA #$EF                        A:00 X:3C Y:00 P:25 SP:FB CYC:101  C I  -  
DFE6  8D 00 04  STA $0400 = AA                  A:EF X:3C Y:00 P:A5 SP:FB CYC:107  C I  - N
DFE9  A9 F8     LDA #$F8                        A:EF X:3C Y:00 P:A5 SP:FB CYC:119  C I  - N
DFEB  39 00 04  AND $0400,Y @ 0400 = EF         A:F8 X:3C Y:00 P:A5 SP:FB CYC:125  C I  - N
DFEE  90 08     BCC $DFF8                       A:E8 X:3C Y:00 P:A5 SP:FB CYC:137  C I  - N
DFF0  10 06     BPL $DFF8                       A:E8 X:3C Y:00 P:A5 SP:FB CYC:143  C I  - N
DFF2  C9 E8     CMP #$E8                        A:E8 X:3C Y:00 P:A5 SP:FB CYC:149  C I  - N
DFF4  D0 02     BNE $DFF8                       A:E8 X:3C Y:00 P:27 SP:FB CYC:155  CZI  -  
DFF6  50 02     BVC $DFFA                       A:E8 X:3C Y:00 P:27 SP:FB CYC:161  CZI  -  
DFFA  E8        INX                             A:E8 X:3C Y:00 P:27 SP:FB CYC:170  CZI  -  
DFFB  18        CLC                             A:E8 X:3D Y:00 P:25 SP:FB CYC:176  C I  -  
DFFC  24 01     BIT $01 = FF                    A:E8 X:3D Y:00 P:24 SP:FB CYC:182    I  -  
DFFE  A9 AA     LDA #$AA                        A:E8 X:3D Y:00 P:E4 SP:FB CYC:191    I  -VN
E000  8D 00 04  STA $0400 = EF                  A:AA X:3D Y:00 P:E4 SP:FB CYC:197    I  -VN
E003  A9 5F     LDA #$5F                        A:AA X:3D Y:00 P:E4 SP:FB CYC:209    I  -VN
E005  59 00 04  EOR $0400,Y @ 0400 = AA         A:5F X:3D Y:00 P:64 SP:FB CYC:215    I  -V 
E008  B0 08     BCS $E012                       A:F5 X:3D Y:00 P:E4 SP:FB CYC:227    I  -VN
E00A  10 06     BPL $E012                       A:F5 X:3D Y:00 P:E4 SP:FB CYC:233    I  -VN
E00C  C9 F5     CMP #$F5                        A:F5 X:3D Y:00 P:E4 SP:FB CYC:239    I  -VN
E00E  D0 02     BNE $E012                       A:F5 X:3D Y:00 P:67 SP:FB CYC:245  CZI  -V 
E010  70 02     BVS $E014                       A:F5 X:3D Y:00 P:67 SP:FB CYC:251  CZI  -V 
E014  E8        INX                             A:F5 X:3D Y:00 P:67 SP:FB CYC:260  CZI  -V 
E015  38        SEC                             A:F5 X:3E Y:00 P:65 SP:FB CYC:266  C I  -V 
E016  B8        CLV                             A:F5 X:3E Y:00 P:65 SP:FB CYC:272  C I  -V 
E017  A9 70     LDA #$70                        A:F5 X:3E Y:00 P:25 SP:FB CYC:278  C I  -  
E019  8D 00 04  STA $0400 = AA                  A:70 X:3E Y:00 P:25 SP:FB CYC:284  C I  -  
E01C  59 00 04  EOR $0400,Y @ 0400 = 70         A:70 X:3E Y:00 P:25 SP:FB CYC:296  C I  -  
E01F  D0 06     BNE $E027                       A:00 X:3E Y:00 P:27 SP:FB CYC:308  CZI  -  
E021  70 04     BVS $E027                       A:00 X:3E Y:00 P:27 SP:FB CYC:314  CZI  -  
E023  90 02     BCC $E027                       A:00 X:3E Y:00 P:27 SP:FB CYC:320  CZI  -  
E025  10 02     BPL $E029                       A:00 X:3E Y:00 P:27 SP:FB CYC:326  CZI  -  
E029  E8        INX                             A:00 X:3E Y:00 P:27 SP:FB CYC:335  CZI  -  
E02A  18        CLC                             A:00 X:3F Y:00 P:25 SP:FB CYC:  0  C I  -  
E02B  24 01     BIT $01 = FF                    A:00 X:3F Y:00 P:24 SP:FB CYC:  6    I  -  
E02D  A9 69     LDA #$69                        A:00 X:3F Y:00 P:E6 SP:FB CYC: 15   ZI  -VN
E02F  8D 00 04  STA $0400 = 70                  A:69 X:3F Y:00 P:64 SP:FB CYC: 21    I  -V 
E032  A9 00     LDA #$00                        A:69 X:3F Y:00 P:64 SP:FB CYC: 33    I  -V 
E034  79 00 04  ADC $0400,Y @ 0400 = 69         A:00 X:3F Y:00 P:66 SP:FB CYC: 39   ZI  -V 
E037  30 08     BMI $E041                       A:69 X:3F Y:00 P:24 SP:FB CYC: 51    I  -  
E039  B0 06     BCS $E041                       A:69 X:3F Y:00 P:24 SP:FB CYC: 57    I  -  
E03B  C9 69     CMP #$69                        A:69 X:3F Y:00 P:24 SP:FB CYC: 63    I  -  
E03D  D0 02     BNE $E041                       A:69 X:3F Y:00 P:27 SP:FB CYC: 69  CZI  -  
E03F  50 02     BVC $E043                       A:69 X:3F Y:00 P:27 SP:FB CYC: 75  CZI  -  
E043  E8        INX                             A:69 X:3F Y:00 P:27 SP:FB CYC: 84  CZI  -  
E044  38        SEC                             A:69 X:40 Y:00 P:25 SP:FB CYC: 90  C I  -  
E045  24 01     BIT $01 = FF                    A:69 X:40 Y:00 P:25 SP:FB CYC: 96  C I  -  
E047  A9 00     LDA #$00                        A:69 X:40 Y:00 P:E5 SP:FB CYC:105  C I  -VN
E049  79 00 04  ADC $0400,Y @ 0400 = 69         A:00 X:40 Y:00 P:67 SP:FB CYC:111  CZI  -V 
E04C  30 08     BMI $E056                       A:6A X:40 Y:00 P:24 SP:FB CYC:123    I  -  
E04E  B0 06     BCS $E056                       A:6A X:40 Y:00 P:24 SP:FB CYC:129    I  -  
E050  C9 6A     CMP #$6A                        A:6A X:40 Y:00 P:24 SP:FB CYC:135    I  -  
E052  D0 02     BNE $E056                       A:6A X:40 Y:00 P:27 SP:FB CYC:141  CZI  -  
E054  50 02     BVC $E058                       A:6A X:40 Y:00 P:27 SP:FB CYC:147  CZI  -  
E058  E8        INX                             A:6A X:40 Y:00 P:27 SP:FB CYC:156  CZI  -  
E059  38        SEC                             A:6A X:41 Y:00 P:25 SP:FB CYC:162  C I  -  
E05A  B8        CLV                             A:6A X:41 Y:00 P:25 SP:FB CYC:168  C I  -  
E05B  A9 7F     LDA #$7F                        A:6A X:41 Y:00 P:25 SP:FB CYC:174  C I  -  
E05D  8D 00 04  STA $0400 = 69                  A:7F X:41 Y:00 P:25 SP:FB CYC:180  C I  -  
E060  79 00 04  ADC $0400,Y @ 0400 = 7F         A:7F X:41 Y:00 P:25 SP:FB CYC:192  C I  -  
E063  10 08     BPL $E06D                       A:FF X:41 Y:00 P:E4 SP:FB CYC:204    I  -VN
E065  B0 06     BCS $E06D                       A:FF X:41 Y:00 P:E4 SP:FB CYC:210    I  -VN
E067  C9 FF     CMP #$FF                        A:FF X:41 Y:00 P:E4 SP:FB CYC:216    I  -VN
E069  D0 02     BNE $E06D                       A:FF X:41 Y:00 P:67 SP:FB CYC:222  CZI  -V 
E06B  70 02     BVS $E06F                       A:FF X:41 Y:00 P:67 SP:FB CYC:228  CZI  -V 
E06F  E8        INX                             A:FF X:41 Y:00 P:67 SP:FB CYC:237  CZI  -V 
E070  18        CLC                             A:FF X:42 Y:00 P:65 SP:FB CYC:243  C I  -V 
E071  24 01     BIT $01 = FF                    A:FF X:42 Y:00 P:64 SP:FB CYC:249    I  -V 
E073  A9 80     LDA #$80                        A:FF X:42 Y:00 P:E4 SP:FB CYC:258    I  -VN
E075  8D 00 04  STA $0400 = 7F                  A:80 X:42 Y:00 P:E4 SP:FB CYC:264    I  -VN
E078  A9 7F     LDA #$7F                        A:80 X:42 Y:00 P:E4 SP:FB CYC:276    I  -VN
E07A  79 00 04  ADC $0400,Y @ 0400 = 80         A:7F X:42 Y:00 P:64 SP:FB CYC:282    I  -V 
E07D  10 08     BPL $E087                       A:FF X:42 Y:00 P:A4 SP:FB CYC:294    I  - N
E07F  B0 06     BCS $E087                       A:FF X:42 Y:00 P:A4 SP:FB CYC:300    I  - N
E081  C9 FF     CMP #$FF                        A:FF X:42 Y:00 P:A4 SP:FB CYC:306    I  - N
E083  D0 02     BNE $E087                       A:FF X:42 Y:00 P:27 SP:FB CYC:312  CZI  -  
E085  50 02     BVC $E089                       A:FF X:42 Y:00 P:27 SP:FB CYC:318  CZI  -  
E089  E8        INX                             A:FF X:42 Y:00 P:27 SP:FB CYC:327  CZI  -  
E08A  38        SEC                             A:FF X:43 Y:00 P:25 SP:FB CYC:333  C I  -  
E08B  B8        CLV                             A:FF X:43 Y:00 P:25 SP:FB CYC:339  C I  -  
E08C  A9 80     LDA #$80                        A:FF X:43 Y:00 P:25 SP:FB CYC:  4  C I  -  
E08E  8D 00 04  STA $0400 = 80                  A:80 X:43 Y:00 P:A5 SP:FB CYC: 10  C I  - N
E091  A9 7F     LDA #$7F                        A:80 X:43 Y:00 P:A5 SP:FB CYC: 22  C I  - N
E093  79 00 04  ADC $0400,Y @ 0400 = 80         A:7F X:43 Y:00 P:25 SP:FB CYC: 28  C I  -  
E096  D0 06     BNE $E09E                       A:00 X:43 Y:00 P:27 SP:FB CYC: 40  CZI  -  
E098  30 04     BMI $E09E                       A:00 X:43 Y:00 P:27 SP:FB CYC: 46  CZI  -  
E09A  70 02     BVS $E09E                       A:00 X:43 Y:00 P:27 SP:FB CYC: 52  CZI  -  
E09C  B0 02     BCS $E0A0                       A:00 X:43 Y:00 P:27 SP:FB CYC: 58  CZI  -  
E0A0  E8        INX                             A:00 X:43 Y:00 P:27 SP:FB CYC: 67  CZI  -  
E0A1  24 01     BIT $01 = FF                    A:00 X:44 Y:00 P:25 SP:FB CYC: 73  C I  -  
E0A3  A9 40     LDA #$40                        A:00 X:44 Y:00 P:E7 SP:FB CYC: 82  CZI  -VN
E0A5  8D 00 04  STA $0400 = 80                  A:40 X:44 Y:00 P:65 SP:FB CYC: 88  C I  -V 
E0A8  D9 00 04  CMP $0400,Y @ 0400 = 40         A:40 X:44 Y:00 P:65 SP:FB CYC:100  C I  -V 
E0AB  30 06     BMI $E0B3                       A:40 X:44 Y:00 P:67 SP:FB CYC:112  CZI  -V 
E0AD  90 04     BCC $E0B3                       A:40 X:44 Y:00 P:67 SP:FB CYC:118  CZI  -V 
E0AF  D0 02     BNE $E0B3                       A:40 X:44 Y:00 P:67 SP:FB CYC:124  CZI  -V 
E0B1  70 02     BVS $E0B5                       A:40 X:44 Y:00 P:67 SP:FB CYC:130  CZI  -V 
E0B5  E8        INX                             A:40 X:44 Y:00 P:67 SP:FB CYC:139  CZI  -V 
E0B6  B8        CLV                             A:40 X:45 Y:00 P:65 SP:FB CYC:145  C I  -V 
E0B7  CE 00 04  DEC $0400 = 40                  A:40 X:45 Y:00 P:25 SP:FB CYC:151  C I  -  
E0BA  D9 00 04  CMP $0400,Y @ 0400 = 3F         A:40 X:45 Y:00 P:25 SP:FB CYC:169  C I  -  
E0BD  F0 06     BEQ $E0C5                       A:40 X:45 Y:00 P:25 SP:FB CYC:181  C I  -  
E0BF  30 04     BMI $E0C5                       A:40 X:45 Y:00 P:25 SP:FB CYC:187  C I  -  
E0C1  90 02     BCC $E0C5                       A:40 X:45 Y:00 P:25 SP:FB CYC:193  C I  -  
E0C3  50 02     BVC $E0C7                       A:40 X:45 Y:00 P:25 SP:FB CYC:199  C I  -  
E0C7  E8        INX                             A:40 X:45 Y:00 P:25 SP:FB CYC:208  C I  -  
E0C8  EE 00 04  INC $0400 = 3F                  A:40 X:46 Y:00 P:25 SP:FB CYC:214  C I  -  
E0CB  EE 00 04  INC $0400 = 40                  A:40 X:46 Y:00 P:25 SP:FB CYC:232  C I  -  
E0CE  D9 00 04  CMP $0400,Y @ 0400 = 41         A:40 X:46 Y:00 P:25 SP:FB CYC:250  C I  -  
E0D1  F0 02     BEQ $E0D5                       A:40 X:46 Y:00 P:A4 SP:FB CYC:262    I  - N
E0D3  30 02     BMI $E0D7                       A:40 X:46 Y:00 P:A4 SP:FB CYC:268    I  - N
E0D7  E8        INX                             A:40 X:46 Y:00 P:A4 SP:FB CYC:277    I  - N
E0D8  A9 00     LDA #$00                        A:40 X:47 Y:00 P:24 SP:FB CYC:283    I  -  
E0DA  8D 00 04  STA $0400 = 41                  A:00 X:47 Y:00 P:26 SP:FB CYC:289   ZI  -  
E0DD  A9 80     LDA #$80                        A:00 X:47 Y:00 P:26 SP:FB CYC:301   ZI  -  
E0DF  D9 00 04  CMP $0400,Y @ 0400 = 00         A:80 X:47 Y:00 P:A4 SP:FB CYC:307    I  - N
E0E2  F0 04     BEQ $E0E8                       A:80 X:47 Y:00 P:A5 SP:FB CYC:319  C I  - N
E0E4  10 02     BPL $E0E8                       A:80 X:47 Y:00 P:A5 SP:FB CYC:325  C I  - N
E0E6  B0 02     BCS $E0EA                       A:80 X:47 Y:00 P:A5 SP:FB CYC:331  C I  - N
E0EA  E8        INX                             A:80 X:47 Y:00 P:A5 SP:FB CYC:340  C I  - N
E0EB  A0 80     LDY #$80                        A:80 X:48 Y:00 P:25 SP:FB CYC:  5  C I  -  
E0ED  8C 00 04  STY $0400 = 00                  A:80 X:48 Y:80 P:A5 SP:FB CYC: 11  C I  - N
E0F0  A0 00     LDY #$00                        A:80 X:48 Y:80 P:A5 SP:FB CYC: 23  C I  - N
E0F2  D9 00 04  CMP $0400,Y @ 0400 = 80         A:80 X:48 Y:00 P:27 SP:FB CYC: 29  CZI  -  
E0F5  D0 04     BNE $E0FB                       A:80 X:48 Y:00 P:27 SP:FB CYC: 41  CZI  -  
E0F7  30 02     BMI $E0FB                       A:80 X:48 Y:00 P:27 SP:FB CYC: 47  CZI  -  
E0F9  B0 02     BCS $E0FD                       A:80 X:48 Y:00 P:27 SP:FB CYC: 53  CZI  -  
E0FD  E8        INX                             A:80 X:48 Y:00 P:27 SP:FB CYC: 62  CZI  -  
E0FE  EE 00 04  INC $0400 = 80                  A:80 X:49 Y:00 P:25 SP:FB CYC: 68  C I  -  
E101  D9 00 04  CMP $0400,Y @ 0400 = 81         A:80 X:49 Y:00 P:A5 SP:FB CYC: 86  C I  - N
E104  B0 04     BCS $E10A                       A:80 X:49 Y:00 P:A4 SP:FB CYC: 98    I  - N
E106  F0 02     BEQ $E10A                       A:80 X:49 Y:00 P:A4 SP:FB CYC:104    I  - N
E108  30 02     BMI $E10C                       A:80 X:49 Y:00 P:A4 SP:FB CYC:110    I  - N
E10C  E8        INX                             A:80 X:49 Y:00 P:A4 SP:FB CYC:119    I  - N
E10D  CE 00 04  DEC $0400 = 81                  A:80 X:4A Y:00 P:24 SP:FB CYC:125    I  -  
E110  CE 00 04  DEC $0400 = 80                  A:80 X:4A Y:00 P:A4 SP:FB CYC:143    I  - N
E113  D9 00 04  CMP $0400,Y @ 0400 = 7F         A:80 X:4A Y:00 P:24 SP:FB CYC:161    I  -  
E116  90 04     BCC $E11C                       A:80 X:4A Y:00 P:25 SP:FB CYC:173  C I  -  
E118  F0 02     BEQ $E11C                       A:80 X:4A Y:00 P:25 SP:FB CYC:179  C I  -  
E11A  10 02     BPL $E11E                       A:80 X:4A Y:00 P:25 SP:FB CYC:185  C I  -  
E11E  E8        INX                             A:80 X:4A Y:00 P:25 SP:FB CYC:194  C I  -  
E11F  24 01     BIT $01 = FF                    A:80 X:4B Y:00 P:25 SP:FB CYC:200  C I  -  
E121  A9 40     LDA #$40                        A:80 X:4B Y:00 P:E5 SP:FB CYC:209  C I  -VN
E123  8D 00 04  STA $0400 = 7F                  A:40 X:4B Y:00 P:65 SP:FB CYC:215  C I  -V 
E126  38        SEC                             A:40 X:4B Y:00 P:65 SP:FB CYC:227  C I  -V 
E127  F9 00 04  SBC $0400,Y @ 0400 = 40         A:40 X:4B Y:00 P:65 SP:FB CYC:233  C I  -V 
E12A  30 0A     BMI $E136                       A:00 X:4B Y:00 P:27 SP:FB CYC:245  CZI  -  
E12C  90 08     BCC $E136                       A:00 X:4B Y:00 P:27 SP:FB CYC:251  CZI  -  
E12E  D0 06     BNE $E136                       A:00 X:4B Y:00 P:27 SP:FB CYC:257  CZI  -  
E130  70 04     BVS $E136                       A:00 X:4B Y:00 P:27 SP:FB CYC:263  CZI  -  
E132  C9 00     CMP #$00                        A:00 X:4B Y:00 P:27 SP:FB CYC:269  CZI  -  
E134  F0 02     BEQ $E138                       A:00 X:4B Y:00 P:27 SP:FB CYC:275  CZI  -  
E138  E8        INX                             A:00 X:4B Y:00 P:27 SP:FB CYC:284  CZI  -  
E139  B8        CLV                             A:00 X:4C Y:00 P:25 SP:FB CYC:290  C I  -  
E13A  38        SEC                             A:00 X:4C Y:00 P:25 SP:FB CYC:296  C I  -  
E13B  A9 40     LDA #$40                        A:00 X:4C Y:00 P:25 SP:FB CYC:302  C I  -  
E13D  CE 00 04  DEC $0400 = 40                  A:40 X:4C Y:00 P:25 SP:FB CYC:308  C I  -  
E140  F9 00 04  SBC $0400,Y @ 0400 = 3F         A:40 X:4C Y:00 P:25 SP:FB CYC:326  C I  -  
E143  F0 0A     BEQ $E14F                       A:01 X:4C Y:00 P:25 SP:FB CYC:338  C I  -  
E145  30 08     BMI $E14F                       A:01 X:4C Y:00 P:25 SP:FB CYC:  3  C I  -  
E147  90 06     BCC $E14F                       A:01 X:4C Y:00 P:25 SP:FB CYC:  9  C I  -  
E149  70 04     BVS $E14F                       A:01 X:4C Y:00 P:25 SP:FB CYC: 15  C I  -  
E14B  C9 01     CMP #$01                        A:01 X:4C Y:00 P:25 SP:FB CYC: 21  C I  -  
E14D  F0 02     BEQ $E151                       A:01 X:4C Y:00 P:27 SP:FB CYC: 27  CZI  -  
E151  E8        INX                             A:01 X:4C Y:00 P:27 SP:FB CYC: 36  CZI  -  
E152  A9 40     LDA #$40                        A:01 X:4D Y:00 P:25 SP:FB CYC: 42  C I  -  
E154  38        SEC                             A:40 X:4D Y:00 P:25 SP:FB CYC: 48  C I  -  
E155  24 01     BIT $01 = FF                    A:40 X:4D Y:00 P:25 SP:FB CYC: 54  C I  -  
E157  EE 00 04  INC $0400 = 3F                  A:40 X:4D Y:00 P:E5 SP:FB CYC: 63  C I  -VN
E15A  EE 00 04  INC $0400 = 40                  A:40 X:4D Y:00 P:65 SP:FB CYC: 81  C I  -V 
E15D  F9 00 04  SBC $0400,Y @ 0400 = 41         A:40 X:4D Y:00 P:65 SP:FB CYC: 99  C I  -V 
E160  B0 0A     BCS $E16C                       A:FF X:4D Y:00 P:A4 SP:FB CYC:111    I  - N
E162  F0 08     BEQ $E16C                       A:FF X:4D Y:00 P:A4 SP:FB CYC:117    I  - N
E164  10 06     BPL $E16C                       A:FF X:4D Y:00 P:A4 SP:FB CYC:123    I  - N
E166  70 04     BVS $E16C                       A:FF X:4D Y:00 P:A4 SP:FB CYC:129    I  - N
E168  C9 FF     CMP #$FF                        A:FF X:4D Y:00 P:A4 SP:FB CYC:135    I  - N
E16A  F0 02     BEQ $E16E                       A:FF X:4D Y:00 P:27 SP:FB CYC:141  CZI  -  
E16E  E8        INX                             A:FF X:4D Y:00 P:27 SP:FB CYC:150  CZI  -  
E16F  18        CLC                             A:FF X:4E Y:00 P:25 SP:FB CYC:156  C I  -  
E170  A9 00     LDA #$00                        A:FF X:4E Y:00 P:24 SP:FB CYC:162    I  -  
E172  8D 00 04  STA $0400 = 41                  A:00 X:4E Y:00 P:26 SP:FB CYC:168   ZI  -  
E175  A9 80     LDA #$80                        A:00 X:4E Y:00 P:26 SP:FB CYC:180   ZI  -  
E177  F9 00 04  SBC $0400,Y @ 0400 = 00         A:80 X:4E Y:00 P:A4 SP:FB CYC:186    I  - N
E17A  90 04     BCC $E180                       A:7F X:4E Y:00 P:65 SP:FB CYC:198  C I  -V 
E17C  C9 7F     CMP #$7F                        A:7F X:4E Y:00 P:65 SP:FB CYC:204  C I  -V 
E17E  F0 02     BEQ $E182                       A:7F X:4E Y:00 P:67 SP:FB CYC:210  CZI  -V 
E182  E8        INX                             A:7F X:4E Y:00 P:67 SP:FB CYC:219  CZI  -V 
E183  38        SEC                             A:7F X:4F Y:00 P:65 SP:FB CYC:225  C I  -V 
E184  A9 7F     LDA #$7F                        A:7F X:4F Y:00 P:65 SP:FB CYC:231  C I  -V 
E186  8D 00 04  STA $0400 = 00                  A:7F X:4F Y:00 P:65 SP:FB CYC:237  C I  -V 
E189  A9 81     LDA #$81                        A:7F X:4F Y:00 P:65 SP:FB CYC:249  C I  -V 
E18B  F9 00 04  SBC $0400,Y @ 0400 = 7F         A:81 X:4F Y:00 P:E5 SP:FB CYC:255  C I  -VN
E18E  50 06     BVC $E196                       A:02 X:4F Y:00 P:65 SP:FB CYC:267  C I  -V 
E190  90 04     BCC $E196                       A:02 X:4F Y:00 P:65 SP:FB CYC:273  C I  -V 
E192  C9 02     CMP #$02                        A:02 X:4F Y:00 P:65 SP:FB CYC:279  C I  -V 
E194  F0 02     BEQ $E198                       A:02 X:4F Y:00 P:67 SP:FB CYC:285  CZI  -V 
E198  E8        INX                             A:02 X:4F Y:00 P:67 SP:FB CYC:294  CZI  -V 
E199  A9 00     LDA #$00                        A:02 X:50 Y:00 P:65 SP:FB CYC:300  C I  -V 
E19B  A9 87     LDA #$87                        A:00 X:50 Y:00 P:67 SP:FB CYC:306  CZI  -V 
E19D  99 00 04  STA $0400,Y @ 0400 = 7F         A:87 X:50 Y:00 P:E5 SP:FB CYC:312  C I  -VN
E1A0  AD 00 04  LDA $0400 = 87                  A:87 X:50 Y:00 P:E5 SP:FB CYC:327  C I  -VN
E1A3  C9 87     CMP #$87                        A:87 X:50 Y:00 P:E5 SP:FB CYC:339  C I  -VN
E1A5  F0 02     BEQ $E1A9                       A:87 X:50 Y:00 P:67 SP:FB CYC:  4  CZI  -V 
E1A9  60        RTS                             A:87 X:50 Y:00 P:67 SP:FB CYC: 13  CZI  -V 
C629  20 B8 DB  JSR $DBB8                       A:87 X:50 Y:00 P:67 SP:FD CYC: 31  CZI  -V 
DBB8  A9 FF     LDA #$FF                        A:87 X:50 Y:00 P:67 SP:FB CYC: 49  CZI  -V 
DBBA  85 01     STA $01 = FF                    A:FF X:50 Y:00 P:E5 SP:FB CYC: 55  C I  -VN
DBBC  A9 AA     LDA #$AA                        A:FF X:50 Y:00 P:E5 SP:FB CYC: 64  C I  -VN
DBBE  85 33     STA $33 = A3                    A:AA X:50 Y:00 P:E5 SP:FB CYC: 70  C I  -VN
DBC0  A9 BB     LDA #$BB                        A:AA X:50 Y:00 P:E5 SP:FB CYC: 79  C I  -VN
DBC2  85 89     STA $89 = 00                    A:BB X:50 Y:00 P:E5 SP:FB CYC: 85  C I  -VN
DBC4  A2 00     LDX #$00                        A:BB X:50 Y:00 P:E5 SP:FB CYC: 94  C I  -VN
DBC6  A9 66     LDA #$66                        A:BB X:00 Y:00 P:67 SP:FB CYC:100  CZI  -V 
DBC8  24 01     BIT $01 = FF                    A:66 X:00 Y:00 P:65 SP:FB CYC:106  C I  -V 
DBCA  38        SEC                             A:66 X:00 Y:00 P:E5 SP:FB CYC:115  C I  -VN
DBCB  A0 00     LDY #$00                        A:66 X:00 Y:00 P:E5 SP:FB CYC:121  C I  -VN
DBCD  B4 33     LDY $33,X @ 33 = AA             A:66 X:00 Y:00 P:67 SP:FB CYC:127  CZI  -V 
DBCF  10 12     BPL $DBE3                       A:66 X:00 Y:AA P:E5 SP:FB CYC:139  C I  -VN
DBD1  F0 10     BEQ $DBE3                       A:66 X:00 Y:AA P:E5 SP:FB CYC:145  C I  -VN
DBD3  50 0E     BVC $DBE3                       A:66 X:00 Y:AA P:E5 SP:FB CYC:151  C I  -VN
DBD5  90 0C     BCC $DBE3                       A:66 X:00 Y:AA P:E5 SP:FB CYC:157  C I  -VN
DBD7  C9 66     CMP #$66                        A:66 X:00 Y:AA P:E5 SP:FB CYC:163  C I  -VN
DBD9  D0 08     BNE $DBE3                       A:66 X:00 Y:AA P:67 SP:FB CYC:169  CZI  -V 
DBDB  E0 00     CPX #$00                        A:66 X:00 Y:AA P:67 SP:FB CYC:175  CZI  -V 
DBDD  D0 04     BNE $DBE3                       A:66 X:00 Y:AA P:67 SP:FB CYC:181  CZI  -V 
DBDF  C0 AA     CPY #$AA                        A:66 X:00 Y:AA P:67 SP:FB CYC:187  CZI  -V 
DBE1  F0 04     BEQ $DBE7                       A:66 X:00 Y:AA P:67 SP:FB CYC:193  CZI  -V 
DBE7  A2 8A     LDX #$8A                        A:66 X:00 Y:AA P:67 SP:FB CYC:202  CZI  -V 
DBE9  A9 66     LDA #$66                        A:66 X:8A Y:AA P:E5 SP:FB CYC:208  C I  -VN
DBEB  B8        CLV                             A:66 X:8A Y:AA P:65 SP:FB CYC:214  C I  -V 
DBEC  18        CLC                             A:66 X:8A Y:AA P:25 SP:FB CYC:220  C I  -  
DBED  A0 00     LDY #$00                        A:66 X:8A Y:AA P:24 SP:FB CYC:226    I  -  
DBEF  B4 FF     LDY $FF,X @ 89 = BB             A:66 X:8A Y:00 P:26 SP:FB CYC:232   ZI  -  
DBF1  10 12     BPL $DC05                       A:66 X:8A Y:BB P:A4 SP:FB CYC:244    I  - N
DBF3  F0 10     BEQ $DC05                       A:66 X:8A Y:BB P:A4 SP:FB CYC:250    I  - N
DBF5  70 0E     BVS $DC05                       A:66 X:8A Y:BB P:A4 SP:FB CYC:256    I  - N
DBF7  B0 0C     BCS $DC05                       A:66 X:8A Y:BB P:A4 SP:FB CYC:262    I  - N
DBF9  C0 BB     CPY #$BB                        A:66 X:8A Y:BB P:A4 SP:FB CYC:268    I  - N
DBFB  D0 08     BNE $DC05                       A:66 X:8A Y:BB P:27 SP:FB CYC:274  CZI  -  
DBFD  C9 66     CMP #$66                        A:66 X:8A Y:BB P:27 SP:FB CYC:280  CZI  -  
DBFF  D0 04     BNE $DC05                       A:66 X:8A Y:BB P:27 SP:FB CYC:286  CZI  -  
DC01  E0 8A     CPX #$8A                        A:66 X:8A Y:BB P:27 SP:FB CYC:292  CZI  -  
DC03  F0 04     BEQ $DC09                       A:66 X:8A Y:BB P:27 SP:FB CYC:298  CZI  -  
DC09  24 01     BIT $01 = FF                    A:66 X:8A Y:BB P:27 SP:FB CYC:307  CZI  -  
DC0B  38        SEC                             A:66 X:8A Y:BB P:E5 SP:FB CYC:316  C I  -VN
DC0C  A0 44     LDY #$44                        A:66 X:8A Y:BB P:E5 SP:FB CYC:322  C I  -VN
DC0E  A2 00     LDX #$00                        A:66 X:8A Y:44 P:65 SP:FB CYC:328  C I  -V 
DC10  94 33     STY $33,X @ 33 = AA             A:66 X:00 Y:44 P:67 SP:FB CYC:334  CZI  -V 
DC12  A5 33     LDA $33 = 44                    A:66 X:00 Y:44 P:67 SP:FB CYC:  5  CZI  -V 
DC14  90 18     BCC $DC2E                       A:44 X:00 Y:44 P:65 SP:FB CYC: 14  C I  -V 
DC16  C9 44     CMP #$44                        A:44 X:00 Y:44 P:65 SP:FB CYC: 20  C I  -V 
DC18  D0 14     BNE $DC2E                       A:44 X:00 Y:44 P:67 SP:FB CYC: 26  CZI  -V 
DC1A  50 12     BVC $DC2E                       A:44 X:00 Y:44 P:67 SP:FB CYC: 32  CZI  -V 
DC1C  18        CLC                             A:44 X:00 Y:44 P:67 SP:FB CYC: 38  CZI  -V 
DC1D  B8        CLV                             A:44 X:00 Y:44 P:66 SP:FB CYC: 44   ZI  -V 
DC1E  A0 99     LDY #$99                        A:44 X:00 Y:44 P:26 SP:FB CYC: 50   ZI  -  
DC20  A2 80     LDX #$80                        A:44 X:00 Y:99 P:A4 SP:FB CYC: 56    I  - N
DC22  94 85     STY $85,X @ 05 = 00             A:44 X:80 Y:99 P:A4 SP:FB CYC: 62    I  - N
DC24  A5 05     LDA $05 = 99                    A:44 X:80 Y:99 P:A4 SP:FB CYC: 74    I  - N
DC26  B0 06     BCS $DC2E                       A:99 X:80 Y:99 P:A4 SP:FB CYC: 83    I  - N
DC28  C9 99     CMP #$99                        A:99 X:80 Y:99 P:A4 SP:FB CYC: 89    I  - N
DC2A  D0 02     BNE $DC2E                       A:99 X:80 Y:99 P:27 SP:FB CYC: 95  CZI  -  
DC2C  50 04     BVC $DC32                       A:99 X:80 Y:99 P:27 SP:FB CYC:101  CZI  -  
DC32  A0 0B     LDY #$0B                        A:99 X:80 Y:99 P:27 SP:FB CYC:110  CZI  -  
DC34  A9 AA     LDA #$AA                        A:99 X:80 Y:0B P:25 SP:FB CYC:116  C I  -  
DC36  A2 78     LDX #$78                        A:AA X:80 Y:0B P:A5 SP:FB CYC:122  C I  - N
DC38  85 78     STA $78 = 00                    A:AA X:78 Y:0B P:25 SP:FB CYC:128  C I  -  
DC3A  20 B6 F7  JSR $F7B6                       A:AA X:78 Y:0B P:25 SP:FB CYC:137  C I  -  
F7B6  18        CLC                             A:AA X:78 Y:0B P:25 SP:F9 CYC:155  C I  -  
F7B7  A9 FF     LDA #$FF                        A:AA X:78 Y:0B P:24 SP:F9 CYC:161    I  -  
F7B9  85 01     STA $01 = FF                    A:FF X:78 Y:0B P:A4 SP:F9 CYC:167    I  - N
F7BB  24 01     BIT $01 = FF                    A:FF X:78 Y:0B P:A4 SP:F9 CYC:176    I  - N
F7BD  A9 55     LDA #$55                        A:FF X:78 Y:0B P:E4 SP:F9 CYC:185    I  -VN
F7BF  60        RTS                             A:55 X:78 Y:0B P:64 SP:F9 CYC:191    I  -V 
DC3D  15 00     ORA $00,X @ 78 = AA             A:55 X:78 Y:0B P:64 SP:FB CYC:209    I  -V 
DC3F  20 C0 F7  JSR $F7C0                       A:FF X:78 Y:0B P:E4 SP:FB CYC:221    I  -VN
F7C0  B0 09     BCS $F7CB                       A:FF X:78 Y:0B P:E4 SP:F9 CYC:239    I  -VN
F7C2  10 07     BPL $F7CB                       A:FF X:78 Y:0B P:E4 SP:F9 CYC:245    I  -VN
F7C4  C9 FF     CMP #$FF                        A:FF X:78 Y:0B P:E4 SP:F9 CYC:251    I  -VN
F7C6  D0 03     BNE $F7CB                       A:FF X:78 Y:0B P:67 SP:F9 CYC:257  CZI  -V 
F7C8  50 01     BVC $F7CB                       A:FF X:78 Y:0B P:67 SP:F9 CYC:263  CZI  -V 
F7CA  60        RTS                             A:FF X:78 Y:0B P:67 SP:F9 CYC:269  CZI  -V 
DC42  C8        INY                             A:FF X:78 Y:0B P:67 SP:FB CYC:287  CZI  -V 
DC43  A9 00     LDA #$00                        A:FF X:78 Y:0C P:65 SP:FB CYC:293  C I  -V 
DC45  85 78     STA $78 = AA                    A:00 X:78 Y:0C P:67 SP:FB CYC:299  CZI  -V 
DC47  20 CE F7  JSR $F7CE                       A:00 X:78 Y:0C P:67 SP:FB CYC:308  CZI  -V 
F7CE  38        SEC                             A:00 X:78 Y:0C P:67 SP:F9 CYC:326  CZI  -V 
F7CF  B8        CLV                             A:00 X:78 Y:0C P:67 SP:F9 CYC:332  CZI  -V 
F7D0  A9 00     LDA #$00                        A:00 X:78 Y:0C P:27 SP:F9 CYC:338  CZI  -  
F7D2  60        RTS                             A:00 X:78 Y:0C P:27 SP:F9 CYC:  3  CZI  -  
DC4A  15 00     ORA $00,X @ 78 = 00             A:00 X:78 Y:0C P:27 SP:FB CYC: 21  CZI  -  
DC4C  20 D3 F7  JSR $F7D3                       A:00 X:78 Y:0C P:27 SP:FB CYC: 33  CZI  -  
F7D3  D0 07     BNE $F7DC                       A:00 X:78 Y:0C P:27 SP:F9 CYC: 51  CZI  -  
F7D5  70 05     BVS $F7DC                       A:00 X:78 Y:0C P:27 SP:F9 CYC: 57  CZI  -  
F7D7  90 03     BCC $F7DC                       A:00 X:78 Y:0C P:27 SP:F9 CYC: 63  CZI  -  
F7D9  30 01     BMI $F7DC                       A:00 X:78 Y:0C P:27 SP:F9 CYC: 69  CZI  -  
F7DB  60        RTS                             A:00 X:78 Y:0C P:27 SP:F9 CYC: 75  CZI  -  
DC4F  C8        INY                             A:00 X:78 Y:0C P:27 SP:FB CYC: 93  CZI  -  
DC50  A9 AA     LDA #$AA                        A:00 X:78 Y:0D P:25 SP:FB CYC: 99  C I  -  
DC52  85 78     STA $78 = 00                    A:AA X:78 Y:0D P:A5 SP:FB CYC:105  C I  - N
DC54  20 DF F7  JSR $F7DF                       A:AA X:78 Y:0D P:A5 SP:FB CYC:114  C I  - N
F7DF  18        CLC                             A:AA X:78 Y:0D P:A5 SP:F9 CYC:132  C I  - N
F7E0  24 01     BIT $01 = FF                    A:AA X:78 Y:0D P:A4 SP:F9 CYC:138    I  - N
F7E2  A9 55     LDA #$55                        A:AA X:78 Y:0D P:E4 SP:F9 CYC:147    I  -VN
F7E4  60        RTS                             A:55 X:78 Y:0D P:64 SP:F9 CYC:153    I  -V 
DC57  35 00     AND $00,X @ 78 = AA             A:55 X:78 Y:0D P:64 SP:FB CYC:171    I  -V 
DC59  20 E5 F7  JSR $F7E5                       A:00 X:78 Y:0D P:66 SP:FB CYC:183   ZI  -V 
F7E5  D0 07     BNE $F7EE                       A:00 X:78 Y:0D P:66 SP:F9 CYC:201   ZI  -V 
F7E7  50 05     BVC $F7EE                       A:00 X:78 Y:0D P:66 SP:F9 CYC:207   ZI  -V 
F7E9  B0 03     BCS $F7EE                       A:00 X:78 Y:0D P:66 SP:F9 CYC:213   ZI  -V 
F7EB  30 01     BMI $F7EE                       A:00 X:78 Y:0D P:66 SP:F9 CYC:219   ZI  -V 
F7ED  60        RTS                             A:00 X:78 Y:0D P:66 SP:F9 CYC:225   ZI  -V 
DC5C  C8        INY                             A:00 X:78 Y:0D P:66 SP:FB CYC:243   ZI  -V 
DC5D  A9 EF     LDA #$EF                        A:00 X:78 Y:0E P:64 SP:FB CYC:249    I  -V 
DC5F  85 78     STA $78 = AA                    A:EF X:78 Y:0E P:E4 SP:FB CYC:255    I  -VN
DC61  20 F1 F7  JSR $F7F1                       A:EF X:78 Y:0E P:E4 SP:FB CYC:264    I  -VN
F7F1  38        SEC                             A:EF X:78 Y:0E P:E4 SP:F9 CYC:282    I  -VN
F7F2  B8        CLV                             A:EF X:78 Y:0E P:E5 SP:F9 CYC:288  C I  -VN
F7F3  A9 F8     LDA #$F8                        A:EF X:78 Y:0E P:A5 SP:F9 CYC:294  C I  - N
F7F5  60        RTS                             A:F8 X:78 Y:0E P:A5 SP:F9 CYC:300  C I  - N
DC64  35 00     AND $00,X @ 78 = EF             A:F8 X:78 Y:0E P:A5 SP:FB CYC:318  C I  - N
DC66  20 F6 F7  JSR $F7F6                       A:E8 X:78 Y:0E P:A5 SP:FB CYC:330  C I  - N
F7F6  90 09     BCC $F801                       A:E8 X:78 Y:0E P:A5 SP:F9 CYC:  7  C I  - N
F7F8  10 07     BPL $F801                       A:E8 X:78 Y:0E P:A5 SP:F9 CYC: 13  C I  - N
F7FA  C9 E8     CMP #$E8                        A:E8 X:78 Y:0E P:A5 SP:F9 CYC: 19  C I  - N
F7FC  D0 03     BNE $F801                       A:E8 X:78 Y:0E P:27 SP:F9 CYC: 25  CZI  -  
F7FE  70 01     BVS $F801                       A:E8 X:78 Y:0E P:27 SP:F9 CYC: 31  CZI  -  
F800  60        RTS                             A:E8 X:78 Y:0E P:27 SP:F9 CYC: 37  CZI  -  
DC69  C8        INY                             A:E8 X:78 Y:0E P:27 SP:FB CYC: 55  CZI  -  
DC6A  A9 AA     LDA #$AA                        A:E8 X:78 Y:0F P:25 SP:FB CYC: 61  C I  -  
DC6C  85 78     STA $78 = EF                    A:AA X:78 Y:0F P:A5 SP:FB CYC: 67  C I  - N
DC6E  20 04 F8  JSR $F804                       A:AA X:78 Y:0F P:A5 SP:FB CYC: 76  C I  - N
F804  18        CLC                             A:AA X:78 Y:0F P:A5 SP:F9 CYC: 94  C I  - N
F805  24 01     BIT $01 = FF                    A:AA X:78 Y:0F P:A4 SP:F9 CYC:100    I  - N
F807  A9 5F     LDA #$5F                        A:AA X:78 Y:0F P:E4 SP:F9 CYC:109    I  -VN
F809  60        RTS                             A:5F X:78 Y:0F P:64 SP:F9 CYC:115    I  -V 
DC71  55 00     EOR $00,X @ 78 = AA             A:5F X:78 Y:0F P:64 SP:FB CYC:133    I  -V 
DC73  20 0A F8  JSR $F80A                       A:F5 X:78 Y:0F P:E4 SP:FB CYC:145    I  -VN
F80A  B0 09     BCS $F815                       A:F5 X:78 Y:0F P:E4 SP:F9 CYC:163    I  -VN
F80C  10 07     BPL $F815                       A:F5 X:78 Y:0F P:E4 SP:F9 CYC:169    I  -VN
F80E  C9 F5     CMP #$F5                        A:F5 X:78 Y:0F P:E4 SP:F9 CYC:175    I  -VN
F810  D0 03     BNE $F815                       A:F5 X:78 Y:0F P:67 SP:F9 CYC:181  CZI  -V 
F812  50 01     BVC $F815                       A:F5 X:78 Y:0F P:67 SP:F9 CYC:187  CZI  -V 
F814  60        RTS                             A:F5 X:78 Y:0F P:67 SP:F9 CYC:193  CZI  -V 
DC76  C8        INY                             A:F5 X:78 Y:0F P:67 SP:FB CYC:211  CZI  -V 
DC77  A9 70     LDA #$70                        A:F5 X:78 Y:10 P:65 SP:FB CYC:217  C I  -V 
DC79  85 78     STA $78 = AA                    A:70 X:78 Y:10 P:65 SP:FB CYC:223  C I  -V 
DC7B  20 18 F8  JSR $F818                       A:70 X:78 Y:10 P:65 SP:FB CYC:232  C I  -V 
F818  38        SEC                             A:70 X:78 Y:10 P:65 SP:F9 CYC:250  C I  -V 
F819  B8        CLV                             A:70 X:78 Y:10 P:65 SP:F9 CYC:256  C I  -V 
F81A  A9 70     LDA #$70                        A:70 X:78 Y:10 P:25 SP:F9 CYC:262  C I  -  
F81C  60        RTS                             A:70 X:78 Y:10 P:25 SP:F9 CYC:268  C I  -  
DC7E  55 00     EOR $00,X @ 78 = 70             A:70 X:78 Y:10 P:25 SP:FB CYC:286  C I  -  
DC80  20 1D F8  JSR $F81D                       A:00 X:78 Y:10 P:27 SP:FB CYC:298  CZI  -  
F81D  D0 07     BNE $F826                       A:00 X:78 Y:10 P:27 SP:F9 CYC:316  CZI  -  
F81F  70 05     BVS $F826                       A:00 X:78 Y:10 P:27 SP:F9 CYC:322  CZI  -  
F821  90 03     BCC $F826                       A:00 X:78 Y:10 P:27 SP:F9 CYC:328  CZI  -  
F823  30 01     BMI $F826                       A:00 X:78 Y:10 P:27 SP:F9 CYC:334  CZI  -  
F825  60        RTS                             A:00 X:78 Y:10 P:27 SP:F9 CYC:340  CZI  -  
DC83  C8        INY                             A:00 X:78 Y:10 P:27 SP:FB CYC: 17  CZI  -  
DC84  A9 69     LDA #$69                        A:00 X:78 Y:11 P:25 SP:FB CYC: 23  C I  -  
DC86  85 78     STA $78 = 70                    A:69 X:78 Y:11 P:25 SP:FB CYC: 29  C I  -  
DC88  20 29 F8  JSR $F829                       A:69 X:78 Y:11 P:25 SP:FB CYC: 38  C I  -  
F829  18        CLC                             A:69 X:78 Y:11 P:25 SP:F9 CYC: 56  C I  -  
F82A  24 01     BIT $01 = FF                    A:69 X:78 Y:11 P:24 SP:F9 CYC: 62    I  -  
F82C  A9 00     LDA #$00                        A:69 X:78 Y:11 P:E4 SP:F9 CYC: 71    I  -VN
F82E  60        RTS                             A:00 X:78 Y:11 P:66 SP:F9 CYC: 77   ZI  -V 
DC8B  75 00     ADC $00,X @ 78 = 69             A:00 X:78 Y:11 P:66 SP:FB CYC: 95   ZI  -V 
DC8D  20 2F F8  JSR $F82F                       A:69 X:78 Y:11 P:24 SP:FB CYC:107    I  -  
F82F  30 09     BMI $F83A                       A:69 X:78 Y:11 P:24 SP:F9 CYC:125    I  -  
F831  B0 07     BCS $F83A                       A:69 X:78 Y:11 P:24 SP:F9 CYC:131    I  -  
F833  C9 69     CMP #$69                        A:69 X:78 Y:11 P:24 SP:F9 CYC:137    I  -  
F835  D0 03     BNE $F83A                       A:69 X:78 Y:11 P:27 SP:F9 CYC:143  CZI  -  
F837  70 01     BVS $F83A                       A:69 X:78 Y:11 P:27 SP:F9 CYC:149  CZI  -  
F839  60        RTS                             A:69 X:78 Y:11 P:27 SP:F9 CYC:155  CZI  -  
DC90  C8        INY                             A:69 X:78 Y:11 P:27 SP:FB CYC:173  CZI  -  
DC91  20 3D F8  JSR $F83D                       A:69 X:78 Y:12 P:25 SP:FB CYC:179  C I  -  
F83D  38        SEC                             A:69 X:78 Y:12 P:25 SP:F9 CYC:197  C I  -  
F83E  24 01     BIT $01 = FF                    A:69 X:78 Y:12 P:25 SP:F9 CYC:203  C I  -  
F840  A9 00     LDA #$00                        A:69 X:78 Y:12 P:E5 SP:F9 CYC:212  C I  -VN
F842  60        RTS                             A:00 X:78 Y:12 P:67 SP:F9 CYC:218  CZI  -V 
DC94  75 00     ADC $00,X @ 78 = 69             A:00 X:78 Y:12 P:67 SP:FB CYC:236  CZI  -V 
DC96  20 43 F8  JSR $F843                       A:6A X:78 Y:12 P:24 SP:FB CYC:248    I  -  
F843  30 09     BMI $F84E                       A:6A X:78 Y:12 P:24 SP:F9 CYC:266    I  -  
F845  B0 07     BCS $F84E                       A:6A X:78 Y:12 P:24 SP:F9 CYC:272    I  -  
F847  C9 6A     CMP #$6A                        A:6A X:78 Y:12 P:24 SP:F9 CYC:278    I  -  
F849  D0 03     BNE $F84E                       A:6A X:78 Y:12 P:27 SP:F9 CYC:284  CZI  -  
F84B  70 01     BVS $F84E                       A:6A X:78 Y:12 P:27 SP:F9 CYC:290  CZI  -  
F84D  60        RTS                             A:6A X:78 Y:12 P:27 SP:F9 CYC:296  CZI  -  
DC99  C8        INY                             A:6A X:78 Y:12 P:27 SP:FB CYC:314  CZI  -  
DC9A  A9 7F     LDA #$7F                        A:6A X:78 Y:13 P:25 SP:FB CYC:320  C I  -  
DC9C  85 78     STA $78 = 69                    A:7F X:78 Y:13 P:25 SP:FB CYC:326  C I  -  
DC9E  20 51 F8  JSR $F851                       A:7F X:78 Y:13 P:25 SP:FB CYC:335  C I  -  
F851  38        SEC                             A:7F X:78 Y:13 P:25 SP:F9 CYC: 12  C I  -  
F852  B8        CLV                             A:7F X:78 Y:13 P:25 SP:F9 CYC: 18  C I  -  
F853  A9 7F     LDA #$7F                        A:7F X:78 Y:13 P:25 SP:F9 CYC: 24  C I  -  
F855  60        RTS                             A:7F X:78 Y:13 P:25 SP:F9 CYC: 30  C I  -  
DCA1  75 00     ADC $00,X @ 78 = 7F             A:7F X:78 Y:13 P:25 SP:FB CYC: 48  C I  -  
DCA3  20 56 F8  JSR $F856                       A:FF X:78 Y:13 P:E4 SP:FB CYC: 60    I  -VN
F856  10 09     BPL $F861                       A:FF X:78 Y:13 P:E4 SP:F9 CYC: 78    I  -VN
F858  B0 07     BCS $F861                       A:FF X:78 Y:13 P:E4 SP:F9 CYC: 84    I  -VN
F85A  C9 FF     CMP #$FF                        A:FF X:78 Y:13 P:E4 SP:F9 CYC: 90    I  -VN
F85C  D0 03     BNE $F861                       A:FF X:78 Y:13 P:67 SP:F9 CYC: 96  CZI  -V 
F85E  50 01     BVC $F861                       A:FF X:78 Y:13 P:67 SP:F9 CYC:102  CZI  -V 
F860  60        RTS                             A:FF X:78 Y:13 P:67 SP:F9 CYC:108  CZI  -V 
DCA6  C8        INY                             A:FF X:78 Y:13 P:67 SP:FB CYC:126  CZI  -V 
DCA7  A9 80     LDA #$80                        A:FF X:78 Y:14 P:65 SP:FB CYC:132  C I  -V 
DCA9  85 78     STA $78 = 7F                    A:80 X:78 Y:14 P:E5 SP:FB CYC:138  C I  -VN
DCAB  20 64 F8  JSR $F864                       A:80 X:78 Y:14 P:E5 SP:FB CYC:147  C I  -VN
F864  18        CLC                             A:80 X:78 Y:14 P:E5 SP:F9 CYC:165  C I  -VN
F865  24 01     BIT $01 = FF                    A:80 X:78 Y:14 P:E4 SP:F9 CYC:171    I  -VN
F867  A9 7F     LDA #$7F                        A:80 X:78 Y:14 P:E4 SP:F9 CYC:180    I  -VN
F869  60        RTS                             A:7F X:78 Y:14 P:64 SP:F9 CYC:186    I  -V 
DCAE  75 00     ADC $00,X @ 78 = 80             A:7F X:78 Y:14 P:64 SP:FB CYC:204    I  -V 
DCB0  20 6A F8  JSR $F86A                       A:FF X:78 Y:14 P:A4 SP:FB CYC:216    I  - N
F86A  10 09     BPL $F875                       A:FF X:78 Y:14 P:A4 SP:F9 CYC:234    I  - N
F86C  B0 07     BCS $F875                       A:FF X:78 Y:14 P:A4 SP:F9 CYC:240    I  - N
F86E  C9 FF     CMP #$FF                        A:FF X:78 Y:14 P:A4 SP:F9 CYC:246    I  - N
F870  D0 03     BNE $F875                       A:FF X:78 Y:14 P:27 SP:F9 CYC:252  CZI  -  
F872  70 01     BVS $F875                       A:FF X:78 Y:14 P:27 SP:F9 CYC:258  CZI  -  
F874  60        RTS                             A:FF X:78 Y:14 P:27 SP:F9 CYC:264  CZI  -  
DCB3  C8        INY                             A:FF X:78 Y:14 P:27 SP:FB CYC:282  CZI  -  
DCB4  20 78 F8  JSR $F878                       A:FF X:78 Y:15 P:25 SP:FB CYC:288  C I  -  
F878  38        SEC                             A:FF X:78 Y:15 P:25 SP:F9 CYC:306  C I  -  
F879  B8        CLV                             A:FF X:78 Y:15 P:25 SP:F9 CYC:312  C I  -  
F87A  A9 7F     LDA #$7F                        A:FF X:78 Y:15 P:25 SP:F9 CYC:318  C I  -  
F87C  60        RTS                             A:7F X:78 Y:15 P:25 SP:F9 CYC:324  C I  -  
DCB7  75 00     ADC $00,X @ 78 = 80             A:7F X:78 Y:15 P:25 SP:FB CYC:  1  C I  -  
DCB9  20 7D F8  JSR $F87D                       A:00 X:78 Y:15 P:27 SP:FB CYC: 13  CZI  -  
F87D  D0 07     BNE $F886                       A:00 X:78 Y:15 P:27 SP:F9 CYC: 31  CZI  -  
F87F  30 05     BMI $F886                       A:00 X:78 Y:15 P:27 SP:F9 CYC: 37  CZI  -  
F881  70 03     BVS $F886                       A:00 X:78 Y:15 P:27 SP:F9 CYC: 43  CZI  -  
F883  90 01     BCC $F886                       A:00 X:78 Y:15 P:27 SP:F9 CYC: 49  CZI  -  
F885  60        RTS                             A:00 X:78 Y:15 P:27 SP:F9 CYC: 55  CZI  -  
DCBC  C8        INY                             A:00 X:78 Y:15 P:27 SP:FB CYC: 73  CZI  -  
DCBD  A9 40     LDA #$40                        A:00 X:78 Y:16 P:25 SP:FB CYC: 79  C I  -  
DCBF  85 78     STA $78 = 80                    A:40 X:78 Y:16 P:25 SP:FB CYC: 85  C I  -  
DCC1  20 89 F8  JSR $F889                       A:40 X:78 Y:16 P:25 SP:FB CYC: 94  C I  -  
F889  24 01     BIT $01 = FF                    A:40 X:78 Y:16 P:25 SP:F9 CYC:112  C I  -  
F88B  A9 40     LDA #$40                        A:40 X:78 Y:16 P:E5 SP:F9 CYC:121  C I  -VN
F88D  60        RTS                             A:40 X:78 Y:16 P:65 SP:F9 CYC:127  C I  -V 
DCC4  D5 00     CMP $00,X @ 78 = 40             A:40 X:78 Y:16 P:65 SP:FB CYC:145  C I  -V 
DCC6  20 8E F8  JSR $F88E                       A:40 X:78 Y:16 P:67 SP:FB CYC:157  CZI  -V 
F88E  30 07     BMI $F897                       A:40 X:78 Y:16 P:67 SP:F9 CYC:175  CZI  -V 
F890  90 05     BCC $F897                       A:40 X:78 Y:16 P:67 SP:F9 CYC:181  CZI  -V 
F892  D0 03     BNE $F897                       A:40 X:78 Y:16 P:67 SP:F9 CYC:187  CZI  -V 
F894  50 01     BVC $F897                       A:40 X:78 Y:16 P:67 SP:F9 CYC:193  CZI  -V 
F896  60        RTS                             A:40 X:78 Y:16 P:67 SP:F9 CYC:199  CZI  -V 
DCC9  C8        INY                             A:40 X:78 Y:16 P:67 SP:FB CYC:217  CZI  -V 
DCCA  48        PHA                             A:40 X:78 Y:17 P:65 SP:FB CYC:223  C I  -V 
DCCB  A9 3F     LDA #$3F                        A:40 X:78 Y:17 P:65 SP:FA CYC:232  C I  -V 
DCCD  85 78     STA $78 = 40                    A:3F X:78 Y:17 P:65 SP:FA CYC:238  C I  -V 
DCCF  68        PLA                             A:3F X:78 Y:17 P:65 SP:FA CYC:247  C I  -V 
DCD0  20 9A F8  JSR $F89A                       A:40 X:78 Y:17 P:65 SP:FB CYC:259  C I  -V 
F89A  B8        CLV                             A:40 X:78 Y:17 P:65 SP:F9 CYC:277  C I  -V 
F89B  60        RTS                             A:40 X:78 Y:17 P:25 SP:F9 CYC:283  C I  -  
DCD3  D5 00     CMP $00,X @ 78 = 3F             A:40 X:78 Y:17 P:25 SP:FB CYC:301  C I  -  
DCD5  20 9C F8  JSR $F89C                       A:40 X:78 Y:17 P:25 SP:FB CYC:313  C I  -  
F89C  F0 07     BEQ $F8A5                       A:40 X:78 Y:17 P:25 SP:F9 CYC:331  C I  -  
F89E  30 05     BMI $F8A5                       A:40 X:78 Y:17 P:25 SP:F9 CYC:337  C I  -  
F8A0  90 03     BCC $F8A5                       A:40 X:78 Y:17 P:25 SP:F9 CYC:  2  C I  -  
F8A2  70 01     BVS $F8A5                       A:40 X:78 Y:17 P:25 SP:F9 CYC:  8  C I  -  
F8A4  60        RTS                             A:40 X:78 Y:17 P:25 SP:F9 CYC: 14  C I  -  
DCD8  C8        INY                             A:40 X:78 Y:17 P:25 SP:FB CYC: 32  C I  -  
DCD9  48        PHA                             A:40 X:78 Y:18 P:25 SP:FB CYC: 38  C I  -  
DCDA  A9 41     LDA #$41                        A:40 X:78 Y:18 P:25 SP:FA CYC: 47  C I  -  
DCDC  85 78     STA $78 = 3F                    A:41 X:78 Y:18 P:25 SP:FA CYC: 53  C I  -  
DCDE  68        PLA                             A:41 X:78 Y:18 P:25 SP:FA CYC: 62  C I  -  
DCDF  D5 00     CMP $00,X @ 78 = 41             A:40 X:78 Y:18 P:25 SP:FB CYC: 74  C I  -  
DCE1  20 A8 F8  JSR $F8A8                       A:40 X:78 Y:18 P:A4 SP:FB CYC: 86    I  - N
F8A8  F0 05     BEQ $F8AF                       A:40 X:78 Y:18 P:A4 SP:F9 CYC:104    I  - N
F8AA  10 03     BPL $F8AF                       A:40 X:78 Y:18 P:A4 SP:F9 CYC:110    I  - N
F8AC  10 01     BPL $F8AF                       A:40 X:78 Y:18 P:A4 SP:F9 CYC:116    I  - N
F8AE  60        RTS                             A:40 X:78 Y:18 P:A4 SP:F9 CYC:122    I  - N
DCE4  C8        INY                             A:40 X:78 Y:18 P:A4 SP:FB CYC:140    I  - N
DCE5  48        PHA                             A:40 X:78 Y:19 P:24 SP:FB CYC:146    I  -  
DCE6  A9 00     LDA #$00                        A:40 X:78 Y:19 P:24 SP:FA CYC:155    I  -  
DCE8  85 78     STA $78 = 41                    A:00 X:78 Y:19 P:26 SP:FA CYC:161   ZI  -  
DCEA  68        PLA                             A:00 X:78 Y:19 P:26 SP:FA CYC:170   ZI  -  
DCEB  20 B2 F8  JSR $F8B2                       A:40 X:78 Y:19 P:24 SP:FB CYC:182    I  -  
F8B2  A9 80     LDA #$80                        A:40 X:78 Y:19 P:24 SP:F9 CYC:200    I  -  
F8B4  60        RTS                             A:80 X:78 Y:19 P:A4 SP:F9 CYC:206    I  - N
DCEE  D5 00     CMP $00,X @ 78 = 00             A:80 X:78 Y:19 P:A4 SP:FB CYC:224    I  - N
DCF0  20 B5 F8  JSR $F8B5                       A:80 X:78 Y:19 P:A5 SP:FB CYC:236  C I  - N
F8B5  F0 05     BEQ $F8BC                       A:80 X:78 Y:19 P:A5 SP:F9 CYC:254  C I  - N
F8B7  10 03     BPL $F8BC                       A:80 X:78 Y:19 P:A5 SP:F9 CYC:260  C I  - N
F8B9  90 01     BCC $F8BC                       A:80 X:78 Y:19 P:A5 SP:F9 CYC:266  C I  - N
F8BB  60        RTS                             A:80 X:78 Y:19 P:A5 SP:F9 CYC:272  C I  - N
DCF3  C8        INY                             A:80 X:78 Y:19 P:A5 SP:FB CYC:290  C I  - N
DCF4  48        PHA                             A:80 X:78 Y:1A P:25 SP:FB CYC:296  C I  -  
DCF5  A9 80     LDA #$80                        A:80 X:78 Y:1A P:25 SP:FA CYC:305  C I  -  
DCF7  85 78     STA $78 = 00                    A:80 X:78 Y:1A P:A5 SP:FA CYC:311  C I  - N
DCF9  68        PLA                             A:80 X:78 Y:1A P:A5 SP:FA CYC:320  C I  - N
DCFA  D5 00     CMP $00,X @ 78 = 80             A:80 X:78 Y:1A P:A5 SP:FB CYC:332  C I  - N
DCFC  20 BF F8  JSR $F8BF                       A:80 X:78 Y:1A P:27 SP:FB CYC:  3  CZI  -  
F8BF  D0 05     BNE $F8C6                       A:80 X:78 Y:1A P:27 SP:F9 CYC: 21  CZI  -  
F8C1  30 03     BMI $F8C6                       A:80 X:78 Y:1A P:27 SP:F9 CYC: 27  CZI  -  
F8C3  90 01     BCC $F8C6                       A:80 X:78 Y:1A P:27 SP:F9 CYC: 33  CZI  -  
F8C5  60        RTS                             A:80 X:78 Y:1A P:27 SP:F9 CYC: 39  CZI  -  
DCFF  C8        INY                             A:80 X:78 Y:1A P:27 SP:FB CYC: 57  CZI  -  
DD00  48        PHA                             A:80 X:78 Y:1B P:25 SP:FB CYC: 63  C I  -  
DD01  A9 81     LDA #$81                        A:80 X:78 Y:1B P:25 SP:FA CYC: 72  C I  -  
DD03  85 78     STA $78 = 80                    A:81 X:78 Y:1B P:A5 SP:FA CYC: 78  C I  - N
DD05  68        PLA                             A:81 X:78 Y:1B P:A5 SP:FA CYC: 87  C I  - N
DD06  D5 00     CMP $00,X @ 78 = 81             A:80 X:78 Y:1B P:A5 SP:FB CYC: 99  C I  - N
DD08  20 C9 F8  JSR $F8C9                       A:80 X:78 Y:1B P:A4 SP:FB CYC:111    I  - N
F8C9  B0 05     BCS $F8D0                       A:80 X:78 Y:1B P:A4 SP:F9 CYC:129    I  - N
F8CB  F0 03     BEQ $F8D0                       A:80 X:78 Y:1B P:A4 SP:F9 CYC:135    I  - N
F8CD  10 01     BPL $F8D0                       A:80 X:78 Y:1B P:A4 SP:F9 CYC:141    I  - N
F8CF  60        RTS                             A:80 X:78 Y:1B P:A4 SP:F9 CYC:147    I  - N
DD0B  C8        INY                             A:80 X:78 Y:1B P:A4 SP:FB CYC:165    I  - N
DD0C  48        PHA                             A:80 X:78 Y:1C P:24 SP:FB CYC:171    I  -  
DD0D  A9 7F     LDA #$7F                        A:80 X:78 Y:1C P:24 SP:FA CYC:180    I  -  
DD0F  85 78     STA $78 = 81                    A:7F X:78 Y:1C P:24 SP:FA CYC:186    I  -  
DD11  68        PLA                             A:7F X:78 Y:1C P:24 SP:FA CYC:195    I  -  
DD12  D5 00     CMP $00,X @ 78 = 7F             A:80 X:78 Y:1C P:A4 SP:FB CYC:207    I  - N
DD14  20 D3 F8  JSR $F8D3                       A:80 X:78 Y:1C P:25 SP:FB CYC:219  C I  -  
F8D3  90 05     BCC $F8DA                       A:80 X:78 Y:1C P:25 SP:F9 CYC:237  C I  -  
F8D5  F0 03     BEQ $F8DA                       A:80 X:78 Y:1C P:25 SP:F9 CYC:243  C I  -  
F8D7  30 01     BMI $F8DA                       A:80 X:78 Y:1C P:25 SP:F9 CYC:249  C I  -  
F8D9  60        RTS                             A:80 X:78 Y:1C P:25 SP:F9 CYC:255  C I  -  
DD17  C8        INY                             A:80 X:78 Y:1C P:25 SP:FB CYC:273  C I  -  
DD18  A9 40     LDA #$40                        A:80 X:78 Y:1D P:25 SP:FB CYC:279  C I  -  
DD1A  85 78     STA $78 = 7F                    A:40 X:78 Y:1D P:25 SP:FB CYC:285  C I  -  
DD1C  20 31 F9  JSR $F931                       A:40 X:78 Y:1D P:25 SP:FB CYC:294  C I  -  
F931  24 01     BIT $01 = FF                    A:40 X:78 Y:1D P:25 SP:F9 CYC:312  C I  -  
F933  A9 40     LDA #$40                        A:40 X:78 Y:1D P:E5 SP:F9 CYC:321  C I  -VN
F935  38        SEC                             A:40 X:78 Y:1D P:65 SP:F9 CYC:327  C I  -V 
F936  60        RTS                             A:40 X:78 Y:1D P:65 SP:F9 CYC:333  C I  -V 
DD1F  F5 00     SBC $00,X @ 78 = 40             A:40 X:78 Y:1D P:65 SP:FB CYC: 10  C I  -V 
DD21  20 37 F9  JSR $F937                       A:00 X:78 Y:1D P:27 SP:FB CYC: 22  CZI  -  
F937  30 0B     BMI $F944                       A:00 X:78 Y:1D P:27 SP:F9 CYC: 40  CZI  -  
F939  90 09     BCC $F944                       A:00 X:78 Y:1D P:27 SP:F9 CYC: 46  CZI  -  
F93B  D0 07     BNE $F944                       A:00 X:78 Y:1D P:27 SP:F9 CYC: 52  CZI  -  
F93D  70 05     BVS $F944                       A:00 X:78 Y:1D P:27 SP:F9 CYC: 58  CZI  -  
F93F  C9 00     CMP #$00                        A:00 X:78 Y:1D P:27 SP:F9 CYC: 64  CZI  -  
F941  D0 01     BNE $F944                       A:00 X:78 Y:1D P:27 SP:F9 CYC: 70  CZI  -  
F943  60        RTS                             A:00 X:78 Y:1D P:27 SP:F9 CYC: 76  CZI  -  
DD24  C8        INY                             A:00 X:78 Y:1D P:27 SP:FB CYC: 94  CZI  -  
DD25  A9 3F     LDA #$3F                        A:00 X:78 Y:1E P:25 SP:FB CYC:100  C I  -  
DD27  85 78     STA $78 = 40                    A:3F X:78 Y:1E P:25 SP:FB CYC:106  C I  -  
DD29  20 47 F9  JSR $F947                       A:3F X:78 Y:1E P:25 SP:FB CYC:115  C I  -  
F947  B8        CLV                             A:3F X:78 Y:1E P:25 SP:F9 CYC:133  C I  -  
F948  38        SEC                             A:3F X:78 Y:1E P:25 SP:F9 CYC:139  C I  -  
F949  A9 40     LDA #$40                        A:3F X:78 Y:1E P:25 SP:F9 CYC:145  C I  -  
F94B  60        RTS                             A:40 X:78 Y:1E P:25 SP:F9 CYC:151  C I  -  
DD2C  F5 00     SBC $00,X @ 78 = 3F             A:40 X:78 Y:1E P:25 SP:FB CYC:169  C I  -  
DD2E  20 4C F9  JSR $F94C                       A:01 X:78 Y:1E P:25 SP:FB CYC:181  C I  -  
F94C  F0 0B     BEQ $F959                       A:01 X:78 Y:1E P:25 SP:F9 CYC:199  C I  -  
F94E  30 09     BMI $F959                       A:01 X:78 Y:1E P:25 SP:F9 CYC:205  C I  -  
F950  90 07     BCC $F959                       A:01 X:78 Y:1E P:25 SP:F9 CYC:211  C I  -  
F952  70 05     BVS $F959                       A:01 X:78 Y:1E P:25 SP:F9 CYC:217  C I  -  
F954  C9 01     CMP #$01                        A:01 X:78 Y:1E P:25 SP:F9 CYC:223  C I  -  
F956  D0 01     BNE $F959                       A:01 X:78 Y:1E P:27 SP:F9 CYC:229  CZI  -  
F958  60        RTS                             A:01 X:78 Y:1E P:27 SP:F9 CYC:235  CZI  -  
DD31  C8        INY                             A:01 X:78 Y:1E P:27 SP:FB CYC:253  CZI  -  
DD32  A9 41     LDA #$41                        A:01 X:78 Y:1F P:25 SP:FB CYC:259  C I  -  
DD34  85 78     STA $78 = 3F                    A:41 X:78 Y:1F P:25 SP:FB CYC:265  C I  -  
DD36  20 5C F9  JSR $F95C                       A:41 X:78 Y:1F P:25 SP:FB CYC:274  C I  -  
F95C  A9 40     LDA #$40                        A:41 X:78 Y:1F P:25 SP:F9 CYC:292  C I  -  
F95E  38        SEC                             A:40 X:78 Y:1F P:25 SP:F9 CYC:298  C I  -  
F95F  24 01     BIT $01 = FF                    A:40 X:78 Y:1F P:25 SP:F9 CYC:304  C I  -  
F961  60        RTS                             A:40 X:78 Y:1F P:E5 SP:F9 CYC:313  C I  -VN
DD39  F5 00     SBC $00,X @ 78 = 41             A:40 X:78 Y:1F P:E5 SP:FB CYC:331  C I  -VN
DD3B  20 62 F9  JSR $F962                       A:FF X:78 Y:1F P:A4 SP:FB CYC:  2    I  - N
F962  B0 0B     BCS $F96F                       A:FF X:78 Y:1F P:A4 SP:F9 CYC: 20    I  - N
F964  F0 09     BEQ $F96F                       A:FF X:78 Y:1F P:A4 SP:F9 CYC: 26    I  - N
F966  10 07     BPL $F96F                       A:FF X:78 Y:1F P:A4 SP:F9 CYC: 32    I  - N
F968  70 05     BVS $F96F                       A:FF X:78 Y:1F P:A4 SP:F9 CYC: 38    I  - N
F96A  C9 FF     CMP #$FF                        A:FF X:78 Y:1F P:A4 SP:F9 CYC: 44    I  - N
F96C  D0 01     BNE $F96F                       A:FF X:78 Y:1F P:27 SP:F9 CYC: 50  CZI  -  
F96E  60        RTS                             A:FF X:78 Y:1F P:27 SP:F9 CYC: 56  CZI  -  
DD3E  C8        INY                             A:FF X:78 Y:1F P:27 SP:FB CYC: 74  CZI  -  
DD3F  A9 00     LDA #$00                        A:FF X:78 Y:20 P:25 SP:FB CYC: 80  C I  -  
DD41  85 78     STA $78 = 41                    A:00 X:78 Y:20 P:27 SP:FB CYC: 86  CZI  -  
DD43  20 72 F9  JSR $F972                       A:00 X:78 Y:20 P:27 SP:FB CYC: 95  CZI  -  
F972  18        CLC                             A:00 X:78 Y:20 P:27 SP:F9 CYC:113  CZI  -  
F973  A9 80     LDA #$80                        A:00 X:78 Y:20 P:26 SP:F9 CYC:119   ZI  -  
F975  60        RTS                             A:80 X:78 Y:20 P:A4 SP:F9 CYC:125    I  - N
DD46  F5 00     SBC $00,X @ 78 = 00             A:80 X:78 Y:20 P:A4 SP:FB CYC:143    I  - N
DD48  20 76 F9  JSR $F976                       A:7F X:78 Y:20 P:65 SP:FB CYC:155  C I  -V 
F976  90 05     BCC $F97D                       A:7F X:78 Y:20 P:65 SP:F9 CYC:173  C I  -V 
F978  C9 7F     CMP #$7F                        A:7F X:78 Y:20 P:65 SP:F9 CYC:179  C I  -V 
F97A  D0 01     BNE $F97D                       A:7F X:78 Y:20 P:67 SP:F9 CYC:185  CZI  -V 
F97C  60        RTS                             A:7F X:78 Y:20 P:67 SP:F9 CYC:191  CZI  -V 
DD4B  C8        INY                             A:7F X:78 Y:20 P:67 SP:FB CYC:209  CZI  -V 
DD4C  A9 7F     LDA #$7F                        A:7F X:78 Y:21 P:65 SP:FB CYC:215  C I  -V 
DD4E  85 78     STA $78 = 00                    A:7F X:78 Y:21 P:65 SP:FB CYC:221  C I  -V 
DD50  20 80 F9  JSR $F980                       A:7F X:78 Y:21 P:65 SP:FB CYC:230  C I  -V 
F980  38        SEC                             A:7F X:78 Y:21 P:65 SP:F9 CYC:248  C I  -V 
F981  A9 81     LDA #$81                        A:7F X:78 Y:21 P:65 SP:F9 CYC:254  C I  -V 
F983  60        RTS                             A:81 X:78 Y:21 P:E5 SP:F9 CYC:260  C I  -VN
DD53  F5 00     SBC $00,X @ 78 = 7F             A:81 X:78 Y:21 P:E5 SP:FB CYC:278  C I  -VN
DD55  20 84 F9  JSR $F984                       A:02 X:78 Y:21 P:65 SP:FB CYC:290  C I  -V 
F984  50 07     BVC $F98D                       A:02 X:78 Y:21 P:65 SP:F9 CYC:308  C I  -V 
F986  90 05     BCC $F98D                       A:02 X:78 Y:21 P:65 SP:F9 CYC:314  C I  -V 
F988  C9 02     CMP #$02                        A:02 X:78 Y:21 P:65 SP:F9 CYC:320  C I  -V 
F98A  D0 01     BNE $F98D                       A:02 X:78 Y:21 P:67 SP:F9 CYC:326  CZI  -V 
F98C  60        RTS                             A:02 X:78 Y:21 P:67 SP:F9 CYC:332  CZI  -V 
DD58  A9 AA     LDA #$AA                        A:02 X:78 Y:21 P:67 SP:FB CYC:  9  CZI  -V 
DD5A  85 33     STA $33 = 44                    A:AA X:78 Y:21 P:E5 SP:FB CYC: 15  C I  -VN
DD5C  A9 BB     LDA #$BB                        A:AA X:78 Y:21 P:E5 SP:FB CYC: 24  C I  -VN
DD5E  85 89     STA $89 = BB                    A:BB X:78 Y:21 P:E5 SP:FB CYC: 30  C I  -VN
DD60  A2 00     LDX #$00                        A:BB X:78 Y:21 P:E5 SP:FB CYC: 39  C I  -VN
DD62  A0 66     LDY #$66                        A:BB X:00 Y:21 P:67 SP:FB CYC: 45  CZI  -V 
DD64  24 01     BIT $01 = FF                    A:BB X:00 Y:66 P:65 SP:FB CYC: 51  C I  -V 
DD66  38        SEC                             A:BB X:00 Y:66 P:E5 SP:FB CYC: 60  C I  -VN
DD67  A9 00     LDA #$00                        A:BB X:00 Y:66 P:E5 SP:FB CYC: 66  C I  -VN
DD69  B5 33     LDA $33,X @ 33 = AA             A:00 X:00 Y:66 P:67 SP:FB CYC: 72  CZI  -V 
DD6B  10 12     BPL $DD7F                       A:AA X:00 Y:66 P:E5 SP:FB CYC: 84  C I  -VN
DD6D  F0 10     BEQ $DD7F                       A:AA X:00 Y:66 P:E5 SP:FB CYC: 90  C I  -VN
DD6F  50 0E     BVC $DD7F                       A:AA X:00 Y:66 P:E5 SP:FB CYC: 96  C I  -VN
DD71  90 0C     BCC $DD7F                       A:AA X:00 Y:66 P:E5 SP:FB CYC:102  C I  -VN
DD73  C0 66     CPY #$66                        A:AA X:00 Y:66 P:E5 SP:FB CYC:108  C I  -VN
DD75  D0 08     BNE $DD7F                       A:AA X:00 Y:66 P:67 SP:FB CYC:114  CZI  -V 
DD77  E0 00     CPX #$00                        A:AA X:00 Y:66 P:67 SP:FB CYC:120  CZI  -V 
DD79  D0 04     BNE $DD7F                       A:AA X:00 Y:66 P:67 SP:FB CYC:126  CZI  -V 
DD7B  C9 AA     CMP #$AA                        A:AA X:00 Y:66 P:67 SP:FB CYC:132  CZI  -V 
DD7D  F0 04     BEQ $DD83                       A:AA X:00 Y:66 P:67 SP:FB CYC:138  CZI  -V 
DD83  A2 8A     LDX #$8A                        A:AA X:00 Y:66 P:67 SP:FB CYC:147  CZI  -V 
DD85  A0 66     LDY #$66                        A:AA X:8A Y:66 P:E5 SP:FB CYC:153  C I  -VN
DD87  B8        CLV                             A:AA X:8A Y:66 P:65 SP:FB CYC:159  C I  -V 
DD88  18        CLC                             A:AA X:8A Y:66 P:25 SP:FB CYC:165  C I  -  
DD89  A9 00     LDA #$00                        A:AA X:8A Y:66 P:24 SP:FB CYC:171    I  -  
DD8B  B5 FF     LDA $FF,X @ 89 = BB             A:00 X:8A Y:66 P:26 SP:FB CYC:177   ZI  -  
DD8D  10 12     BPL $DDA1                       A:BB X:8A Y:66 P:A4 SP:FB CYC:189    I  - N
DD8F  F0 10     BEQ $DDA1                       A:BB X:8A Y:66 P:A4 SP:FB CYC:195    I  - N
DD91  70 0E     BVS $DDA1                       A:BB X:8A Y:66 P:A4 SP:FB CYC:201    I  - N
DD93  B0 0C     BCS $DDA1                       A:BB X:8A Y:66 P:A4 SP:FB CYC:207    I  - N
DD95  C9 BB     CMP #$BB                        A:BB X:8A Y:66 P:A4 SP:FB CYC:213    I  - N
DD97  D0 08     BNE $DDA1                       A:BB X:8A Y:66 P:27 SP:FB CYC:219  CZI  -  
DD99  C0 66     CPY #$66                        A:BB X:8A Y:66 P:27 SP:FB CYC:225  CZI  -  
DD9B  D0 04     BNE $DDA1                       A:BB X:8A Y:66 P:27 SP:FB CYC:231  CZI  -  
DD9D  E0 8A     CPX #$8A                        A:BB X:8A Y:66 P:27 SP:FB CYC:237  CZI  -  
DD9F  F0 04     BEQ $DDA5                       A:BB X:8A Y:66 P:27 SP:FB CYC:243  CZI  -  
DDA5  24 01     BIT $01 = FF                    A:BB X:8A Y:66 P:27 SP:FB CYC:252  CZI  -  
DDA7  38        SEC                             A:BB X:8A Y:66 P:E5 SP:FB CYC:261  C I  -VN
DDA8  A9 44     LDA #$44                        A:BB X:8A Y:66 P:E5 SP:FB CYC:267  C I  -VN
DDAA  A2 00     LDX #$00                        A:44 X:8A Y:66 P:65 SP:FB CYC:273  C I  -V 
DDAC  95 33     STA $33,X @ 33 = AA             A:44 X:00 Y:66 P:67 SP:FB CYC:279  CZI  -V 
DDAE  A5 33     LDA $33 = 44                    A:44 X:00 Y:66 P:67 SP:FB CYC:291  CZI  -V 
DDB0  90 18     BCC $DDCA                       A:44 X:00 Y:66 P:65 SP:FB CYC:300  C I  -V 
DDB2  C9 44     CMP #$44                        A:44 X:00 Y:66 P:65 SP:FB CYC:306  C I  -V 
DDB4  D0 14     BNE $DDCA                       A:44 X:00 Y:66 P:67 SP:FB CYC:312  CZI  -V 
DDB6  50 12     BVC $DDCA                       A:44 X:00 Y:66 P:67 SP:FB CYC:318  CZI  -V 
DDB8  18        CLC                             A:44 X:00 Y:66 P:67 SP:FB CYC:324  CZI  -V 
DDB9  B8        CLV                             A:44 X:00 Y:66 P:66 SP:FB CYC:330   ZI  -V 
DDBA  A9 99     LDA #$99                        A:44 X:00 Y:66 P:26 SP:FB CYC:336   ZI  -  
DDBC  A2 80     LDX #$80                        A:99 X:00 Y:66 P:A4 SP:FB CYC:  1    I  - N
DDBE  95 85     STA $85,X @ 05 = 99             A:99 X:80 Y:66 P:A4 SP:FB CYC:  7    I  - N
DDC0  A5 05     LDA $05 = 99                    A:99 X:80 Y:66 P:A4 SP:FB CYC: 19    I  - N
DDC2  B0 06     BCS $DDCA                       A:99 X:80 Y:66 P:A4 SP:FB CYC: 28    I  - N
DDC4  C9 99     CMP #$99                        A:99 X:80 Y:66 P:A4 SP:FB CYC: 34    I  - N
DDC6  D0 02     BNE $DDCA                       A:99 X:80 Y:66 P:27 SP:FB CYC: 40  CZI  -  
DDC8  50 04     BVC $DDCE                       A:99 X:80 Y:66 P:27 SP:FB CYC: 46  CZI  -  
DDCE  A0 25     LDY #$25                        A:99 X:80 Y:66 P:27 SP:FB CYC: 55  CZI  -  
DDD0  A2 78     LDX #$78                        A:99 X:80 Y:25 P:25 SP:FB CYC: 61  C I  -  
DDD2  20 90 F9  JSR $F990                       A:99 X:78 Y:25 P:25 SP:FB CYC: 67  C I  -  
F990  A2 55     LDX #$55                        A:99 X:78 Y:25 P:25 SP:F9 CYC: 85  C I  -  
F992  A9 FF     LDA #$FF                        A:99 X:55 Y:25 P:25 SP:F9 CYC: 91  C I  -  
F994  85 01     STA $01 = FF                    A:FF X:55 Y:25 P:A5 SP:F9 CYC: 97  C I  - N
F996  EA        NOP                             A:FF X:55 Y:25 P:A5 SP:F9 CYC:106  C I  - N
F997  24 01     BIT $01 = FF                    A:FF X:55 Y:25 P:A5 SP:F9 CYC:112  C I  - N
F999  38        SEC                             A:FF X:55 Y:25 P:E5 SP:F9 CYC:121  C I  -VN
F99A  A9 01     LDA #$01                        A:FF X:55 Y:25 P:E5 SP:F9 CYC:127  C I  -VN
F99C  60        RTS                             A:01 X:55 Y:25 P:65 SP:F9 CYC:133  C I  -V 
DDD5  95 00     STA $00,X @ 55 = 00             A:01 X:55 Y:25 P:65 SP:FB CYC:151  C I  -V 
DDD7  56 00     LSR $00,X @ 55 = 01             A:01 X:55 Y:25 P:65 SP:FB CYC:163  C I  -V 
DDD9  B5 00     LDA $00,X @ 55 = 00             A:01 X:55 Y:25 P:67 SP:FB CYC:181  CZI  -V 
DDDB  20 9D F9  JSR $F99D                       A:00 X:55 Y:25 P:67 SP:FB CYC:193  CZI  -V 
F99D  90 1B     BCC $F9BA                       A:00 X:55 Y:25 P:67 SP:F9 CYC:211  CZI  -V 
F99F  D0 19     BNE $F9BA                       A:00 X:55 Y:25 P:67 SP:F9 CYC:217  CZI  -V 
F9A1  30 17     BMI $F9BA                       A:00 X:55 Y:25 P:67 SP:F9 CYC:223  CZI  -V 
F9A3  50 15     BVC $F9BA                       A:00 X:55 Y:25 P:67 SP:F9 CYC:229  CZI  -V 
F9A5  C9 00     CMP #$00                        A:00 X:55 Y:25 P:67 SP:F9 CYC:235  CZI  -V 
F9A7  D0 11     BNE $F9BA                       A:00 X:55 Y:25 P:67 SP:F9 CYC:241  CZI  -V 
F9A9  B8        CLV                             A:00 X:55 Y:25 P:67 SP:F9 CYC:247  CZI  -V 
F9AA  A9 AA     LDA #$AA                        A:00 X:55 Y:25 P:27 SP:F9 CYC:253  CZI  -  
F9AC  60        RTS                             A:AA X:55 Y:25 P:A5 SP:F9 CYC:259  C I  - N
DDDE  C8        INY                             A:AA X:55 Y:25 P:A5 SP:FB CYC:277  C I  - N
DDDF  95 00     STA $00,X @ 55 = 00             A:AA X:55 Y:26 P:25 SP:FB CYC:283  C I  -  
DDE1  56 00     LSR $00,X @ 55 = AA             A:AA X:55 Y:26 P:25 SP:FB CYC:295  C I  -  
DDE3  B5 00     LDA $00,X @ 55 = 55             A:AA X:55 Y:26 P:24 SP:FB CYC:313    I  -  
DDE5  20 AD F9  JSR $F9AD                       A:55 X:55 Y:26 P:24 SP:FB CYC:325    I  -  
F9AD  B0 0B     BCS $F9BA                       A:55 X:55 Y:26 P:24 SP:F9 CYC:  2    I  -  
F9AF  F0 09     BEQ $F9BA                       A:55 X:55 Y:26 P:24 SP:F9 CYC:  8    I  -  
F9B1  30 07     BMI $F9BA                       A:55 X:55 Y:26 P:24 SP:F9 CYC: 14    I  -  
F9B3  70 05     BVS $F9BA                       A:55 X:55 Y:26 P:24 SP:F9 CYC: 20    I  -  
F9B5  C9 55     CMP #$55                        A:55 X:55 Y:26 P:24 SP:F9 CYC: 26    I  -  
F9B7  D0 01     BNE $F9BA                       A:55 X:55 Y:26 P:27 SP:F9 CYC: 32  CZI  -  
F9B9  60        RTS                             A:55 X:55 Y:26 P:27 SP:F9 CYC: 38  CZI  -  
DDE8  C8        INY                             A:55 X:55 Y:26 P:27 SP:FB CYC: 56  CZI  -  
DDE9  20 BD F9  JSR $F9BD                       A:55 X:55 Y:27 P:25 SP:FB CYC: 62  C I  -  
F9BD  24 01     BIT $01 = FF                    A:55 X:55 Y:27 P:25 SP:F9 CYC: 80  C I  -  
F9BF  38        SEC                             A:55 X:55 Y:27 P:E5 SP:F9 CYC: 89  C I  -VN
F9C0  A9 80     LDA #$80                        A:55 X:55 Y:27 P:E5 SP:F9 CYC: 95  C I  -VN
F9C2  60        RTS                             A:80 X:55 Y:27 P:E5 SP:F9 CYC:101  C I  -VN
DDEC  95 00     STA $00,X @ 55 = 55             A:80 X:55 Y:27 P:E5 SP:FB CYC:119  C I  -VN
DDEE  16 00     ASL $00,X @ 55 = 80             A:80 X:55 Y:27 P:E5 SP:FB CYC:131  C I  -VN
DDF0  B5 00     LDA $00,X @ 55 = 00             A:80 X:55 Y:27 P:67 SP:FB CYC:149  CZI  -V 
DDF2  20 C3 F9  JSR $F9C3                       A:00 X:55 Y:27 P:67 SP:FB CYC:161  CZI  -V 
F9C3  90 1C     BCC $F9E1                       A:00 X:55 Y:27 P:67 SP:F9 CYC:179  CZI  -V 
F9C5  D0 1A     BNE $F9E1                       A:00 X:55 Y:27 P:67 SP:F9 CYC:185  CZI  -V 
F9C7  30 18     BMI $F9E1                       A:00 X:55 Y:27 P:67 SP:F9 CYC:191  CZI  -V 
F9C9  50 16     BVC $F9E1                       A:00 X:55 Y:27 P:67 SP:F9 CYC:197  CZI  -V 
F9CB  C9 00     CMP #$00                        A:00 X:55 Y:27 P:67 SP:F9 CYC:203  CZI  -V 
F9CD  D0 12     BNE $F9E1                       A:00 X:55 Y:27 P:67 SP:F9 CYC:209  CZI  -V 
F9CF  B8        CLV                             A:00 X:55 Y:27 P:67 SP:F9 CYC:215  CZI  -V 
F9D0  A9 55     LDA #$55                        A:00 X:55 Y:27 P:27 SP:F9 CYC:221  CZI  -  
F9D2  38        SEC                             A:55 X:55 Y:27 P:25 SP:F9 CYC:227  C I  -  
F9D3  60        RTS                             A:55 X:55 Y:27 P:25 SP:F9 CYC:233  C I  -  
DDF5  C8        INY                             A:55 X:55 Y:27 P:25 SP:FB CYC:251  C I  -  
DDF6  95 00     STA $00,X @ 55 = 00             A:55 X:55 Y:28 P:25 SP:FB CYC:257  C I  -  
DDF8  16 00     ASL $00,X @ 55 = 55             A:55 X:55 Y:28 P:25 SP:FB CYC:269  C I  -  
DDFA  B5 00     LDA $00,X @ 55 = AA             A:55 X:55 Y:28 P:A4 SP:FB CYC:287    I  - N
DDFC  20 D4 F9  JSR $F9D4                       A:AA X:55 Y:28 P:A4 SP:FB CYC:299    I  - N
F9D4  B0 0B     BCS $F9E1                       A:AA X:55 Y:28 P:A4 SP:F9 CYC:317    I  - N
F9D6  F0 09     BEQ $F9E1                       A:AA X:55 Y:28 P:A4 SP:F9 CYC:323    I  - N
F9D8  10 07     BPL $F9E1                       A:AA X:55 Y:28 P:A4 SP:F9 CYC:329    I  - N
F9DA  70 05     BVS $F9E1                       A:AA X:55 Y:28 P:A4 SP:F9 CYC:335    I  - N
F9DC  C9 AA     CMP #$AA                        A:AA X:55 Y:28 P:A4 SP:F9 CYC:  0    I  - N
F9DE  D0 01     BNE $F9E1                       A:AA X:55 Y:28 P:27 SP:F9 CYC:  6  CZI  -  
F9E0  60        RTS                             A:AA X:55 Y:28 P:27 SP:F9 CYC: 12  CZI  -  
DDFF  C8        INY                             A:AA X:55 Y:28 P:27 SP:FB CYC: 30  CZI  -  
DE00  20 E4 F9  JSR $F9E4                       A:AA X:55 Y:29 P:25 SP:FB CYC: 36  C I  -  
F9E4  24 01     BIT $01 = FF                    A:AA X:55 Y:29 P:25 SP:F9 CYC: 54  C I  -  
F9E6  38        SEC                             A:AA X:55 Y:29 P:E5 SP:F9 CYC: 63  C I  -VN
F9E7  A9 01     LDA #$01                        A:AA X:55 Y:29 P:E5 SP:F9 CYC: 69  C I  -VN
F9E9  60        RTS                             A:01 X:55 Y:29 P:65 SP:F9 CYC: 75  C I  -V 
DE03  95 00     STA $00,X @ 55 = AA             A:01 X:55 Y:29 P:65 SP:FB CYC: 93  C I  -V 
DE05  76 00     ROR $00,X @ 55 = 01             A:01 X:55 Y:29 P:65 SP:FB CYC:105  C I  -V 
DE07  B5 00     LDA $00,X @ 55 = 80             A:01 X:55 Y:29 P:E5 SP:FB CYC:123  C I  -VN
DE09  20 EA F9  JSR $F9EA                       A:80 X:55 Y:29 P:E5 SP:FB CYC:135  C I  -VN
F9EA  90 1C     BCC $FA08                       A:80 X:55 Y:29 P:E5 SP:F9 CYC:153  C I  -VN
F9EC  F0 1A     BEQ $FA08                       A:80 X:55 Y:29 P:E5 SP:F9 CYC:159  C I  -VN
F9EE  10 18     BPL $FA08                       A:80 X:55 Y:29 P:E5 SP:F9 CYC:165  C I  -VN
F9F0  50 16     BVC $FA08                       A:80 X:55 Y:29 P:E5 SP:F9 CYC:171  C I  -VN
F9F2  C9 80     CMP #$80                        A:80 X:55 Y:29 P:E5 SP:F9 CYC:177  C I  -VN
F9F4  D0 12     BNE $FA08                       A:80 X:55 Y:29 P:67 SP:F9 CYC:183  CZI  -V 
F9F6  B8        CLV                             A:80 X:55 Y:29 P:67 SP:F9 CYC:189  CZI  -V 
F9F7  18        CLC                             A:80 X:55 Y:29 P:27 SP:F9 CYC:195  CZI  -  
F9F8  A9 55     LDA #$55                        A:80 X:55 Y:29 P:26 SP:F9 CYC:201   ZI  -  
F9FA  60        RTS                             A:55 X:55 Y:29 P:24 SP:F9 CYC:207    I  -  
DE0C  C8        INY                             A:55 X:55 Y:29 P:24 SP:FB CYC:225    I  -  
DE0D  95 00     STA $00,X @ 55 = 80             A:55 X:55 Y:2A P:24 SP:FB CYC:231    I  -  
DE0F  76 00     ROR $00,X @ 55 = 55             A:55 X:55 Y:2A P:24 SP:FB CYC:243    I  -  
DE11  B5 00     LDA $00,X @ 55 = 2A             A:55 X:55 Y:2A P:25 SP:FB CYC:261  C I  -  
DE13  20 FB F9  JSR $F9FB                       A:2A X:55 Y:2A P:25 SP:FB CYC:273  C I  -  
F9FB  90 0B     BCC $FA08                       A:2A X:55 Y:2A P:25 SP:F9 CYC:291  C I  -  
F9FD  F0 09     BEQ $FA08                       A:2A X:55 Y:2A P:25 SP:F9 CYC:297  C I  -  
F9FF  30 07     BMI $FA08                       A:2A X:55 Y:2A P:25 SP:F9 CYC:303  C I  -  
FA01  70 05     BVS $FA08                       A:2A X:55 Y:2A P:25 SP:F9 CYC:309  C I  -  
FA03  C9 2A     CMP #$2A                        A:2A X:55 Y:2A P:25 SP:F9 CYC:315  C I  -  
FA05  D0 01     BNE $FA08                       A:2A X:55 Y:2A P:27 SP:F9 CYC:321  CZI  -  
FA07  60        RTS                             A:2A X:55 Y:2A P:27 SP:F9 CYC:327  CZI  -  
DE16  C8        INY                             A:2A X:55 Y:2A P:27 SP:FB CYC:  4  CZI  -  
DE17  20 0A FA  JSR $FA0A                       A:2A X:55 Y:2B P:25 SP:FB CYC: 10  C I  -  
FA0A  24 01     BIT $01 = FF                    A:2A X:55 Y:2B P:25 SP:F9 CYC: 28  C I  -  
FA0C  38        SEC                             A:2A X:55 Y:2B P:E5 SP:F9 CYC: 37  C I  -VN
FA0D  A9 80     LDA #$80                        A:2A X:55 Y:2B P:E5 SP:F9 CYC: 43  C I  -VN
FA0F  60        RTS                             A:80 X:55 Y:2B P:E5 SP:F9 CYC: 49  C I  -VN
DE1A  95 00     STA $00,X @ 55 = 2A             A:80 X:55 Y:2B P:E5 SP:FB CYC: 67  C I  -VN
DE1C  36 00     ROL $00,X @ 55 = 80             A:80 X:55 Y:2B P:E5 SP:FB CYC: 79  C I  -VN
DE1E  B5 00     LDA $00,X @ 55 = 01             A:80 X:55 Y:2B P:65 SP:FB CYC: 97  C I  -V 
DE20  20 10 FA  JSR $FA10                       A:01 X:55 Y:2B P:65 SP:FB CYC:109  C I  -V 
FA10  90 1C     BCC $FA2E                       A:01 X:55 Y:2B P:65 SP:F9 CYC:127  C I  -V 
FA12  F0 1A     BEQ $FA2E                       A:01 X:55 Y:2B P:65 SP:F9 CYC:133  C I  -V 
FA14  30 18     BMI $FA2E                       A:01 X:55 Y:2B P:65 SP:F9 CYC:139  C I  -V 
FA16  50 16     BVC $FA2E                       A:01 X:55 Y:2B P:65 SP:F9 CYC:145  C I  -V 
FA18  C9 01     CMP #$01                        A:01 X:55 Y:2B P:65 SP:F9 CYC:151  C I  -V 
FA1A  D0 12     BNE $FA2E                       A:01 X:55 Y:2B P:67 SP:F9 CYC:157  CZI  -V 
FA1C  B8        CLV                             A:01 X:55 Y:2B P:67 SP:F9 CYC:163  CZI  -V 
FA1D  18        CLC                             A:01 X:55 Y:2B P:27 SP:F9 CYC:169  CZI  -  
FA1E  A9 55     LDA #$55                        A:01 X:55 Y:2B P:26 SP:F9 CYC:175   ZI  -  
FA20  60        RTS                             A:55 X:55 Y:2B P:24 SP:F9 CYC:181    I  -  
DE23  C8        INY                             A:55 X:55 Y:2B P:24 SP:FB CYC:199    I  -  
DE24  95 00     STA $00,X @ 55 = 01             A:55 X:55 Y:2C P:24 SP:FB CYC:205    I  -  
DE26  36 00     ROL $00,X @ 55 = 55             A:55 X:55 Y:2C P:24 SP:FB CYC:217    I  -  
DE28  B5 00     LDA $00,X @ 55 = AA             A:55 X:55 Y:2C P:A4 SP:FB CYC:235    I  - N
DE2A  20 21 FA  JSR $FA21                       A:AA X:55 Y:2C P:A4 SP:FB CYC:247    I  - N
FA21  B0 0B     BCS $FA2E                       A:AA X:55 Y:2C P:A4 SP:F9 CYC:265    I  - N
FA23  F0 09     BEQ $FA2E                       A:AA X:55 Y:2C P:A4 SP:F9 CYC:271    I  - N
FA25  10 07     BPL $FA2E                       A:AA X:55 Y:2C P:A4 SP:F9 CYC:277    I  - N
FA27  70 05     BVS $FA2E                       A:AA X:55 Y:2C P:A4 SP:F9 CYC:283    I  - N
FA29  C9 AA     CMP #$AA                        A:AA X:55 Y:2C P:A4 SP:F9 CYC:289    I  - N
FA2B  D0 01     BNE $FA2E                       A:AA X:55 Y:2C P:27 SP:F9 CYC:295  CZI  -  
FA2D  60        RTS                             A:AA X:55 Y:2C P:27 SP:F9 CYC:301  CZI  -  
DE2D  A9 FF     LDA #$FF                        A:AA X:55 Y:2C P:27 SP:FB CYC:319  CZI  -  
DE2F  95 00     STA $00,X @ 55 = AA             A:FF X:55 Y:2C P:A5 SP:FB CYC:325  C I  - N
DE31  85 01     STA $01 = FF                    A:FF X:55 Y:2C P:A5 SP:FB CYC:337  C I  - N
DE33  24 01     BIT $01 = FF                    A:FF X:55 Y:2C P:A5 SP:FB CYC:  5  C I  - N
DE35  38        SEC                             A:FF X:55 Y:2C P:E5 SP:FB CYC: 14  C I  -VN
DE36  F6 00     INC $00,X @ 55 = FF             A:FF X:55 Y:2C P:E5 SP:FB CYC: 20  C I  -VN
DE38  D0 0C     BNE $DE46                       A:FF X:55 Y:2C P:67 SP:FB CYC: 38  CZI  -V 
DE3A  30 0A     BMI $DE46                       A:FF X:55 Y:2C P:67 SP:FB CYC: 44  CZI  -V 
DE3C  50 08     BVC $DE46                       A:FF X:55 Y:2C P:67 SP:FB CYC: 50  CZI  -V 
DE3E  90 06     BCC $DE46                       A:FF X:55 Y:2C P:67 SP:FB CYC: 56  CZI  -V 
DE40  B5 00     LDA $00,X @ 55 = 00             A:FF X:55 Y:2C P:67 SP:FB CYC: 62  CZI  -V 
DE42  C9 00     CMP #$00                        A:00 X:55 Y:2C P:67 SP:FB CYC: 74  CZI  -V 
DE44  F0 04     BEQ $DE4A                       A:00 X:55 Y:2C P:67 SP:FB CYC: 80  CZI  -V 
DE4A  A9 7F     LDA #$7F                        A:00 X:55 Y:2C P:67 SP:FB CYC: 89  CZI  -V 
DE4C  95 00     STA $00,X @ 55 = 00             A:7F X:55 Y:2C P:65 SP:FB CYC: 95  C I  -V 
DE4E  B8        CLV                             A:7F X:55 Y:2C P:65 SP:FB CYC:107  C I  -V 
DE4F  18        CLC                             A:7F X:55 Y:2C P:25 SP:FB CYC:113  C I  -  
DE50  F6 00     INC $00,X @ 55 = 7F             A:7F X:55 Y:2C P:24 SP:FB CYC:119    I  -  
DE52  F0 0C     BEQ $DE60                       A:7F X:55 Y:2C P:A4 SP:FB CYC:137    I  - N
DE54  10 0A     BPL $DE60                       A:7F X:55 Y:2C P:A4 SP:FB CYC:143    I  - N
DE56  70 08     BVS $DE60                       A:7F X:55 Y:2C P:A4 SP:FB CYC:149    I  - N
DE58  B0 06     BCS $DE60                       A:7F X:55 Y:2C P:A4 SP:FB CYC:155    I  - N
DE5A  B5 00     LDA $00,X @ 55 = 80             A:7F X:55 Y:2C P:A4 SP:FB CYC:161    I  - N
DE5C  C9 80     CMP #$80                        A:80 X:55 Y:2C P:A4 SP:FB CYC:173    I  - N
DE5E  F0 04     BEQ $DE64                       A:80 X:55 Y:2C P:27 SP:FB CYC:179  CZI  -  
DE64  A9 00     LDA #$00                        A:80 X:55 Y:2C P:27 SP:FB CYC:188  CZI  -  
DE66  95 00     STA $00,X @ 55 = 80             A:00 X:55 Y:2C P:27 SP:FB CYC:194  CZI  -  
DE68  24 01     BIT $01 = FF                    A:00 X:55 Y:2C P:27 SP:FB CYC:206  CZI  -  
DE6A  38        SEC                             A:00 X:55 Y:2C P:E7 SP:FB CYC:215  CZI  -VN
DE6B  D6 00     DEC $00,X @ 55 = 00             A:00 X:55 Y:2C P:E7 SP:FB CYC:221  CZI  -VN
DE6D  F0 0C     BEQ $DE7B                       A:00 X:55 Y:2C P:E5 SP:FB CYC:239  C I  -VN
DE6F  10 0A     BPL $DE7B                       A:00 X:55 Y:2C P:E5 SP:FB CYC:245  C I  -VN
DE71  50 08     BVC $DE7B                       A:00 X:55 Y:2C P:E5 SP:FB CYC:251  C I  -VN
DE73  90 06     BCC $DE7B                       A:00 X:55 Y:2C P:E5 SP:FB CYC:257  C I  -VN
DE75  B5 00     LDA $00,X @ 55 = FF             A:00 X:55 Y:2C P:E5 SP:FB CYC:263  C I  -VN
DE77  C9 FF     CMP #$FF                        A:FF X:55 Y:2C P:E5 SP:FB CYC:275  C I  -VN
DE79  F0 04     BEQ $DE7F                       A:FF X:55 Y:2C P:67 SP:FB CYC:281  CZI  -V 
DE7F  A9 80     LDA #$80                        A:FF X:55 Y:2C P:67 SP:FB CYC:290  CZI  -V 
DE81  95 00     STA $00,X @ 55 = FF             A:80 X:55 Y:2C P:E5 SP:FB CYC:296  C I  -VN
DE83  B8        CLV                             A:80 X:55 Y:2C P:E5 SP:FB CYC:308  C I  -VN
DE84  18        CLC                             A:80 X:55 Y:2C P:A5 SP:FB CYC:314  C I  - N
DE85  D6 00     DEC $00,X @ 55 = 80             A:80 X:55 Y:2C P:A4 SP:FB CYC:320    I  - N
DE87  F0 0C     BEQ $DE95                       A:80 X:55 Y:2C P:24 SP:FB CYC:338    I  -  
DE89  30 0A     BMI $DE95                       A:80 X:55 Y:2C P:24 SP:FB CYC:  3    I  -  
DE8B  70 08     BVS $DE95                       A:80 X:55 Y:2C P:24 SP:FB CYC:  9    I  -  
DE8D  B0 06     BCS $DE95                       A:80 X:55 Y:2C P:24 SP:FB CYC: 15    I  -  
DE8F  B5 00     LDA $00,X @ 55 = 7F             A:80 X:55 Y:2C P:24 SP:FB CYC: 21    I  -  
DE91  C9 7F     CMP #$7F                        A:7F X:55 Y:2C P:24 SP:FB CYC: 33    I  -  
DE93  F0 04     BEQ $DE99                       A:7F X:55 Y:2C P:27 SP:FB CYC: 39  CZI  -  
DE99  A9 01     LDA #$01                        A:7F X:55 Y:2C P:27 SP:FB CYC: 48  CZI  -  
DE9B  95 00     STA $00,X @ 55 = 7F             A:01 X:55 Y:2C P:25 SP:FB CYC: 54  C I  -  
DE9D  D6 00     DEC $00,X @ 55 = 01             A:01 X:55 Y:2C P:25 SP:FB CYC: 66  C I  -  
DE9F  F0 04     BEQ $DEA5                       A:01 X:55 Y:2C P:27 SP:FB CYC: 84  CZI  -  
DEA5  A9 33     LDA #$33                        A:01 X:55 Y:2C P:27 SP:FB CYC: 93  CZI  -  
DEA7  85 78     STA $78 = 7F                    A:33 X:55 Y:2C P:25 SP:FB CYC: 99  C I  -  
DEA9  A9 44     LDA #$44                        A:33 X:55 Y:2C P:25 SP:FB CYC:108  C I  -  
DEAB  A0 78     LDY #$78                        A:44 X:55 Y:2C P:25 SP:FB CYC:114  C I  -  
DEAD  A2 00     LDX #$00                        A:44 X:55 Y:78 P:25 SP:FB CYC:120  C I  -  
DEAF  38        SEC                             A:44 X:00 Y:78 P:27 SP:FB CYC:126  CZI  -  
DEB0  24 01     BIT $01 = FF                    A:44 X:00 Y:78 P:27 SP:FB CYC:132  CZI  -  
DEB2  B6 00     LDX $00,Y @ 78 = 33             A:44 X:00 Y:78 P:E5 SP:FB CYC:141  C I  -VN
DEB4  90 12     BCC $DEC8                       A:44 X:33 Y:78 P:65 SP:FB CYC:153  C I  -V 
DEB6  50 10     BVC $DEC8                       A:44 X:33 Y:78 P:65 SP:FB CYC:159  C I  -V 
DEB8  30 0E     BMI $DEC8                       A:44 X:33 Y:78 P:65 SP:FB CYC:165  C I  -V 
DEBA  F0 0C     BEQ $DEC8                       A:44 X:33 Y:78 P:65 SP:FB CYC:171  C I  -V 
DEBC  E0 33     CPX #$33                        A:44 X:33 Y:78 P:65 SP:FB CYC:177  C I  -V 
DEBE  D0 08     BNE $DEC8                       A:44 X:33 Y:78 P:67 SP:FB CYC:183  CZI  -V 
DEC0  C0 78     CPY #$78                        A:44 X:33 Y:78 P:67 SP:FB CYC:189  CZI  -V 
DEC2  D0 04     BNE $DEC8                       A:44 X:33 Y:78 P:67 SP:FB CYC:195  CZI  -V 
DEC4  C9 44     CMP #$44                        A:44 X:33 Y:78 P:67 SP:FB CYC:201  CZI  -V 
DEC6  F0 04     BEQ $DECC                       A:44 X:33 Y:78 P:67 SP:FB CYC:207  CZI  -V 
DECC  A9 97     LDA #$97                        A:44 X:33 Y:78 P:67 SP:FB CYC:216  CZI  -V 
DECE  85 7F     STA $7F = 00                    A:97 X:33 Y:78 P:E5 SP:FB CYC:222  C I  -VN
DED0  A9 47     LDA #$47                        A:97 X:33 Y:78 P:E5 SP:FB CYC:231  C I  -VN
DED2  A0 FF     LDY #$FF                        A:47 X:33 Y:78 P:65 SP:FB CYC:237  C I  -V 
DED4  A2 00     LDX #$00                        A:47 X:33 Y:FF P:E5 SP:FB CYC:243  C I  -VN
DED6  18        CLC                             A:47 X:00 Y:FF P:67 SP:FB CYC:249  CZI  -V 
DED7  B8        CLV                             A:47 X:00 Y:FF P:66 SP:FB CYC:255   ZI  -V 
DED8  B6 80     LDX $80,Y @ 7F = 97             A:47 X:00 Y:FF P:26 SP:FB CYC:261   ZI  -  
DEDA  B0 12     BCS $DEEE                       A:47 X:97 Y:FF P:A4 SP:FB CYC:273    I  - N
DEDC  70 10     BVS $DEEE                       A:47 X:97 Y:FF P:A4 SP:FB CYC:279    I  - N
DEDE  10 0E     BPL $DEEE                       A:47 X:97 Y:FF P:A4 SP:FB CYC:285    I  - N
DEE0  F0 0C     BEQ $DEEE                       A:47 X:97 Y:FF P:A4 SP:FB CYC:291    I  - N
DEE2  E0 97     CPX #$97                        A:47 X:97 Y:FF P:A4 SP:FB CYC:297    I  - N
DEE4  D0 08     BNE $DEEE                       A:47 X:97 Y:FF P:27 SP:FB CYC:303  CZI  -  
DEE6  C0 FF     CPY #$FF                        A:47 X:97 Y:FF P:27 SP:FB CYC:309  CZI  -  
DEE8  D0 04     BNE $DEEE                       A:47 X:97 Y:FF P:27 SP:FB CYC:315  CZI  -  
DEEA  C9 47     CMP #$47                        A:47 X:97 Y:FF P:27 SP:FB CYC:321  CZI  -  
DEEC  F0 04     BEQ $DEF2                       A:47 X:97 Y:FF P:27 SP:FB CYC:327  CZI  -  
DEF2  A9 00     LDA #$00                        A:47 X:97 Y:FF P:27 SP:FB CYC:336  CZI  -  
DEF4  85 7F     STA $7F = 97                    A:00 X:97 Y:FF P:27 SP:FB CYC:  1  CZI  -  
DEF6  A9 47     LDA #$47                        A:00 X:97 Y:FF P:27 SP:FB CYC: 10  CZI  -  
DEF8  A0 FF     LDY #$FF                        A:47 X:97 Y:FF P:25 SP:FB CYC: 16  C I  -  
DEFA  A2 69     LDX #$69                        A:47 X:97 Y:FF P:A5 SP:FB CYC: 22  C I  - N
DEFC  18        CLC                             A:47 X:69 Y:FF P:25 SP:FB CYC: 28  C I  -  
DEFD  B8        CLV                             A:47 X:69 Y:FF P:24 SP:FB CYC: 34    I  -  
DEFE  96 80     STX $80,Y @ 7F = 00             A:47 X:69 Y:FF P:24 SP:FB CYC: 40    I  -  
DF00  B0 18     BCS $DF1A                       A:47 X:69 Y:FF P:24 SP:FB CYC: 52    I  -  
DF02  70 16     BVS $DF1A                       A:47 X:69 Y:FF P:24 SP:FB CYC: 58    I  -  
DF04  30 14     BMI $DF1A                       A:47 X:69 Y:FF P:24 SP:FB CYC: 64    I  -  
DF06  F0 12     BEQ $DF1A                       A:47 X:69 Y:FF P:24 SP:FB CYC: 70    I  -  
DF08  E0 69     CPX #$69                        A:47 X:69 Y:FF P:24 SP:FB CYC: 76    I  -  
DF0A  D0 0E     BNE $DF1A                       A:47 X:69 Y:FF P:27 SP:FB CYC: 82  CZI  -  
DF0C  C0 FF     CPY #$FF                        A:47 X:69 Y:FF P:27 SP:FB CYC: 88  CZI  -  
DF0E  D0 0A     BNE $DF1A                       A:47 X:69 Y:FF P:27 SP:FB CYC: 94  CZI  -  
DF10  C9 47     CMP #$47                        A:47 X:69 Y:FF P:27 SP:FB CYC:100  CZI  -  
DF12  D0 06     BNE $DF1A                       A:47 X:69 Y:FF P:27 SP:FB CYC:106  CZI  -  
DF14  A5 7F     LDA $7F = 69                    A:47 X:69 Y:FF P:27 SP:FB CYC:112  CZI  -  
DF16  C9 69     CMP #$69                        A:69 X:69 Y:FF P:25 SP:FB CYC:121  C I  -  
DF18  F0 04     BEQ $DF1E                       A:69 X:69 Y:FF P:27 SP:FB CYC:127  CZI  -  
DF1E  A9 F5     LDA #$F5                        A:69 X:69 Y:FF P:27 SP:FB CYC:136  CZI  -  
DF20  85 4F     STA $4F = 00                    A:F5 X:69 Y:FF P:A5 SP:FB CYC:142  C I  - N
DF22  A9 47     LDA #$47                        A:F5 X:69 Y:FF P:A5 SP:FB CYC:151  C I  - N
DF24  A0 4F     LDY #$4F                        A:47 X:69 Y:FF P:25 SP:FB CYC:157  C I  -  
DF26  24 01     BIT $01 = FF                    A:47 X:69 Y:4F P:25 SP:FB CYC:163  C I  -  
DF28  A2 00     LDX #$00                        A:47 X:69 Y:4F P:E5 SP:FB CYC:172  C I  -VN
DF2A  38        SEC                             A:47 X:00 Y:4F P:67 SP:FB CYC:178  CZI  -V 
DF2B  96 00     STX $00,Y @ 4F = F5             A:47 X:00 Y:4F P:67 SP:FB CYC:184  CZI  -V 
DF2D  90 16     BCC $DF45                       A:47 X:00 Y:4F P:67 SP:FB CYC:196  CZI  -V 
DF2F  50 14     BVC $DF45                       A:47 X:00 Y:4F P:67 SP:FB CYC:202  CZI  -V 
DF31  30 12     BMI $DF45                       A:47 X:00 Y:4F P:67 SP:FB CYC:208  CZI  -V 
DF33  D0 10     BNE $DF45                       A:47 X:00 Y:4F P:67 SP:FB CYC:214  CZI  -V 
DF35  E0 00     CPX #$00                        A:47 X:00 Y:4F P:67 SP:FB CYC:220  CZI  -V 
DF37  D0 0C     BNE $DF45                       A:47 X:00 Y:4F P:67 SP:FB CYC:226  CZI  -V 
DF39  C0 4F     CPY #$4F                        A:47 X:00 Y:4F P:67 SP:FB CYC:232  CZI  -V 
DF3B  D0 08     BNE $DF45                       A:47 X:00 Y:4F P:67 SP:FB CYC:238  CZI  -V 
DF3D  C9 47     CMP #$47                        A:47 X:00 Y:4F P:67 SP:FB CYC:244  CZI  -V 
DF3F  D0 04     BNE $DF45                       A:47 X:00 Y:4F P:67 SP:FB CYC:250  CZI  -V 
DF41  A5 4F     LDA $4F = 00                    A:47 X:00 Y:4F P:67 SP:FB CYC:256  CZI  -V 
DF43  F0 04     BEQ $DF49                       A:00 X:00 Y:4F P:67 SP:FB CYC:265  CZI  -V 
DF49  60        RTS                             A:00 X:00 Y:4F P:67 SP:FB CYC:274  CZI  -V 
C62C  20 AA E1  JSR $E1AA                       A:00 X:00 Y:4F P:67 SP:FD CYC:292  CZI  -V 
E1AA  A9 FF     LDA #$FF                        A:00 X:00 Y:4F P:67 SP:FB CYC:310  CZI  -V 
E1AC  85 01     STA $01 = FF                    A:FF X:00 Y:4F P:E5 SP:FB CYC:316  C I  -VN
E1AE  A9 AA     LDA #$AA                        A:FF X:00 Y:4F P:E5 SP:FB CYC:325  C I  -VN
E1B0  8D 33 06  STA $0633 = 00                  A:AA X:00 Y:4F P:E5 SP:FB CYC:331  C I  -VN
E1B3  A9 BB     LDA #$BB                        A:AA X:00 Y:4F P:E5 SP:FB CYC:  2  C I  -VN
E1B5  8D 89 06  STA $0689 = 00                  A:BB X:00 Y:4F P:E5 SP:FB CYC:  8  C I  -VN
E1B8  A2 00     LDX #$00                        A:BB X:00 Y:4F P:E5 SP:FB CYC: 20  C I  -VN
E1BA  A9 66     LDA #$66                        A:BB X:00 Y:4F P:67 SP:FB CYC: 26  CZI  -V 
E1BC  24 01     BIT $01 = FF                    A:66 X:00 Y:4F P:65 SP:FB CYC: 32  C I  -V 
E1BE  38        SEC                             A:66 X:00 Y:4F P:E5 SP:FB CYC: 41  C I  -VN
E1BF  A0 00     LDY #$00                        A:66 X:00 Y:4F P:E5 SP:FB CYC: 47  C I  -VN
E1C1  BC 33 06  LDY $0633,X @ 0633 = AA         A:66 X:00 Y:00 P:67 SP:FB CYC: 53  CZI  -V 
E1C4  10 12     BPL $E1D8                       A:66 X:00 Y:AA P:E5 SP:FB CYC: 65  C I  -VN
E1C6  F0 10     BEQ $E1D8                       A:66 X:00 Y:AA P:E5 SP:FB CYC: 71  C I  -VN
E1C8  50 0E     BVC $E1D8                       A:66 X:00 Y:AA P:E5 SP:FB CYC: 77  C I  -VN
E1CA  90 0C     BCC $E1D8                       A:66 X:00 Y:AA P:E5 SP:FB CYC: 83  C I  -VN
E1CC  C9 66     CMP #$66                        A:66 X:00 Y:AA P:E5 SP:FB CYC: 89  C I  -VN
E1CE  D0 08     BNE $E1D8                       A:66 X:00 Y:AA P:67 SP:FB CYC: 95  CZI  -V 
E1D0  E0 00     CPX #$00                        A:66 X:00 Y:AA P:67 SP:FB CYC:101  CZI  -V 
E1D2  D0 04     BNE $E1D8                       A:66 X:00 Y:AA P:67 SP:FB CYC:107  CZI  -V 
E1D4  C0 AA     CPY #$AA                        A:66 X:00 Y:AA P:67 SP:FB CYC:113  CZI  -V 
E1D6  F0 04     BEQ $E1DC                       A:66 X:00 Y:AA P:67 SP:FB CYC:119  CZI  -V 
E1DC  A2 8A     LDX #$8A                        A:66 X:00 Y:AA P:67 SP:FB CYC:128  CZI  -V 
E1DE  A9 66     LDA #$66                        A:66 X:8A Y:AA P:E5 SP:FB CYC:134  C I  -VN
E1E0  B8        CLV                             A:66 X:8A Y:AA P:65 SP:FB CYC:140  C I  -V 
E1E1  18        CLC                             A:66 X:8A Y:AA P:25 SP:FB CYC:146  C I  -  
E1E2  A0 00     LDY #$00                        A:66 X:8A Y:AA P:24 SP:FB CYC:152    I  -  
E1E4  BC FF 05  LDY $05FF,X @ 0689 = BB         A:66 X:8A Y:00 P:26 SP:FB CYC:158   ZI  -  
E1E7  10 12     BPL $E1FB                       A:66 X:8A Y:BB P:A4 SP:FB CYC:173    I  - N
E1E9  F0 10     BEQ $E1FB                       A:66 X:8A Y:BB P:A4 SP:FB CYC:179    I  - N
E1EB  70 0E     BVS $E1FB                       A:66 X:8A Y:BB P:A4 SP:FB CYC:185    I  - N
E1ED  B0 0C     BCS $E1FB                       A:66 X:8A Y:BB P:A4 SP:FB CYC:191    I  - N
E1EF  C0 BB     CPY #$BB                        A:66 X:8A Y:BB P:A4 SP:FB CYC:197    I  - N
E1F1  D0 08     BNE $E1FB                       A:66 X:8A Y:BB P:27 SP:FB CYC:203  CZI  -  
E1F3  C9 66     CMP #$66                        A:66 X:8A Y:BB P:27 SP:FB CYC:209  CZI  -  
E1F5  D0 04     BNE $E1FB                       A:66 X:8A Y:BB P:27 SP:FB CYC:215  CZI  -  
E1F7  E0 8A     CPX #$8A                        A:66 X:8A Y:BB P:27 SP:FB CYC:221  CZI  -  
E1F9  F0 04     BEQ $E1FF                       A:66 X:8A Y:BB P:27 SP:FB CYC:227  CZI  -  
E1FF  A0 53     LDY #$53                        A:66 X:8A Y:BB P:27 SP:FB CYC:236  CZI  -  
E201  A9 AA     LDA #$AA                        A:66 X:8A Y:53 P:25 SP:FB CYC:242  C I  -  
E203  A2 78     LDX #$78                        A:AA X:8A Y:53 P:A5 SP:FB CYC:248  C I  - N
E205  8D 78 06  STA $0678 = 00                  A:AA X:78 Y:53 P:25 SP:FB CYC:254  C I  -  
E208  20 B6 F7  JSR $F7B6                       A:AA X:78 Y:53 P:25 SP:FB CYC:266  C I  -  
F7B6  18        CLC                             A:AA X:78 Y:53 P:25 SP:F9 CYC:284  C I  -  
F7B7  A9 FF     LDA #$FF                        A:AA X:78 Y:53 P:24 SP:F9 CYC:290    I  -  
F7B9  85 01     STA $01 = FF                    A:FF X:78 Y:53 P:A4 SP:F9 CYC:296    I  - N
F7BB  24 01     BIT $01 = FF                    A:FF X:78 Y:53 P:A4 SP:F9 CYC:305    I  - N
F7BD  A9 55     LDA #$55                        A:FF X:78 Y:53 P:E4 SP:F9 CYC:314    I  -VN
F7BF  60        RTS                             A:55 X:78 Y:53 P:64 SP:F9 CYC:320    I  -V 
E20B  1D 00 06  ORA $0600,X @ 0678 = AA         A:55 X:78 Y:53 P:64 SP:FB CYC:338    I  -V 
E20E  20 C0 F7  JSR $F7C0                       A:FF X:78 Y:53 P:E4 SP:FB CYC:  9    I  -VN
F7C0  B0 09     BCS $F7CB                       A:FF X:78 Y:53 P:E4 SP:F9 CYC: 27    I  -VN
F7C2  10 07     BPL $F7CB                       A:FF X:78 Y:53 P:E4 SP:F9 CYC: 33    I  -VN
F7C4  C9 FF     CMP #$FF                        A:FF X:78 Y:53 P:E4 SP:F9 CYC: 39    I  -VN
F7C6  D0 03     BNE $F7CB                       A:FF X:78 Y:53 P:67 SP:F9 CYC: 45  CZI  -V 
F7C8  50 01     BVC $F7CB                       A:FF X:78 Y:53 P:67 SP:F9 CYC: 51  CZI  -V 
F7CA  60        RTS                             A:FF X:78 Y:53 P:67 SP:F9 CYC: 57  CZI  -V 
E211  C8        INY                             A:FF X:78 Y:53 P:67 SP:FB CYC: 75  CZI  -V 
E212  A9 00     LDA #$00                        A:FF X:78 Y:54 P:65 SP:FB CYC: 81  C I  -V 
E214  8D 78 06  STA $0678 = AA                  A:00 X:78 Y:54 P:67 SP:FB CYC: 87  CZI  -V 
E217  20 CE F7  JSR $F7CE                       A:00 X:78 Y:54 P:67 SP:FB CYC: 99  CZI  -V 
F7CE  38        SEC                             A:00 X:78 Y:54 P:67 SP:F9 CYC:117  CZI  -V 
F7CF  B8        CLV                             A:00 X:78 Y:54 P:67 SP:F9 CYC:123  CZI  -V 
F7D0  A9 00     LDA #$00                        A:00 X:78 Y:54 P:27 SP:F9 CYC:129  CZI  -  
F7D2  60        RTS                             A:00 X:78 Y:54 P:27 SP:F9 CYC:135  CZI  -  
E21A  1D 00 06  ORA $0600,X @ 0678 = 00         A:00 X:78 Y:54 P:27 SP:FB CYC:153  CZI  -  
E21D  20 D3 F7  JSR $F7D3                       A:00 X:78 Y:54 P:27 SP:FB CYC:165  CZI  -  
F7D3  D0 07     BNE $F7DC                       A:00 X:78 Y:54 P:27 SP:F9 CYC:183  CZI  -  
F7D5  70 05     BVS $F7DC                       A:00 X:78 Y:54 P:27 SP:F9 CYC:189  CZI  -  
F7D7  90 03     BCC $F7DC                       A:00 X:78 Y:54 P:27 SP:F9 CYC:195  CZI  -  
F7D9  30 01     BMI $F7DC                       A:00 X:78 Y:54 P:27 SP:F9 CYC:201  CZI  -  
F7DB  60        RTS                             A:00 X:78 Y:54 P:27 SP:F9 CYC:207  CZI  -  
E220  C8        INY                             A:00 X:78 Y:54 P:27 SP:FB CYC:225  CZI  -  
E221  A9 AA     LDA #$AA                        A:00 X:78 Y:55 P:25 SP:FB CYC:231  C I  -  
E223  8D 78 06  STA $0678 = 00                  A:AA X:78 Y:55 P:A5 SP:FB CYC:237  C I  - N
E226  20 DF F7  JSR $F7DF                       A:AA X:78 Y:55 P:A5 SP:FB CYC:249  C I  - N
F7DF  18        CLC                             A:AA X:78 Y:55 P:A5 SP:F9 CYC:267  C I  - N
F7E0  24 01     BIT $01 = FF                    A:AA X:78 Y:55 P:A4 SP:F9 CYC:273    I  - N
F7E2  A9 55     LDA #$55                        A:AA X:78 Y:55 P:E4 SP:F9 CYC:282    I  -VN
F7E4  60        RTS                             A:55 X:78 Y:55 P:64 SP:F9 CYC:288    I  -V 
E229  3D 00 06  AND $0600,X @ 0678 = AA         A:55 X:78 Y:55 P:64 SP:FB CYC:306    I  -V 
E22C  20 E5 F7  JSR $F7E5                       A:00 X:78 Y:55 P:66 SP:FB CYC:318   ZI  -V 
F7E5  D0 07     BNE $F7EE                       A:00 X:78 Y:55 P:66 SP:F9 CYC:336   ZI  -V 
F7E7  50 05     BVC $F7EE                       A:00 X:78 Y:55 P:66 SP:F9 CYC:  1   ZI  -V 
F7E9  B0 03     BCS $F7EE                       A:00 X:78 Y:55 P:66 SP:F9 CYC:  7   ZI  -V 
F7EB  30 01     BMI $F7EE                       A:00 X:78 Y:55 P:66 SP:F9 CYC: 13   ZI  -V 
F7ED  60        RTS                             A:00 X:78 Y:55 P:66 SP:F9 CYC: 19   ZI  -V 
E22F  C8        INY                             A:00 X:78 Y:55 P:66 SP:FB CYC: 37   ZI  -V 
E230  A9 EF     LDA #$EF                        A:00 X:78 Y:56 P:64 SP:FB CYC: 43    I  -V 
E232  8D 78 06  STA $0678 = AA                  A:EF X:78 Y:56 P:E4 SP:FB CYC: 49    I  -VN
E235  20 F1 F7  JSR $F7F1                       A:EF X:78 Y:56 P:E4 SP:FB CYC: 61    I  -VN
F7F1  38        SEC                             A:EF X:78 Y:56 P:E4 SP:F9 CYC: 79    I  -VN
F7F2  B8        CLV                             A:EF X:78 Y:56 P:E5 SP:F9 CYC: 85  C I  -VN
F7F3  A9 F8     LDA #$F8                        A:EF X:78 Y:56 P:A5 SP:F9 CYC: 91  C I  - N
F7F5  60        RTS                             A:F8 X:78 Y:56 P:A5 SP:F9 CYC: 97  C I  - N
E238  3D 00 06  AND $0600,X @ 0678 = EF         A:F8 X:78 Y:56 P:A5 SP:FB CYC:115  C I  - N
E23B  20 F6 F7  JSR $F7F6                       A:E8 X:78 Y:56 P:A5 SP:FB CYC:127  C I  - N
F7F6  90 09     BCC $F801                       A:E8 X:78 Y:56 P:A5 SP:F9 CYC:145  C I  - N
F7F8  10 07     BPL $F801                       A:E8 X:78 Y:56 P:A5 SP:F9 CYC:151  C I  - N
F7FA  C9 E8     CMP #$E8                        A:E8 X:78 Y:56 P:A5 SP:F9 CYC:157  C I  - N
F7FC  D0 03     BNE $F801                       A:E8 X:78 Y:56 P:27 SP:F9 CYC:163  CZI  -  
F7FE  70 01     BVS $F801                       A:E8 X:78 Y:56 P:27 SP:F9 CYC:169  CZI  -  
F800  60        RTS                             A:E8 X:78 Y:56 P:27 SP:F9 CYC:175  CZI  -  
E23E  C8        INY                             A:E8 X:78 Y:56 P:27 SP:FB CYC:193  CZI  -  
E23F  A9 AA     LDA #$AA                        A:E8 X:78 Y:57 P:25 SP:FB CYC:199  C I  -  
E241  8D 78 06  STA $0678 = EF                  A:AA X:78 Y:57 P:A5 SP:FB CYC:205  C I  - N
E244  20 04 F8  JSR $F804                       A:AA X:78 Y:57 P:A5 SP:FB CYC:217  C I  - N
F804  18        CLC                             A:AA X:78 Y:57 P:A5 SP:F9 CYC:235  C I  - N
F805  24 01     BIT $01 = FF                    A:AA X:78 Y:57 P:A4 SP:F9 CYC:241    I  - N
F807  A9 5F     LDA #$5F                        A:AA X:78 Y:57 P:E4 SP:F9 CYC:250    I  -VN
F809  60        RTS                             A:5F X:78 Y:57 P:64 SP:F9 CYC:256    I  -V 
E247  5D 00 06  EOR $0600,X @ 0678 = AA         A:5F X:78 Y:57 P:64 SP:FB CYC:274    I  -V 
E24A  20 0A F8  JSR $F80A                       A:F5 X:78 Y:57 P:E4 SP:FB CYC:286    I  -VN
F80A  B0 09     BCS $F815                       A:F5 X:78 Y:57 P:E4 SP:F9 CYC:304    I  -VN
F80C  10 07     BPL $F815                       A:F5 X:78 Y:57 P:E4 SP:F9 CYC:310    I  -VN
F80E  C9 F5     CMP #$F5                        A:F5 X:78 Y:57 P:E4 SP:F9 CYC:316    I  -VN
F810  D0 03     BNE $F815                       A:F5 X:78 Y:57 P:67 SP:F9 CYC:322  CZI  -V 
F812  50 01     BVC $F815                       A:F5 X:78 Y:57 P:67 SP:F9 CYC:328  CZI  -V 
F814  60        RTS                             A:F5 X:78 Y:57 P:67 SP:F9 CYC:334  CZI  -V 
E24D  C8        INY                             A:F5 X:78 Y:57 P:67 SP:FB CYC: 11  CZI  -V 
E24E  A9 70     LDA #$70                        A:F5 X:78 Y:58 P:65 SP:FB CYC: 17  C I  -V 
E250  8D 78 06  STA $0678 = AA                  A:70 X:78 Y:58 P:65 SP:FB CYC: 23  C I  -V 
E253  20 18 F8  JSR $F818                       A:70 X:78 Y:58 P:65 SP:FB CYC: 35  C I  -V 
F818  38        SEC                             A:70 X:78 Y:58 P:65 SP:F9 CYC: 53  C I  -V 
F819  B8        CLV                             A:70 X:78 Y:58 P:65 SP:F9 CYC: 59  C I  -V 
F81A  A9 70     LDA #$70                        A:70 X:78 Y:58 P:25 SP:F9 CYC: 65  C I  -  
F81C  60        RTS                             A:70 X:78 Y:58 P:25 SP:F9 CYC: 71  C I  -  
E256  5D 00 06  EOR $0600,X @ 0678 = 70         A:70 X:78 Y:58 P:25 SP:FB CYC: 89  C I  -  
E259  20 1D F8  JSR $F81D                       A:00 X:78 Y:58 P:27 SP:FB CYC:101  CZI  -  
F81D  D0 07     BNE $F826                       A:00 X:78 Y:58 P:27 SP:F9 CYC:119  CZI  -  
F81F  70 05     BVS $F826                       A:00 X:78 Y:58 P:27 SP:F9 CYC:125  CZI  -  
F821  90 03     BCC $F826                       A:00 X:78 Y:58 P:27 SP:F9 CYC:131  CZI  -  
F823  30 01     BMI $F826                       A:00 X:78 Y:58 P:27 SP:F9 CYC:137  CZI  -  
F825  60        RTS                             A:00 X:78 Y:58 P:27 SP:F9 CYC:143  CZI  -  
E25C  C8        INY                             A:00 X:78 Y:58 P:27 SP:FB CYC:161  CZI  -  
E25D  A9 69     LDA #$69                        A:00 X:78 Y:59 P:25 SP:FB CYC:167  C I  -  
E25F  8D 78 06  STA $0678 = 70                  A:69 X:78 Y:59 P:25 SP:FB CYC:173  C I  -  
E262  20 29 F8  JSR $F829                       A:69 X:78 Y:59 P:25 SP:FB CYC:185  C I  -  
F829  18        CLC                             A:69 X:78 Y:59 P:25 SP:F9 CYC:203  C I  -  
F82A  24 01     BIT $01 = FF                    A:69 X:78 Y:59 P:24 SP:F9 CYC:209    I  -  
F82C  A9 00     LDA #$00                        A:69 X:78 Y:59 P:E4 SP:F9 CYC:218    I  -VN
F82E  60        RTS                             A:00 X:78 Y:59 P:66 SP:F9 CYC:224   ZI  -V 
E265  7D 00 06  ADC $0600,X @ 0678 = 69         A:00 X:78 Y:59 P:66 SP:FB CYC:242   ZI  -V 
E268  20 2F F8  JSR $F82F                       A:69 X:78 Y:59 P:24 SP:FB CYC:254    I  -  
F82F  30 09     BMI $F83A                       A:69 X:78 Y:59 P:24 SP:F9 CYC:272    I  -  
F831  B0 07     BCS $F83A                       A:69 X:78 Y:59 P:24 SP:F9 CYC:278    I  -  
F833  C9 69     CMP #$69                        A:69 X:78 Y:59 P:24 SP:F9 CYC:284    I  -  
F835  D0 03     BNE $F83A                       A:69 X:78 Y:59 P:27 SP:F9 CYC:290  CZI  -  
F837  70 01     BVS $F83A                       A:69 X:78 Y:59 P:27 SP:F9 CYC:296  CZI  -  
F839  60        RTS                             A:69 X:78 Y:59 P:27 SP:F9 CYC:302  CZI  -  
E26B  C8        INY                             A:69 X:78 Y:59 P:27 SP:FB CYC:320  CZI  -  
E26C  20 3D F8  JSR $F83D                       A:69 X:78 Y:5A P:25 SP:FB CYC:326  C I  -  
F83D  38        SEC                             A:69 X:78 Y:5A P:25 SP:F9 CYC:  3  C I  -  
F83E  24 01     BIT $01 = FF                    A:69 X:78 Y:5A P:25 SP:F9 CYC:  9  C I  -  
F840  A9 00     LDA #$00                        A:69 X:78 Y:5A P:E5 SP:F9 CYC: 18  C I  -VN
F842  60        RTS                             A:00 X:78 Y:5A P:67 SP:F9 CYC: 24  CZI  -V 
E26F  7D 00 06  ADC $0600,X @ 0678 = 69         A:00 X:78 Y:5A P:67 SP:FB CYC: 42  CZI  -V 
E272  20 43 F8  JSR $F843                       A:6A X:78 Y:5A P:24 SP:FB CYC: 54    I  -  
F843  30 09     BMI $F84E                       A:6A X:78 Y:5A P:24 SP:F9 CYC: 72    I  -  
F845  B0 07     BCS $F84E                       A:6A X:78 Y:5A P:24 SP:F9 CYC: 78    I  -  
F847  C9 6A     CMP #$6A                        A:6A X:78 Y:5A P:24 SP:F9 CYC: 84    I  -  
F849  D0 03     BNE $F84E                       A:6A X:78 Y:5A P:27 SP:F9 CYC: 90  CZI  -  
F84B  70 01     BVS $F84E                       A:6A X:78 Y:5A P:27 SP:F9 CYC: 96  CZI  -  
F84D  60        RTS                             A:6A X:78 Y:5A P:27 SP:F9 CYC:102  CZI  -  
E275  C8        INY                             A:6A X:78 Y:5A P:27 SP:FB CYC:120  CZI  -  
E276  A9 7F     LDA #$7F                        A:6A X:78 Y:5B P:25 SP:FB CYC:126  C I  -  
E278  8D 78 06  STA $0678 = 69                  A:7F X:78 Y:5B P:25 SP:FB CYC:132  C I  -  
E27B  20 51 F8  JSR $F851                       A:7F X:78 Y:5B P:25 SP:FB CYC:144  C I  -  
F851  38        SEC                             A:7F X:78 Y:5B P:25 SP:F9 CYC:162  C I  -  
F852  B8        CLV                             A:7F X:78 Y:5B P:25 SP:F9 CYC:168  C I  -  
F853  A9 7F     LDA #$7F                        A:7F X:78 Y:5B P:25 SP:F9 CYC:174  C I  -  
F855  60        RTS                             A:7F X:78 Y:5B P:25 SP:F9 CYC:180  C I  -  
E27E  7D 00 06  ADC $0600,X @ 0678 = 7F         A:7F X:78 Y:5B P:25 SP:FB CYC:198  C I  -  
E281  20 56 F8  JSR $F856                       A:FF X:78 Y:5B P:E4 SP:FB CYC:210    I  -VN
F856  10 09     BPL $F861                       A:FF X:78 Y:5B P:E4 SP:F9 CYC:228    I  -VN
F858  B0 07     BCS $F861                       A:FF X:78 Y:5B P:E4 SP:F9 CYC:234    I  -VN
F85A  C9 FF     CMP #$FF                        A:FF X:78 Y:5B P:E4 SP:F9 CYC:240    I  -VN
F85C  D0 03     BNE $F861                       A:FF X:78 Y:5B P:67 SP:F9 CYC:246  CZI  -V 
F85E  50 01     BVC $F861                       A:FF X:78 Y:5B P:67 SP:F9 CYC:252  CZI  -V 
F860  60        RTS                             A:FF X:78 Y:5B P:67 SP:F9 CYC:258  CZI  -V 
E284  C8        INY                             A:FF X:78 Y:5B P:67 SP:FB CYC:276  CZI  -V 
E285  A9 80     LDA #$80                        A:FF X:78 Y:5C P:65 SP:FB CYC:282  C I  -V 
E287  8D 78 06  STA $0678 = 7F                  A:80 X:78 Y:5C P:E5 SP:FB CYC:288  C I  -VN
E28A  20 64 F8  JSR $F864                       A:80 X:78 Y:5C P:E5 SP:FB CYC:300  C I  -VN
F864  18        CLC                             A:80 X:78 Y:5C P:E5 SP:F9 CYC:318  C I  -VN
F865  24 01     BIT $01 = FF                    A:80 X:78 Y:5C P:E4 SP:F9 CYC:324    I  -VN
F867  A9 7F     LDA #$7F                        A:80 X:78 Y:5C P:E4 SP:F9 CYC:333    I  -VN
F869  60        RTS                             A:7F X:78 Y:5C P:64 SP:F9 CYC:339    I  -V 
E28D  7D 00 06  ADC $0600,X @ 0678 = 80         A:7F X:78 Y:5C P:64 SP:FB CYC: 16    I  -V 
E290  20 6A F8  JSR $F86A                       A:FF X:78 Y:5C P:A4 SP:FB CYC: 28    I  - N
F86A  10 09     BPL $F875                       A:FF X:78 Y:5C P:A4 SP:F9 CYC: 46    I  - N
F86C  B0 07     BCS $F875                       A:FF X:78 Y:5C P:A4 SP:F9 CYC: 52    I  - N
F86E  C9 FF     CMP #$FF                        A:FF X:78 Y:5C P:A4 SP:F9 CYC: 58    I  - N
F870  D0 03     BNE $F875                       A:FF X:78 Y:5C P:27 SP:F9 CYC: 64  CZI  -  
F872  70 01     BVS $F875                       A:FF X:78 Y:5C P:27 SP:F9 CYC: 70  CZI  -  
F874  60        RTS                             A:FF X:78 Y:5C P:27 SP:F9 CYC: 76  CZI  -  
E293  C8        INY                             A:FF X:78 Y:5C P:27 SP:FB CYC: 94  CZI  -  
E294  20 78 F8  JSR $F878                       A:FF X:78 Y:5D P:25 SP:FB CYC:100  C I  -  
F878  38        SEC                             A:FF X:78 Y:5D P:25 SP:F9 CYC:118  C I  -  
F879  B8        CLV                             A:FF X:78 Y:5D P:25 SP:F9 CYC:124  C I  -  
F87A  A9 7F     LDA #$7F                        A:FF X:78 Y:5D P:25 SP:F9 CYC:130  C I  -  
F87C  60        RTS                             A:7F X:78 Y:5D P:25 SP:F9 CYC:136  C I  -  
E297  7D 00 06  ADC $0600,X @ 0678 = 80         A:7F X:78 Y:5D P:25 SP:FB CYC:154  C I  -  
E29A  20 7D F8  JSR $F87D                       A:00 X:78 Y:5D P:27 SP:FB CYC:166  CZI  -  
F87D  D0 07     BNE $F886                       A:00 X:78 Y:5D P:27 SP:F9 CYC:184  CZI  -  
F87F  30 05     BMI $F886                       A:00 X:78 Y:5D P:27 SP:F9 CYC:190  CZI  -  
F881  70 03     BVS $F886                       A:00 X:78 Y:5D P:27 SP:F9 CYC:196  CZI  -  
F883  90 01     BCC $F886                       A:00 X:78 Y:5D P:27 SP:F9 CYC:202  CZI  -  
F885  60        RTS                             A:00 X:78 Y:5D P:27 SP:F9 CYC:208  CZI  -  
E29D  C8        INY                             A:00 X:78 Y:5D P:27 SP:FB CYC:226  CZI  -  
E29E  A9 40     LDA #$40                        A:00 X:78 Y:5E P:25 SP:FB CYC:232  C I  -  
E2A0  8D 78 06  STA $0678 = 80                  A:40 X:78 Y:5E P:25 SP:FB CYC:238  C I  -  
E2A3  20 89 F8  JSR $F889                       A:40 X:78 Y:5E P:25 SP:FB CYC:250  C I  -  
F889  24 01     BIT $01 = FF                    A:40 X:78 Y:5E P:25 SP:F9 CYC:268  C I  -  
F88B  A9 40     LDA #$40                        A:40 X:78 Y:5E P:E5 SP:F9 CYC:277  C I  -VN
F88D  60        RTS                             A:40 X:78 Y:5E P:65 SP:F9 CYC:283  C I  -V 
E2A6  DD 00 06  CMP $0600,X @ 0678 = 40         A:40 X:78 Y:5E P:65 SP:FB CYC:301  C I  -V 
E2A9  20 8E F8  JSR $F88E                       A:40 X:78 Y:5E P:67 SP:FB CYC:313  CZI  -V 
F88E  30 07     BMI $F897                       A:40 X:78 Y:5E P:67 SP:F9 CYC:331  CZI  -V 
F890  90 05     BCC $F897                       A:40 X:78 Y:5E P:67 SP:F9 CYC:337  CZI  -V 
F892  D0 03     BNE $F897                       A:40 X:78 Y:5E P:67 SP:F9 CYC:  2  CZI  -V 
F894  50 01     BVC $F897                       A:40 X:78 Y:5E P:67 SP:F9 CYC:  8  CZI  -V 
F896  60        RTS                             A:40 X:78 Y:5E P:67 SP:F9 CYC: 14  CZI  -V 
E2AC  C8        INY                             A:40 X:78 Y:5E P:67 SP:FB CYC: 32  CZI  -V 
E2AD  48        PHA                             A:40 X:78 Y:5F P:65 SP:FB CYC: 38  C I  -V 
E2AE  A9 3F     LDA #$3F                        A:40 X:78 Y:5F P:65 SP:FA CYC: 47  C I  -V 
E2B0  8D 78 06  STA $0678 = 40                  A:3F X:78 Y:5F P:65 SP:FA CYC: 53  C I  -V 
E2B3  68        PLA                             A:3F X:78 Y:5F P:65 SP:FA CYC: 65  C I  -V 
E2B4  20 9A F8  JSR $F89A                       A:40 X:78 Y:5F P:65 SP:FB CYC: 77  C I  -V 
F89A  B8        CLV                             A:40 X:78 Y:5F P:65 SP:F9 CYC: 95  C I  -V 
F89B  60        RTS                             A:40 X:78 Y:5F P:25 SP:F9 CYC:101  C I  -  
E2B7  DD 00 06  CMP $0600,X @ 0678 = 3F         A:40 X:78 Y:5F P:25 SP:FB CYC:119  C I  -  
E2BA  20 9C F8  JSR $F89C                       A:40 X:78 Y:5F P:25 SP:FB CYC:131  C I  -  
F89C  F0 07     BEQ $F8A5                       A:40 X:78 Y:5F P:25 SP:F9 CYC:149  C I  -  
F89E  30 05     BMI $F8A5                       A:40 X:78 Y:5F P:25 SP:F9 CYC:155  C I  -  
F8A0  90 03     BCC $F8A5                       A:40 X:78 Y:5F P:25 SP:F9 CYC:161  C I  -  
F8A2  70 01     BVS $F8A5                       A:40 X:78 Y:5F P:25 SP:F9 CYC:167  C I  -  
F8A4  60        RTS                             A:40 X:78 Y:5F P:25 SP:F9 CYC:173  C I  -  
E2BD  C8        INY                             A:40 X:78 Y:5F P:25 SP:FB CYC:191  C I  -  
E2BE  48        PHA                             A:40 X:78 Y:60 P:25 SP:FB CYC:197  C I  -  
E2BF  A9 41     LDA #$41                        A:40 X:78 Y:60 P:25 SP:FA CYC:206  C I  -  
E2C1  8D 78 06  STA $0678 = 3F                  A:41 X:78 Y:60 P:25 SP:FA CYC:212  C I  -  
E2C4  68        PLA                             A:41 X:78 Y:60 P:25 SP:FA CYC:224  C I  -  
E2C5  DD 00 06  CMP $0600,X @ 0678 = 41         A:40 X:78 Y:60 P:25 SP:FB CYC:236  C I  -  
E2C8  20 A8 F8  JSR $F8A8                       A:40 X:78 Y:60 P:A4 SP:FB CYC:248    I  - N
F8A8  F0 05     BEQ $F8AF                       A:40 X:78 Y:60 P:A4 SP:F9 CYC:266    I  - N
F8AA  10 03     BPL $F8AF                       A:40 X:78 Y:60 P:A4 SP:F9 CYC:272    I  - N
F8AC  10 01     BPL $F8AF                       A:40 X:78 Y:60 P:A4 SP:F9 CYC:278    I  - N
F8AE  60        RTS                             A:40 X:78 Y:60 P:A4 SP:F9 CYC:284    I  - N
E2CB  C8        INY                             A:40 X:78 Y:60 P:A4 SP:FB CYC:302    I  - N
E2CC  48        PHA                             A:40 X:78 Y:61 P:24 SP:FB CYC:308    I  -  
E2CD  A9 00     LDA #$00                        A:40 X:78 Y:61 P:24 SP:FA CYC:317    I  -  
E2CF  8D 78 06  STA $0678 = 41                  A:00 X:78 Y:61 P:26 SP:FA CYC:323   ZI  -  
E2D2  68        PLA                             A:00 X:78 Y:61 P:26 SP:FA CYC:335   ZI  -  
E2D3  20 B2 F8  JSR $F8B2                       A:40 X:78 Y:61 P:24 SP:FB CYC:  6    I  -  
F8B2  A9 80     LDA #$80                        A:40 X:78 Y:61 P:24 SP:F9 CYC: 24    I  -  
F8B4  60        RTS                             A:80 X:78 Y:61 P:A4 SP:F9 CYC: 30    I  - N
E2D6  DD 00 06  CMP $0600,X @ 0678 = 00         A:80 X:78 Y:61 P:A4 SP:FB CYC: 48    I  - N
E2D9  20 B5 F8  JSR $F8B5                       A:80 X:78 Y:61 P:A5 SP:FB CYC: 60  C I  - N
F8B5  F0 05     BEQ $F8BC                       A:80 X:78 Y:61 P:A5 SP:F9 CYC: 78  C I  - N
F8B7  10 03     BPL $F8BC                       A:80 X:78 Y:61 P:A5 SP:F9 CYC: 84  C I  - N
F8B9  90 01     BCC $F8BC                       A:80 X:78 Y:61 P:A5 SP:F9 CYC: 90  C I  - N
F8BB  60        RTS                             A:80 X:78 Y:61 P:A5 SP:F9 CYC: 96  C I  - N
E2DC  C8        INY                             A:80 X:78 Y:61 P:A5 SP:FB CYC:114  C I  - N
E2DD  48        PHA                             A:80 X:78 Y:62 P:25 SP:FB CYC:120  C I  -  
E2DE  A9 80     LDA #$80                        A:80 X:78 Y:62 P:25 SP:FA CYC:129  C I  -  
E2E0  8D 78 06  STA $0678 = 00                  A:80 X:78 Y:62 P:A5 SP:FA CYC:135  C I  - N
E2E3  68        PLA                             A:80 X:78 Y:62 P:A5 SP:FA CYC:147  C I  - N
E2E4  DD 00 06  CMP $0600,X @ 0678 = 80         A:80 X:78 Y:62 P:A5 SP:FB CYC:159  C I  - N
E2E7  20 BF F8  JSR $F8BF                       A:80 X:78 Y:62 P:27 SP:FB CYC:171  CZI  -  
F8BF  D0 05     BNE $F8C6                       A:80 X:78 Y:62 P:27 SP:F9 CYC:189  CZI  -  
F8C1  30 03     BMI $F8C6                       A:80 X:78 Y:62 P:27 SP:F9 CYC:195  CZI  -  
F8C3  90 01     BCC $F8C6                       A:80 X:78 Y:62 P:27 SP:F9 CYC:201  CZI  -  
F8C5  60        RTS                             A:80 X:78 Y:62 P:27 SP:F9 CYC:207  CZI  -  
E2EA  C8        INY                             A:80 X:78 Y:62 P:27 SP:FB CYC:225  CZI  -  
E2EB  48        PHA                             A:80 X:78 Y:63 P:25 SP:FB CYC:231  C I  -  
E2EC  A9 81     LDA #$81                        A:80 X:78 Y:63 P:25 SP:FA CYC:240  C I  -  
E2EE  8D 78 06  STA $0678 = 80                  A:81 X:78 Y:63 P:A5 SP:FA CYC:246  C I  - N
E2F1  68        PLA                             A:81 X:78 Y:63 P:A5 SP:FA CYC:258  C I  - N
E2F2  DD 00 06  CMP $0600,X @ 0678 = 81         A:80 X:78 Y:63 P:A5 SP:FB CYC:270  C I  - N
E2F5  20 C9 F8  JSR $F8C9                       A:80 X:78 Y:63 P:A4 SP:FB CYC:282    I  - N
F8C9  B0 05     BCS $F8D0                       A:80 X:78 Y:63 P:A4 SP:F9 CYC:300    I  - N
F8CB  F0 03     BEQ $F8D0                       A:80 X:78 Y:63 P:A4 SP:F9 CYC:306    I  - N
F8CD  10 01     BPL $F8D0                       A:80 X:78 Y:63 P:A4 SP:F9 CYC:312    I  - N
F8CF  60        RTS                             A:80 X:78 Y:63 P:A4 SP:F9 CYC:318    I  - N
E2F8  C8        INY                             A:80 X:78 Y:63 P:A4 SP:FB CYC:336    I  - N
E2F9  48        PHA                             A:80 X:78 Y:64 P:24 SP:FB CYC:  1    I  -  
E2FA  A9 7F     LDA #$7F                        A:80 X:78 Y:64 P:24 SP:FA CYC: 10    I  -  
E2FC  8D 78 06  STA $0678 = 81                  A:7F X:78 Y:64 P:24 SP:FA CYC: 16    I  -  
E2FF  68        PLA                             A:7F X:78 Y:64 P:24 SP:FA CYC: 28    I  -  
E300  DD 00 06  CMP $0600,X @ 0678 = 7F         A:80 X:78 Y:64 P:A4 SP:FB CYC: 40    I  - N
E303  20 D3 F8  JSR $F8D3                       A:80 X:78 Y:64 P:25 SP:FB CYC: 52  C I  -  
F8D3  90 05     BCC $F8DA                       A:80 X:78 Y:64 P:25 SP:F9 CYC: 70  C I  -  
F8D5  F0 03     BEQ $F8DA                       A:80 X:78 Y:64 P:25 SP:F9 CYC: 76  C I  -  
F8D7  30 01     BMI $F8DA                       A:80 X:78 Y:64 P:25 SP:F9 CYC: 82  C I  -  
F8D9  60        RTS                             A:80 X:78 Y:64 P:25 SP:F9 CYC: 88  C I  -  
E306  C8        INY                             A:80 X:78 Y:64 P:25 SP:FB CYC:106  C I  -  
E307  A9 40     LDA #$40                        A:80 X:78 Y:65 P:25 SP:FB CYC:112  C I  -  
E309  8D 78 06  STA $0678 = 7F                  A:40 X:78 Y:65 P:25 SP:FB CYC:118  C I  -  
E30C  20 31 F9  JSR $F931                       A:40 X:78 Y:65 P:25 SP:FB CYC:130  C I  -  
F931  24 01     BIT $01 = FF                    A:40 X:78 Y:65 P:25 SP:F9 CYC:148  C I  -  
F933  A9 40     LDA #$40                        A:40 X:78 Y:65 P:E5 SP:F9 CYC:157  C I  -VN
F935  38        SEC                             A:40 X:78 Y:65 P:65 SP:F9 CYC:163  C I  -V 
F936  60        RTS                             A:40 X:78 Y:65 P:65 SP:F9 CYC:169  C I  -V 
E30F  FD 00 06  SBC $0600,X @ 0678 = 40         A:40 X:78 Y:65 P:65 SP:FB CYC:187  C I  -V 
E312  20 37 F9  JSR $F937                       A:00 X:78 Y:65 P:27 SP:FB CYC:199  CZI  -  
F937  30 0B     BMI $F944                       A:00 X:78 Y:65 P:27 SP:F9 CYC:217  CZI  -  
F939  90 09     BCC $F944                       A:00 X:78 Y:65 P:27 SP:F9 CYC:223  CZI  -  
F93B  D0 07     BNE $F944                       A:00 X:78 Y:65 P:27 SP:F9 CYC:229  CZI  -  
F93D  70 05     BVS $F944                       A:00 X:78 Y:65 P:27 SP:F9 CYC:235  CZI  -  
F93F  C9 00     CMP #$00                        A:00 X:78 Y:65 P:27 SP:F9 CYC:241  CZI  -  
F941  D0 01     BNE $F944                       A:00 X:78 Y:65 P:27 SP:F9 CYC:247  CZI  -  
F943  60        RTS                             A:00 X:78 Y:65 P:27 SP:F9 CYC:253  CZI  -  
E315  C8        INY                             A:00 X:78 Y:65 P:27 SP:FB CYC:271  CZI  -  
E316  A9 3F     LDA #$3F                        A:00 X:78 Y:66 P:25 SP:FB CYC:277  C I  -  
E318  8D 78 06  STA $0678 = 40                  A:3F X:78 Y:66 P:25 SP:FB CYC:283  C I  -  
E31B  20 47 F9  JSR $F947                       A:3F X:78 Y:66 P:25 SP:FB CYC:295  C I  -  
F947  B8        CLV                             A:3F X:78 Y:66 P:25 SP:F9 CYC:313  C I  -  
F948  38        SEC                             A:3F X:78 Y:66 P:25 SP:F9 CYC:319  C I  -  
F949  A9 40     LDA #$40                        A:3F X:78 Y:66 P:25 SP:F9 CYC:325  C I  -  
F94B  60        RTS                             A:40 X:78 Y:66 P:25 SP:F9 CYC:331  C I  -  
E31E  FD 00 06  SBC $0600,X @ 0678 = 3F         A:40 X:78 Y:66 P:25 SP:FB CYC:  8  C I  -  
E321  20 4C F9  JSR $F94C                       A:01 X:78 Y:66 P:25 SP:FB CYC: 20  C I  -  
F94C  F0 0B     BEQ $F959                       A:01 X:78 Y:66 P:25 SP:F9 CYC: 38  C I  -  
F94E  30 09     BMI $F959                       A:01 X:78 Y:66 P:25 SP:F9 CYC: 44  C I  -  
F950  90 07     BCC $F959                       A:01 X:78 Y:66 P:25 SP:F9 CYC: 50  C I  -  
F952  70 05     BVS $F959                       A:01 X:78 Y:66 P:25 SP:F9 CYC: 56  C I  -  
F954  C9 01     CMP #$01                        A:01 X:78 Y:66 P:25 SP:F9 CYC: 62  C I  -  
F956  D0 01     BNE $F959                       A:01 X:78 Y:66 P:27 SP:F9 CYC: 68  CZI  -  
F958  60        RTS                             A:01 X:78 Y:66 P:27 SP:F9 CYC: 74  CZI  -  
E324  C8        INY                             A:01 X:78 Y:66 P:27 SP:FB CYC: 92  CZI  -  
E325  A9 41     LDA #$41                        A:01 X:78 Y:67 P:25 SP:FB CYC: 98  C I  -  
E327  8D 78 06  STA $0678 = 3F                  A:41 X:78 Y:67 P:25 SP:FB CYC:104  C I  -  
E32A  20 5C F9  JSR $F95C                       A:41 X:78 Y:67 P:25 SP:FB CYC:116  C I  -  
F95C  A9 40     LDA #$40                        A:41 X:78 Y:67 P:25 SP:F9 CYC:134  C I  -  
F95E  38        SEC                             A:40 X:78 Y:67 P:25 SP:F9 CYC:140  C I  -  
F95F  24 01     BIT $01 = FF                    A:40 X:78 Y:67 P:25 SP:F9 CYC:146  C I  -  
F961  60        RTS                             A:40 X:78 Y:67 P:E5 SP:F9 CYC:155  C I  -VN
E32D  FD 00 06  SBC $0600,X @ 0678 = 41         A:40 X:78 Y:67 P:E5 SP:FB CYC:173  C I  -VN
E330  20 62 F9  JSR $F962                       A:FF X:78 Y:67 P:A4 SP:FB CYC:185    I  - N
F962  B0 0B     BCS $F96F                       A:FF X:78 Y:67 P:A4 SP:F9 CYC:203    I  - N
F964  F0 09     BEQ $F96F                       A:FF X:78 Y:67 P:A4 SP:F9 CYC:209    I  - N
F966  10 07     BPL $F96F                       A:FF X:78 Y:67 P:A4 SP:F9 CYC:215    I  - N
F968  70 05     BVS $F96F                       A:FF X:78 Y:67 P:A4 SP:F9 CYC:221    I  - N
F96A  C9 FF     CMP #$FF                        A:FF X:78 Y:67 P:A4 SP:F9 CYC:227    I  - N
F96C  D0 01     BNE $F96F                       A:FF X:78 Y:67 P:27 SP:F9 CYC:233  CZI  -  
F96E  60        RTS                             A:FF X:78 Y:67 P:27 SP:F9 CYC:239  CZI  -  
E333  C8        INY                             A:FF X:78 Y:67 P:27 SP:FB CYC:257  CZI  -  
E334  A9 00     LDA #$00                        A:FF X:78 Y:68 P:25 SP:FB CYC:263  C I  -  
E336  8D 78 06  STA $0678 = 41                  A:00 X:78 Y:68 P:27 SP:FB CYC:269  CZI  -  
E339  20 72 F9  JSR $F972                       A:00 X:78 Y:68 P:27 SP:FB CYC:281  CZI  -  
F972  18        CLC                             A:00 X:78 Y:68 P:27 SP:F9 CYC:299  CZI  -  
F973  A9 80     LDA #$80                        A:00 X:78 Y:68 P:26 SP:F9 CYC:305   ZI  -  
F975  60        RTS                             A:80 X:78 Y:68 P:A4 SP:F9 CYC:311    I  - N
E33C  FD 00 06  SBC $0600,X @ 0678 = 00         A:80 X:78 Y:68 P:A4 SP:FB CYC:329    I  - N
E33F  20 76 F9  JSR $F976                       A:7F X:78 Y:68 P:65 SP:FB CYC:  0  C I  -V 
F976  90 05     BCC $F97D                       A:7F X:78 Y:68 P:65 SP:F9 CYC: 18  C I  -V 
F978  C9 7F     CMP #$7F                        A:7F X:78 Y:68 P:65 SP:F9 CYC: 24  C I  -V 
F97A  D0 01     BNE $F97D                       A:7F X:78 Y:68 P:67 SP:F9 CYC: 30  CZI  -V 
F97C  60        RTS                             A:7F X:78 Y:68 P:67 SP:F9 CYC: 36  CZI  -V 
E342  C8        INY                             A:7F X:78 Y:68 P:67 SP:FB CYC: 54  CZI  -V 
E343  A9 7F     LDA #$7F                        A:7F X:78 Y:69 P:65 SP:FB CYC: 60  C I  -V 
E345  8D 78 06  STA $0678 = 00                  A:7F X:78 Y:69 P:65 SP:FB CYC: 66  C I  -V 
E348  20 80 F9  JSR $F980                       A:7F X:78 Y:69 P:65 SP:FB CYC: 78  C I  -V 
F980  38        SEC                             A:7F X:78 Y:69 P:65 SP:F9 CYC: 96  C I  -V 
F981  A9 81     LDA #$81                        A:7F X:78 Y:69 P:65 SP:F9 CYC:102  C I  -V 
F983  60        RTS                             A:81 X:78 Y:69 P:E5 SP:F9 CYC:108  C I  -VN
E34B  FD 00 06  SBC $0600,X @ 0678 = 7F         A:81 X:78 Y:69 P:E5 SP:FB CYC:126  C I  -VN
E34E  20 84 F9  JSR $F984                       A:02 X:78 Y:69 P:65 SP:FB CYC:138  C I  -V 
F984  50 07     BVC $F98D                       A:02 X:78 Y:69 P:65 SP:F9 CYC:156  C I  -V 
F986  90 05     BCC $F98D                       A:02 X:78 Y:69 P:65 SP:F9 CYC:162  C I  -V 
F988  C9 02     CMP #$02                        A:02 X:78 Y:69 P:65 SP:F9 CYC:168  C I  -V 
F98A  D0 01     BNE $F98D                       A:02 X:78 Y:69 P:67 SP:F9 CYC:174  CZI  -V 
F98C  60        RTS                             A:02 X:78 Y:69 P:67 SP:F9 CYC:180  CZI  -V 
E351  A9 AA     LDA #$AA                        A:02 X:78 Y:69 P:67 SP:FB CYC:198  CZI  -V 
E353  8D 33 06  STA $0633 = AA                  A:AA X:78 Y:69 P:E5 SP:FB CYC:204  C I  -VN
E356  A9 BB     LDA #$BB                        A:AA X:78 Y:69 P:E5 SP:FB CYC:216  C I  -VN
E358  8D 89 06  STA $0689 = BB                  A:BB X:78 Y:69 P:E5 SP:FB CYC:222  C I  -VN
E35B  A2 00     LDX #$00                        A:BB X:78 Y:69 P:E5 SP:FB CYC:234  C I  -VN
E35D  A0 66     LDY #$66                        A:BB X:00 Y:69 P:67 SP:FB CYC:240  CZI  -V 
E35F  24 01     BIT $01 = FF                    A:BB X:00 Y:66 P:65 SP:FB CYC:246  C I  -V 
E361  38        SEC                             A:BB X:00 Y:66 P:E5 SP:FB CYC:255  C I  -VN
E362  A9 00     LDA #$00                        A:BB X:00 Y:66 P:E5 SP:FB CYC:261  C I  -VN
E364  BD 33 06  LDA $0633,X @ 0633 = AA         A:00 X:00 Y:66 P:67 SP:FB CYC:267  CZI  -V 
E367  10 12     BPL $E37B                       A:AA X:00 Y:66 P:E5 SP:FB CYC:279  C I  -VN
E369  F0 10     BEQ $E37B                       A:AA X:00 Y:66 P:E5 SP:FB CYC:285  C I  -VN
E36B  50 0E     BVC $E37B                       A:AA X:00 Y:66 P:E5 SP:FB CYC:291  C I  -VN
E36D  90 0C     BCC $E37B                       A:AA X:00 Y:66 P:E5 SP:FB CYC:297  C I  -VN
E36F  C0 66     CPY #$66                        A:AA X:00 Y:66 P:E5 SP:FB CYC:303  C I  -VN
E371  D0 08     BNE $E37B                       A:AA X:00 Y:66 P:67 SP:FB CYC:309  CZI  -V 
E373  E0 00     CPX #$00                        A:AA X:00 Y:66 P:67 SP:FB CYC:315  CZI  -V 
E375  D0 04     BNE $E37B                       A:AA X:00 Y:66 P:67 SP:FB CYC:321  CZI  -V 
E377  C9 AA     CMP #$AA                        A:AA X:00 Y:66 P:67 SP:FB CYC:327  CZI  -V 
E379  F0 04     BEQ $E37F                       A:AA X:00 Y:66 P:67 SP:FB CYC:333  CZI  -V 
E37F  A2 8A     LDX #$8A                        A:AA X:00 Y:66 P:67 SP:FB CYC:  1  CZI  -V 
E381  A0 66     LDY #$66                        A:AA X:8A Y:66 P:E5 SP:FB CYC:  7  C I  -VN
E383  B8        CLV                             A:AA X:8A Y:66 P:65 SP:FB CYC: 13  C I  -V 
E384  18        CLC                             A:AA X:8A Y:66 P:25 SP:FB CYC: 19  C I  -  
E385  A9 00     LDA #$00                        A:AA X:8A Y:66 P:24 SP:FB CYC: 25    I  -  
E387  BD FF 05  LDA $05FF,X @ 0689 = BB         A:00 X:8A Y:66 P:26 SP:FB CYC: 31   ZI  -  
E38A  10 12     BPL $E39E                       A:BB X:8A Y:66 P:A4 SP:FB CYC: 46    I  - N
E38C  F0 10     BEQ $E39E                       A:BB X:8A Y:66 P:A4 SP:FB CYC: 52    I  - N
E38E  70 0E     BVS $E39E                       A:BB X:8A Y:66 P:A4 SP:FB CYC: 58    I  - N
E390  B0 0C     BCS $E39E                       A:BB X:8A Y:66 P:A4 SP:FB CYC: 64    I  - N
E392  C9 BB     CMP #$BB                        A:BB X:8A Y:66 P:A4 SP:FB CYC: 70    I  - N
E394  D0 08     BNE $E39E                       A:BB X:8A Y:66 P:27 SP:FB CYC: 76  CZI  -  
E396  C0 66     CPY #$66                        A:BB X:8A Y:66 P:27 SP:FB CYC: 82  CZI  -  
E398  D0 04     BNE $E39E                       A:BB X:8A Y:66 P:27 SP:FB CYC: 88  CZI  -  
E39A  E0 8A     CPX #$8A                        A:BB X:8A Y:66 P:27 SP:FB CYC: 94  CZI  -  
E39C  F0 04     BEQ $E3A2                       A:BB X:8A Y:66 P:27 SP:FB CYC:100  CZI  -  
E3A2  24 01     BIT $01 = FF                    A:BB X:8A Y:66 P:27 SP:FB CYC:109  CZI  -  
E3A4  38        SEC                             A:BB X:8A Y:66 P:E5 SP:FB CYC:118  C I  -VN
E3A5  A9 44     LDA #$44                        A:BB X:8A Y:66 P:E5 SP:FB CYC:124  C I  -VN
E3A7  A2 00     LDX #$00                        A:44 X:8A Y:66 P:65 SP:FB CYC:130  C I  -V 
E3A9  9D 33 06  STA $0633,X @ 0633 = AA         A:44 X:00 Y:66 P:67 SP:FB CYC:136  CZI  -V 
E3AC  AD 33 06  LDA $0633 = 44                  A:44 X:00 Y:66 P:67 SP:FB CYC:151  CZI  -V 
E3AF  90 1A     BCC $E3CB                       A:44 X:00 Y:66 P:65 SP:FB CYC:163  C I  -V 
E3B1  C9 44     CMP #$44                        A:44 X:00 Y:66 P:65 SP:FB CYC:169  C I  -V 
E3B3  D0 16     BNE $E3CB                       A:44 X:00 Y:66 P:67 SP:FB CYC:175  CZI  -V 
E3B5  50 14     BVC $E3CB                       A:44 X:00 Y:66 P:67 SP:FB CYC:181  CZI  -V 
E3B7  18        CLC                             A:44 X:00 Y:66 P:67 SP:FB CYC:187  CZI  -V 
E3B8  B8        CLV                             A:44 X:00 Y:66 P:66 SP:FB CYC:193   ZI  -V 
E3B9  A9 99     LDA #$99                        A:44 X:00 Y:66 P:26 SP:FB CYC:199   ZI  -  
E3BB  A2 80     LDX #$80                        A:99 X:00 Y:66 P:A4 SP:FB CYC:205    I  - N
E3BD  9D 85 05  STA $0585,X @ 0605 = 00         A:99 X:80 Y:66 P:A4 SP:FB CYC:211    I  - N
E3C0  AD 05 06  LDA $0605 = 99                  A:99 X:80 Y:66 P:A4 SP:FB CYC:226    I  - N
E3C3  B0 06     BCS $E3CB                       A:99 X:80 Y:66 P:A4 SP:FB CYC:238    I  - N
E3C5  C9 99     CMP #$99                        A:99 X:80 Y:66 P:A4 SP:FB CYC:244    I  - N
E3C7  D0 02     BNE $E3CB                       A:99 X:80 Y:66 P:27 SP:FB CYC:250  CZI  -  
E3C9  50 04     BVC $E3CF                       A:99 X:80 Y:66 P:27 SP:FB CYC:256  CZI  -  
E3CF  A0 6D     LDY #$6D                        A:99 X:80 Y:66 P:27 SP:FB CYC:265  CZI  -  
E3D1  A2 6D     LDX #$6D                        A:99 X:80 Y:6D P:25 SP:FB CYC:271  C I  -  
E3D3  20 90 F9  JSR $F990                       A:99 X:6D Y:6D P:25 SP:FB CYC:277  C I  -  
F990  A2 55     LDX #$55                        A:99 X:6D Y:6D P:25 SP:F9 CYC:295  C I  -  
F992  A9 FF     LDA #$FF                        A:99 X:55 Y:6D P:25 SP:F9 CYC:301  C I  -  
F994  85 01     STA $01 = FF                    A:FF X:55 Y:6D P:A5 SP:F9 CYC:307  C I  - N
F996  EA        NOP                             A:FF X:55 Y:6D P:A5 SP:F9 CYC:316  C I  - N
F997  24 01     BIT $01 = FF                    A:FF X:55 Y:6D P:A5 SP:F9 CYC:322  C I  - N
F999  38        SEC                             A:FF X:55 Y:6D P:E5 SP:F9 CYC:331  C I  -VN
F99A  A9 01     LDA #$01                        A:FF X:55 Y:6D P:E5 SP:F9 CYC:337  C I  -VN
F99C  60        RTS                             A:01 X:55 Y:6D P:65 SP:F9 CYC:  2  C I  -V 
E3D6  9D 00 06  STA $0600,X @ 0655 = 00         A:01 X:55 Y:6D P:65 SP:FB CYC: 20  C I  -V 
E3D9  5E 00 06  LSR $0600,X @ 0655 = 01         A:01 X:55 Y:6D P:65 SP:FB CYC: 35  C I  -V 
E3DC  BD 00 06  LDA $0600,X @ 0655 = 00         A:01 X:55 Y:6D P:67 SP:FB CYC: 56  CZI  -V 
E3DF  20 9D F9  JSR $F99D                       A:00 X:55 Y:6D P:67 SP:FB CYC: 68  CZI  -V 
F99D  90 1B     BCC $F9BA                       A:00 X:55 Y:6D P:67 SP:F9 CYC: 86  CZI  -V 
F99F  D0 19     BNE $F9BA                       A:00 X:55 Y:6D P:67 SP:F9 CYC: 92  CZI  -V 
F9A1  30 17     BMI $F9BA                       A:00 X:55 Y:6D P:67 SP:F9 CYC: 98  CZI  -V 
F9A3  50 15     BVC $F9BA                       A:00 X:55 Y:6D P:67 SP:F9 CYC:104  CZI  -V 
F9A5  C9 00     CMP #$00                        A:00 X:55 Y:6D P:67 SP:F9 CYC:110  CZI  -V 
F9A7  D0 11     BNE $F9BA                       A:00 X:55 Y:6D P:67 SP:F9 CYC:116  CZI  -V 
F9A9  B8        CLV                             A:00 X:55 Y:6D P:67 SP:F9 CYC:122  CZI  -V 
F9AA  A9 AA     LDA #$AA                        A:00 X:55 Y:6D P:27 SP:F9 CYC:128  CZI  -  
F9AC  60        RTS                             A:AA X:55 Y:6D P:A5 SP:F9 CYC:134  C I  - N
E3E2  C8        INY                             A:AA X:55 Y:6D P:A5 SP:FB CYC:152  C I  - N
E3E3  9D 00 06  STA $0600,X @ 0655 = 00         A:AA X:55 Y:6E P:25 SP:FB CYC:158  C I  -  
E3E6  5E 00 06  LSR $0600,X @ 0655 = AA         A:AA X:55 Y:6E P:25 SP:FB CYC:173  C I  -  
E3E9  BD 00 06  LDA $0600,X @ 0655 = 55         A:AA X:55 Y:6E P:24 SP:FB CYC:194    I  -  
E3EC  20 AD F9  JSR $F9AD                       A:55 X:55 Y:6E P:24 SP:FB CYC:206    I  -  
F9AD  B0 0B     BCS $F9BA                       A:55 X:55 Y:6E P:24 SP:F9 CYC:224    I  -  
F9AF  F0 09     BEQ $F9BA                       A:55 X:55 Y:6E P:24 SP:F9 CYC:230    I  -  
F9B1  30 07     BMI $F9BA                       A:55 X:55 Y:6E P:24 SP:F9 CYC:236    I  -  
F9B3  70 05     BVS $F9BA                       A:55 X:55 Y:6E P:24 SP:F9 CYC:242    I  -  
F9B5  C9 55     CMP #$55                        A:55 X:55 Y:6E P:24 SP:F9 CYC:248    I  -  
F9B7  D0 01     BNE $F9BA                       A:55 X:55 Y:6E P:27 SP:F9 CYC:254  CZI  -  
F9B9  60        RTS                             A:55 X:55 Y:6E P:27 SP:F9 CYC:260  CZI  -  
E3EF  C8        INY                             A:55 X:55 Y:6E P:27 SP:FB CYC:278  CZI  -  
E3F0  20 BD F9  JSR $F9BD                       A:55 X:55 Y:6F P:25 SP:FB CYC:284  C I  -  
F9BD  24 01     BIT $01 = FF                    A:55 X:55 Y:6F P:25 SP:F9 CYC:302  C I  -  
F9BF  38        SEC                             A:55 X:55 Y:6F P:E5 SP:F9 CYC:311  C I  -VN
F9C0  A9 80     LDA #$80                        A:55 X:55 Y:6F P:E5 SP:F9 CYC:317  C I  -VN
F9C2  60        RTS                             A:80 X:55 Y:6F P:E5 SP:F9 CYC:323  C I  -VN
E3F3  9D 00 06  STA $0600,X @ 0655 = 55         A:80 X:55 Y:6F P:E5 SP:FB CYC:  0  C I  -VN
E3F6  1E 00 06  ASL $0600,X @ 0655 = 80         A:80 X:55 Y:6F P:E5 SP:FB CYC: 15  C I  -VN
E3F9  BD 00 06  LDA $0600,X @ 0655 = 00         A:80 X:55 Y:6F P:67 SP:FB CYC: 36  CZI  -V 
E3FC  20 C3 F9  JSR $F9C3                       A:00 X:55 Y:6F P:67 SP:FB CYC: 48  CZI  -V 
F9C3  90 1C     BCC $F9E1                       A:00 X:55 Y:6F P:67 SP:F9 CYC: 66  CZI  -V 
F9C5  D0 1A     BNE $F9E1                       A:00 X:55 Y:6F P:67 SP:F9 CYC: 72  CZI  -V 
F9C7  30 18     BMI $F9E1                       A:00 X:55 Y:6F P:67 SP:F9 CYC: 78  CZI  -V 
F9C9  50 16     BVC $F9E1                       A:00 X:55 Y:6F P:67 SP:F9 CYC: 84  CZI  -V 
F9CB  C9 00     CMP #$00                        A:00 X:55 Y:6F P:67 SP:F9 CYC: 90  CZI  -V 
F9CD  D0 12     BNE $F9E1                       A:00 X:55 Y:6F P:67 SP:F9 CYC: 96  CZI  -V 
F9CF  B8        CLV                             A:00 X:55 Y:6F P:67 SP:F9 CYC:102  CZI  -V 
F9D0  A9 55     LDA #$55                        A:00 X:55 Y:6F P:27 SP:F9 CYC:108  CZI  -  
F9D2  38        SEC                             A:55 X:55 Y:6F P:25 SP:F9 CYC:114  C I  -  
F9D3  60        RTS                             A:55 X:55 Y:6F P:25 SP:F9 CYC:120  C I  -  
E3FF  C8        INY                             A:55 X:55 Y:6F P:25 SP:FB CYC:138  C I  -  
E400  9D 00 06  STA $0600,X @ 0655 = 00         A:55 X:55 Y:70 P:25 SP:FB CYC:144  C I  -  
E403  1E 00 06  ASL $0600,X @ 0655 = 55         A:55 X:55 Y:70 P:25 SP:FB CYC:159  C I  -  
E406  BD 00 06  LDA $0600,X @ 0655 = AA         A:55 X:55 Y:70 P:A4 SP:FB CYC:180    I  - N
E409  20 D4 F9  JSR $F9D4                       A:AA X:55 Y:70 P:A4 SP:FB CYC:192    I  - N
F9D4  B0 0B     BCS $F9E1                       A:AA X:55 Y:70 P:A4 SP:F9 CYC:210    I  - N
F9D6  F0 09     BEQ $F9E1                       A:AA X:55 Y:70 P:A4 SP:F9 CYC:216    I  - N
F9D8  10 07     BPL $F9E1                       A:AA X:55 Y:70 P:A4 SP:F9 CYC:222    I  - N
F9DA  70 05     BVS $F9E1                       A:AA X:55 Y:70 P:A4 SP:F9 CYC:228    I  - N
F9DC  C9 AA     CMP #$AA                        A:AA X:55 Y:70 P:A4 SP:F9 CYC:234    I  - N
F9DE  D0 01     BNE $F9E1                       A:AA X:55 Y:70 P:27 SP:F9 CYC:240  CZI  -  
F9E0  60        RTS                             A:AA X:55 Y:70 P:27 SP:F9 CYC:246  CZI  -  
E40C  C8        INY                             A:AA X:55 Y:70 P:27 SP:FB CYC:264  CZI  -  
E40D  20 E4 F9  JSR $F9E4                       A:AA X:55 Y:71 P:25 SP:FB CYC:270  C I  -  
F9E4  24 01     BIT $01 = FF                    A:AA X:55 Y:71 P:25 SP:F9 CYC:288  C I  -  
F9E6  38        SEC                             A:AA X:55 Y:71 P:E5 SP:F9 CYC:297  C I  -VN
F9E7  A9 01     LDA #$01                        A:AA X:55 Y:71 P:E5 SP:F9 CYC:303  C I  -VN
F9E9  60        RTS                             A:01 X:55 Y:71 P:65 SP:F9 CYC:309  C I  -V 
E410  9D 00 06  STA $0600,X @ 0655 = AA         A:01 X:55 Y:71 P:65 SP:FB CYC:327  C I  -V 
E413  7E 00 06  ROR $0600,X @ 0655 = 01         A:01 X:55 Y:71 P:65 SP:FB CYC:  1  C I  -V 
E416  BD 00 06  LDA $0600,X @ 0655 = 80         A:01 X:55 Y:71 P:E5 SP:FB CYC: 22  C I  -VN
E419  20 EA F9  JSR $F9EA                       A:80 X:55 Y:71 P:E5 SP:FB CYC: 34  C I  -VN
F9EA  90 1C     BCC $FA08                       A:80 X:55 Y:71 P:E5 SP:F9 CYC: 52  C I  -VN
F9EC  F0 1A     BEQ $FA08                       A:80 X:55 Y:71 P:E5 SP:F9 CYC: 58  C I  -VN
F9EE  10 18     BPL $FA08                       A:80 X:55 Y:71 P:E5 SP:F9 CYC: 64  C I  -VN
F9F0  50 16     BVC $FA08                       A:80 X:55 Y:71 P:E5 SP:F9 CYC: 70  C I  -VN
F9F2  C9 80     CMP #$80                        A:80 X:55 Y:71 P:E5 SP:F9 CYC: 76  C I  -VN
F9F4  D0 12     BNE $FA08                       A:80 X:55 Y:71 P:67 SP:F9 CYC: 82  CZI  -V 
F9F6  B8        CLV                             A:80 X:55 Y:71 P:67 SP:F9 CYC: 88  CZI  -V 
F9F7  18        CLC                             A:80 X:55 Y:71 P:27 SP:F9 CYC: 94  CZI  -  
F9F8  A9 55     LDA #$55                        A:80 X:55 Y:71 P:26 SP:F9 CYC:100   ZI  -  
F9FA  60        RTS                             A:55 X:55 Y:71 P:24 SP:F9 CYC:106    I  -  
E41C  C8        INY                             A:55 X:55 Y:71 P:24 SP:FB CYC:124    I  -  
E41D  9D 00 06  STA $0600,X @ 0655 = 80         A:55 X:55 Y:72 P:24 SP:FB CYC:130    I  -  
E420  7E 00 06  ROR $0600,X @ 0655 = 55         A:55 X:55 Y:72 P:24 SP:FB CYC:145    I  -  
E423  BD 00 06  LDA $0600,X @ 0655 = 2A         A:55 X:55 Y:72 P:25 SP:FB CYC:166  C I  -  
E426  20 FB F9  JSR $F9FB                       A:2A X:55 Y:72 P:25 SP:FB CYC:178  C I  -  
F9FB  90 0B     BCC $FA08                       A:2A X:55 Y:72 P:25 SP:F9 CYC:196  C I  -  
F9FD  F0 09     BEQ $FA08                       A:2A X:55 Y:72 P:25 SP:F9 CYC:202  C I  -  
F9FF  30 07     BMI $FA08                       A:2A X:55 Y:72 P:25 SP:F9 CYC:208  C I  -  
FA01  70 05     BVS $FA08                       A:2A X:55 Y:72 P:25 SP:F9 CYC:214  C I  -  
FA03  C9 2A     CMP #$2A                        A:2A X:55 Y:72 P:25 SP:F9 CYC:220  C I  -  
FA05  D0 01     BNE $FA08                       A:2A X:55 Y:72 P:27 SP:F9 CYC:226  CZI  -  
FA07  60        RTS                             A:2A X:55 Y:72 P:27 SP:F9 CYC:232  CZI  -  
E429  C8        INY                             A:2A X:55 Y:72 P:27 SP:FB CYC:250  CZI  -  
E42A  20 0A FA  JSR $FA0A                       A:2A X:55 Y:73 P:25 SP:FB CYC:256  C I  -  
FA0A  24 01     BIT $01 = FF                    A:2A X:55 Y:73 P:25 SP:F9 CYC:274  C I  -  
FA0C  38        SEC                             A:2A X:55 Y:73 P:E5 SP:F9 CYC:283  C I  -VN
FA0D  A9 80     LDA #$80                        A:2A X:55 Y:73 P:E5 SP:F9 CYC:289  C I  -VN
FA0F  60        RTS                             A:80 X:55 Y:73 P:E5 SP:F9 CYC:295  C I  -VN
E42D  9D 00 06  STA $0600,X @ 0655 = 2A         A:80 X:55 Y:73 P:E5 SP:FB CYC:313  C I  -VN
E430  3E 00 06  ROL $0600,X @ 0655 = 80         A:80 X:55 Y:73 P:E5 SP:FB CYC:328  C I  -VN
E433  BD 00 06  LDA $0600,X @ 0655 = 01         A:80 X:55 Y:73 P:65 SP:FB CYC:  8  C I  -V 
E436  20 10 FA  JSR $FA10                       A:01 X:55 Y:73 P:65 SP:FB CYC: 20  C I  -V 
FA10  90 1C     BCC $FA2E                       A:01 X:55 Y:73 P:65 SP:F9 CYC: 38  C I  -V 
FA12  F0 1A     BEQ $FA2E                       A:01 X:55 Y:73 P:65 SP:F9 CYC: 44  C I  -V 
FA14  30 18     BMI $FA2E                       A:01 X:55 Y:73 P:65 SP:F9 CYC: 50  C I  -V 
FA16  50 16     BVC $FA2E                       A:01 X:55 Y:73 P:65 SP:F9 CYC: 56  C I  -V 
FA18  C9 01     CMP #$01                        A:01 X:55 Y:73 P:65 SP:F9 CYC: 62  C I  -V 
FA1A  D0 12     BNE $FA2E                       A:01 X:55 Y:73 P:67 SP:F9 CYC: 68  CZI  -V 
FA1C  B8        CLV                             A:01 X:55 Y:73 P:67 SP:F9 CYC: 74  CZI  -V 
FA1D  18        CLC                             A:01 X:55 Y:73 P:27 SP:F9 CYC: 80  CZI  -  
FA1E  A9 55     LDA #$55                        A:01 X:55 Y:73 P:26 SP:F9 CYC: 86   ZI  -  
FA20  60        RTS                             A:55 X:55 Y:73 P:24 SP:F9 CYC: 92    I  -  
E439  C8        INY                             A:55 X:55 Y:73 P:24 SP:FB CYC:110    I  -  
E43A  9D 00 06  STA $0600,X @ 0655 = 01         A:55 X:55 Y:74 P:24 SP:FB CYC:116    I  -  
E43D  3E 00 06  ROL $0600,X @ 0655 = 55         A:55 X:55 Y:74 P:24 SP:FB CYC:131    I  -  
E440  BD 00 06  LDA $0600,X @ 0655 = AA         A:55 X:55 Y:74 P:A4 SP:FB CYC:152    I  - N
E443  20 21 FA  JSR $FA21                       A:AA X:55 Y:74 P:A4 SP:FB CYC:164    I  - N
FA21  B0 0B     BCS $FA2E                       A:AA X:55 Y:74 P:A4 SP:F9 CYC:182    I  - N
FA23  F0 09     BEQ $FA2E                       A:AA X:55 Y:74 P:A4 SP:F9 CYC:188    I  - N
FA25  10 07     BPL $FA2E                       A:AA X:55 Y:74 P:A4 SP:F9 CYC:194    I  - N
FA27  70 05     BVS $FA2E                       A:AA X:55 Y:74 P:A4 SP:F9 CYC:200    I  - N
FA29  C9 AA     CMP #$AA                        A:AA X:55 Y:74 P:A4 SP:F9 CYC:206    I  - N
FA2B  D0 01     BNE $FA2E                       A:AA X:55 Y:74 P:27 SP:F9 CYC:212  CZI  -  
FA2D  60        RTS                             A:AA X:55 Y:74 P:27 SP:F9 CYC:218  CZI  -  
E446  A9 FF     LDA #$FF                        A:AA X:55 Y:74 P:27 SP:FB CYC:236  CZI  -  
E448  9D 00 06  STA $0600,X @ 0655 = AA         A:FF X:55 Y:74 P:A5 SP:FB CYC:242  C I  - N
E44B  85 01     STA $01 = FF                    A:FF X:55 Y:74 P:A5 SP:FB CYC:257  C I  - N
E44D  24 01     BIT $01 = FF                    A:FF X:55 Y:74 P:A5 SP:FB CYC:266  C I  - N
E44F  38        SEC                             A:FF X:55 Y:74 P:E5 SP:FB CYC:275  C I  -VN
E450  FE 00 06  INC $0600,X @ 0655 = FF         A:FF X:55 Y:74 P:E5 SP:FB CYC:281  C I  -VN
E453  D0 0D     BNE $E462                       A:FF X:55 Y:74 P:67 SP:FB CYC:302  CZI  -V 
E455  30 0B     BMI $E462                       A:FF X:55 Y:74 P:67 SP:FB CYC:308  CZI  -V 
E457  50 09     BVC $E462                       A:FF X:55 Y:74 P:67 SP:FB CYC:314  CZI  -V 
E459  90 07     BCC $E462                       A:FF X:55 Y:74 P:67 SP:FB CYC:320  CZI  -V 
E45B  BD 00 06  LDA $0600,X @ 0655 = 00         A:FF X:55 Y:74 P:67 SP:FB CYC:326  CZI  -V 
E45E  C9 00     CMP #$00                        A:00 X:55 Y:74 P:67 SP:FB CYC:338  CZI  -V 
E460  F0 04     BEQ $E466                       A:00 X:55 Y:74 P:67 SP:FB CYC:  3  CZI  -V 
E466  A9 7F     LDA #$7F                        A:00 X:55 Y:74 P:67 SP:FB CYC: 12  CZI  -V 
E468  9D 00 06  STA $0600,X @ 0655 = 00         A:7F X:55 Y:74 P:65 SP:FB CYC: 18  C I  -V 
E46B  B8        CLV                             A:7F X:55 Y:74 P:65 SP:FB CYC: 33  C I  -V 
E46C  18        CLC                             A:7F X:55 Y:74 P:25 SP:FB CYC: 39  C I  -  
E46D  FE 00 06  INC $0600,X @ 0655 = 7F         A:7F X:55 Y:74 P:24 SP:FB CYC: 45    I  -  
E470  F0 0D     BEQ $E47F                       A:7F X:55 Y:74 P:A4 SP:FB CYC: 66    I  - N
E472  10 0B     BPL $E47F                       A:7F X:55 Y:74 P:A4 SP:FB CYC: 72    I  - N
E474  70 09     BVS $E47F                       A:7F X:55 Y:74 P:A4 SP:FB CYC: 78    I  - N
E476  B0 07     BCS $E47F                       A:7F X:55 Y:74 P:A4 SP:FB CYC: 84    I  - N
E478  BD 00 06  LDA $0600,X @ 0655 = 80         A:7F X:55 Y:74 P:A4 SP:FB CYC: 90    I  - N
E47B  C9 80     CMP #$80                        A:80 X:55 Y:74 P:A4 SP:FB CYC:102    I  - N
E47D  F0 04     BEQ $E483                       A:80 X:55 Y:74 P:27 SP:FB CYC:108  CZI  -  
E483  A9 00     LDA #$00                        A:80 X:55 Y:74 P:27 SP:FB CYC:117  CZI  -  
E485  9D 00 06  STA $0600,X @ 0655 = 80         A:00 X:55 Y:74 P:27 SP:FB CYC:123  CZI  -  
E488  24 01     BIT $01 = FF                    A:00 X:55 Y:74 P:27 SP:FB CYC:138  CZI  -  
E48A  38        SEC                             A:00 X:55 Y:74 P:E7 SP:FB CYC:147  CZI  -VN
E48B  DE 00 06  DEC $0600,X @ 0655 = 00         A:00 X:55 Y:74 P:E7 SP:FB CYC:153  CZI  -VN
E48E  F0 0D     BEQ $E49D                       A:00 X:55 Y:74 P:E5 SP:FB CYC:174  C I  -VN
E490  10 0B     BPL $E49D                       A:00 X:55 Y:74 P:E5 SP:FB CYC:180  C I  -VN
E492  50 09     BVC $E49D                       A:00 X:55 Y:74 P:E5 SP:FB CYC:186  C I  -VN
E494  90 07     BCC $E49D                       A:00 X:55 Y:74 P:E5 SP:FB CYC:192  C I  -VN
E496  BD 00 06  LDA $0600,X @ 0655 = FF         A:00 X:55 Y:74 P:E5 SP:FB CYC:198  C I  -VN
E499  C9 FF     CMP #$FF                        A:FF X:55 Y:74 P:E5 SP:FB CYC:210  C I  -VN
E49B  F0 04     BEQ $E4A1                       A:FF X:55 Y:74 P:67 SP:FB CYC:216  CZI  -V 
E4A1  A9 80     LDA #$80                        A:FF X:55 Y:74 P:67 SP:FB CYC:225  CZI  -V 
E4A3  9D 00 06  STA $0600,X @ 0655 = FF         A:80 X:55 Y:74 P:E5 SP:FB CYC:231  C I  -VN
E4A6  B8        CLV                             A:80 X:55 Y:74 P:E5 SP:FB CYC:246  C I  -VN
E4A7  18        CLC                             A:80 X:55 Y:74 P:A5 SP:FB CYC:252  C I  - N
E4A8  DE 00 06  DEC $0600,X @ 0655 = 80         A:80 X:55 Y:74 P:A4 SP:FB CYC:258    I  - N
E4AB  F0 0D     BEQ $E4BA                       A:80 X:55 Y:74 P:24 SP:FB CYC:279    I  -  
E4AD  30 0B     BMI $E4BA                       A:80 X:55 Y:74 P:24 SP:FB CYC:285    I  -  
E4AF  70 09     BVS $E4BA                       A:80 X:55 Y:74 P:24 SP:FB CYC:291    I  -  
E4B1  B0 07     BCS $E4BA                       A:80 X:55 Y:74 P:24 SP:FB CYC:297    I  -  
E4B3  BD 00 06  LDA $0600,X @ 0655 = 7F         A:80 X:55 Y:74 P:24 SP:FB CYC:303    I  -  
E4B6  C9 7F     CMP #$7F                        A:7F X:55 Y:74 P:24 SP:FB CYC:315    I  -  
E4B8  F0 04     BEQ $E4BE                       A:7F X:55 Y:74 P:27 SP:FB CYC:321  CZI  -  
E4BE  A9 01     LDA #$01                        A:7F X:55 Y:74 P:27 SP:FB CYC:330  CZI  -  
E4C0  9D 00 06  STA $0600,X @ 0655 = 7F         A:01 X:55 Y:74 P:25 SP:FB CYC:336  C I  -  
E4C3  DE 00 06  DEC $0600,X @ 0655 = 01         A:01 X:55 Y:74 P:25 SP:FB CYC: 10  C I  -  
E4C6  F0 04     BEQ $E4CC                       A:01 X:55 Y:74 P:27 SP:FB CYC: 31  CZI  -  
E4CC  A9 33     LDA #$33                        A:01 X:55 Y:74 P:27 SP:FB CYC: 40  CZI  -  
E4CE  8D 78 06  STA $0678 = 7F                  A:33 X:55 Y:74 P:25 SP:FB CYC: 46  C I  -  
E4D1  A9 44     LDA #$44                        A:33 X:55 Y:74 P:25 SP:FB CYC: 58  C I  -  
E4D3  A0 78     LDY #$78                        A:44 X:55 Y:74 P:25 SP:FB CYC: 64  C I  -  
E4D5  A2 00     LDX #$00                        A:44 X:55 Y:78 P:25 SP:FB CYC: 70  C I  -  
E4D7  38        SEC                             A:44 X:00 Y:78 P:27 SP:FB CYC: 76  CZI  -  
E4D8  24 01     BIT $01 = FF                    A:44 X:00 Y:78 P:27 SP:FB CYC: 82  CZI  -  
E4DA  BE 00 06  LDX $0600,Y @ 0678 = 33         A:44 X:00 Y:78 P:E5 SP:FB CYC: 91  C I  -VN
E4DD  90 12     BCC $E4F1                       A:44 X:33 Y:78 P:65 SP:FB CYC:103  C I  -V 
E4DF  50 10     BVC $E4F1                       A:44 X:33 Y:78 P:65 SP:FB CYC:109  C I  -V 
E4E1  30 0E     BMI $E4F1                       A:44 X:33 Y:78 P:65 SP:FB CYC:115  C I  -V 
E4E3  F0 0C     BEQ $E4F1                       A:44 X:33 Y:78 P:65 SP:FB CYC:121  C I  -V 
E4E5  E0 33     CPX #$33                        A:44 X:33 Y:78 P:65 SP:FB CYC:127  C I  -V 
E4E7  D0 08     BNE $E4F1                       A:44 X:33 Y:78 P:67 SP:FB CYC:133  CZI  -V 
E4E9  C0 78     CPY #$78                        A:44 X:33 Y:78 P:67 SP:FB CYC:139  CZI  -V 
E4EB  D0 04     BNE $E4F1                       A:44 X:33 Y:78 P:67 SP:FB CYC:145  CZI  -V 
E4ED  C9 44     CMP #$44                        A:44 X:33 Y:78 P:67 SP:FB CYC:151  CZI  -V 
E4EF  F0 04     BEQ $E4F5                       A:44 X:33 Y:78 P:67 SP:FB CYC:157  CZI  -V 
E4F5  A9 97     LDA #$97                        A:44 X:33 Y:78 P:67 SP:FB CYC:166  CZI  -V 
E4F7  8D 7F 06  STA $067F = 00                  A:97 X:33 Y:78 P:E5 SP:FB CYC:172  C I  -VN
E4FA  A9 47     LDA #$47                        A:97 X:33 Y:78 P:E5 SP:FB CYC:184  C I  -VN
E4FC  A0 FF     LDY #$FF                        A:47 X:33 Y:78 P:65 SP:FB CYC:190  C I  -V 
E4FE  A2 00     LDX #$00                        A:47 X:33 Y:FF P:E5 SP:FB CYC:196  C I  -VN
E500  18        CLC                             A:47 X:00 Y:FF P:67 SP:FB CYC:202  CZI  -V 
E501  B8        CLV                             A:47 X:00 Y:FF P:66 SP:FB CYC:208   ZI  -V 
E502  BE 80 05  LDX $0580,Y @ 067F = 97         A:47 X:00 Y:FF P:26 SP:FB CYC:214   ZI  -  
E505  B0 12     BCS $E519                       A:47 X:97 Y:FF P:A4 SP:FB CYC:229    I  - N
E507  70 10     BVS $E519                       A:47 X:97 Y:FF P:A4 SP:FB CYC:235    I  - N
E509  10 0E     BPL $E519                       A:47 X:97 Y:FF P:A4 SP:FB CYC:241    I  - N
E50B  F0 0C     BEQ $E519                       A:47 X:97 Y:FF P:A4 SP:FB CYC:247    I  - N
E50D  E0 97     CPX #$97                        A:47 X:97 Y:FF P:A4 SP:FB CYC:253    I  - N
E50F  D0 08     BNE $E519                       A:47 X:97 Y:FF P:27 SP:FB CYC:259  CZI  -  
E511  C0 FF     CPY #$FF                        A:47 X:97 Y:FF P:27 SP:FB CYC:265  CZI  -  
E513  D0 04     BNE $E519                       A:47 X:97 Y:FF P:27 SP:FB CYC:271  CZI  -  
E515  C9 47     CMP #$47                        A:47 X:97 Y:FF P:27 SP:FB CYC:277  CZI  -  
E517  F0 04     BEQ $E51D                       A:47 X:97 Y:FF P:27 SP:FB CYC:283  CZI  -  
E51D  60        RTS                             A:47 X:97 Y:FF P:27 SP:FB CYC:292  CZI  -  
C62F  20 A3 C6  JSR $C6A3                       A:47 X:97 Y:FF P:27 SP:FD CYC:310  CZI  -  
C6A3  A0 4E     LDY #$4E                        A:47 X:97 Y:FF P:27 SP:FB CYC:328  CZI  -  
C6A5  A9 FF     LDA #$FF                        A:47 X:97 Y:4E P:25 SP:FB CYC:334  C I  -  
C6A7  85 01     STA $01 = FF                    A:FF X:97 Y:4E P:A5 SP:FB CYC:340  C I  - N
C6A9  20 B0 C6  JSR $C6B0                       A:FF X:97 Y:4E P:A5 SP:FB CYC:  8  C I  - N
C6B0  A9 FF     LDA #$FF                        A:FF X:97 Y:4E P:A5 SP:F9 CYC: 26  C I  - N
C6B2  48        PHA                             A:FF X:97 Y:4E P:A5 SP:F9 CYC: 32  C I  - N
C6B3  A9 AA     LDA #$AA                        A:FF X:97 Y:4E P:A5 SP:F8 CYC: 41  C I  - N
C6B5  D0 05     BNE $C6BC                       A:AA X:97 Y:4E P:A5 SP:F8 CYC: 47  C I  - N
C6BC  28        PLP                             A:AA X:97 Y:4E P:A5 SP:F8 CYC: 56  C I  - N
C6BD  04 A9    *NOP $A9 = 00                    A:AA X:97 Y:4E P:EF SP:F9 CYC: 68  CZID -VN
C6BF  44 A9    *NOP $A9 = 00                    A:AA X:97 Y:4E P:EF SP:F9 CYC: 77  CZID -VN
C6C1  64 A9    *NOP $A9 = 00                    A:AA X:97 Y:4E P:EF SP:F9 CYC: 86  CZID -VN
C6C3  EA        NOP                             A:AA X:97 Y:4E P:EF SP:F9 CYC: 95  CZID -VN
C6C4  EA        NOP                             A:AA X:97 Y:4E P:EF SP:F9 CYC:101  CZID -VN
C6C5  EA        NOP                             A:AA X:97 Y:4E P:EF SP:F9 CYC:107  CZID -VN
C6C6  EA        NOP                             A:AA X:97 Y:4E P:EF SP:F9 CYC:113  CZID -VN
C6C7  08        PHP                             A:AA X:97 Y:4E P:EF SP:F9 CYC:119  CZID -VN
C6C8  48        PHA                             A:AA X:97 Y:4E P:EF SP:F8 CYC:128  CZID -VN
C6C9  0C A9 A9 *NOP $A9A9 = A9                  A:AA X:97 Y:4E P:EF SP:F7 CYC:137  CZID -VN
C6CC  EA        NOP                             A:AA X:97 Y:4E P:EF SP:F7 CYC:149  CZID -VN
C6CD  EA        NOP                             A:AA X:97 Y:4E P:EF SP:F7 CYC:155  CZID -VN
C6CE  EA        NOP                             A:AA X:97 Y:4E P:EF SP:F7 CYC:161  CZID -VN
C6CF  EA        NOP                             A:AA X:97 Y:4E P:EF SP:F7 CYC:167  CZID -VN
C6D0  08        PHP                             A:AA X:97 Y:4E P:EF SP:F7 CYC:173  CZID -VN
C6D1  48        PHA                             A:AA X:97 Y:4E P:EF SP:F6 CYC:182  CZID -VN
C6D2  14 A9    *NOP $A9,X @ 40 = 00             A:AA X:97 Y:4E P:EF SP:F5 CYC:191  CZID -VN
C6D4  34 A9    *NOP $A9,X @ 40 = 00             A:AA X:97 Y:4E P:EF SP:F5 CYC:203  CZID -VN
C6D6  54 A9    *NOP $A9,X @ 40 = 00             A:AA X:97 Y:4E P:EF SP:F5 CYC:215  CZID -VN
C6D8  74 A9    *NOP $A9,X @ 40 = 00             A:AA X:97 Y:4E P:EF SP:F5 CYC:227  CZID -VN
C6DA  D4 A9    *NOP $A9,X @ 40 = 00             A:AA X:97 Y:4E P:EF SP:F5 CYC:239  CZID -VN
C6DC  F4 A9    *NOP $A9,X @ 40 = 00             A:AA X:97 Y:4E P:EF SP:F5 CYC:251  CZID -VN
C6DE  EA        NOP                             A:AA X:97 Y:4E P:EF SP:F5 CYC:263  CZID -VN
C6DF  EA        NOP                             A:AA X:97 Y:4E P:EF SP:F5 CYC:269  CZID -VN
C6E0  EA        NOP                             A:AA X:97 Y:4E P:EF SP:F5 CYC:275  CZID -VN
C6E1  EA        NOP                             A:AA X:97 Y:4E P:EF SP:F5 CYC:281  CZID -VN
C6E2  08        PHP                             A:AA X:97 Y:4E P:EF SP:F5 CYC:287  CZID -VN
C6E3  48        PHA                             A:AA X:97 Y:4E P:EF SP:F4 CYC:296  CZID -VN
C6E4  1A       *NOP                             A:AA X:97 Y:4E P:EF SP:F3 CYC:305  CZID -VN
C6E5  3A       *NOP                             A:AA X:97 Y:4E P:EF SP:F3 CYC:311  CZID -VN
C6E6  5A       *NOP                             A:AA X:97 Y:4E P:EF SP:F3 CYC:317  CZID -VN
C6E7  7A       *NOP                             A:AA X:97 Y:4E P:EF SP:F3 CYC:323  CZID -VN
C6E8  DA       *NOP                             A:AA X:97 Y:4E P:EF SP:F3 CYC:329  CZID -VN
C6E9  FA       *NOP                             A:AA X:97 Y:4E P:EF SP:F3 CYC:335  CZID -VN
C6EA  80 89    *NOP #$89                        A:AA X:97 Y:4E P:EF SP:F3 CYC:  0  CZID -VN
C6EC  EA        NOP                             A:AA X:97 Y:4E P:EF SP:F3 CYC:  6  CZID -VN
C6ED  EA        NOP                             A:AA X:97 Y:4E P:EF SP:F3 CYC: 12  CZID -VN
C6EE  EA        NOP                             A:AA X:97 Y:4E P:EF SP:F3 CYC: 18  CZID -VN
C6EF  EA        NOP                             A:AA X:97 Y:4E P:EF SP:F3 CYC: 24  CZID -VN
C6F0  08        PHP                             A:AA X:97 Y:4E P:EF SP:F3 CYC: 30  CZID -VN
C6F1  48        PHA                             A:AA X:97 Y:4E P:EF SP:F2 CYC: 39  CZID -VN
C6F2  1C A9 A9 *NOP $A9A9,X @ AA40 = 00         A:AA X:97 Y:4E P:EF SP:F1 CYC: 48  CZID -VN
C6F5  3C A9 A9 *NOP $A9A9,X @ AA40 = 00         A:AA X:97 Y:4E P:EF SP:F1 CYC: 63  CZID -VN
C6F8  5C A9 A9 *NOP $A9A9,X @ AA40 = 00         A:AA X:97 Y:4E P:EF SP:F1 CYC: 78  CZID -VN
C6FB  7C A9 A9 *NOP $A9A9,X @ AA40 = 00         A:AA X:97 Y:4E P:EF SP:F1 CYC: 93  CZID -VN
C6FE  DC A9 A9 *NOP $A9A9,X @ AA40 = 00         A:AA X:97 Y:4E P:EF SP:F1 CYC:108  CZID -VN
C701  FC A9 A9 *NOP $A9A9,X @ AA40 = 00         A:AA X:97 Y:4E P:EF SP:F1 CYC:123  CZID -VN
C704  EA        NOP                             A:AA X:97 Y:4E P:EF SP:F1 CYC:138  CZID -VN
C705  EA        NOP                             A:AA X:97 Y:4E P:EF SP:F1 CYC:144  CZID -VN
C706  EA        NOP                             A:AA X:97 Y:4E P:EF SP:F1 CYC:150  CZID -VN
C707  EA        NOP                             A:AA X:97 Y:4E P:EF SP:F1 CYC:156  CZID -VN
C708  08        PHP                             A:AA X:97 Y:4E P:EF SP:F1 CYC:162  CZID -VN
C709  48        PHA                             A:AA X:97 Y:4E P:EF SP:F0 CYC:171  CZID -VN
C70A  A2 05     LDX #$05                        A:AA X:97 Y:4E P:EF SP:EF CYC:180  CZID -VN
C70C  68        PLA                             A:AA X:05 Y:4E P:6D SP:EF CYC:186  C ID -V 
C70D  C9 55     CMP #$55                        A:AA X:05 Y:4E P:ED SP:F0 CYC:198  C ID -VN
C70F  F0 0A     BEQ $C71B                       A:AA X:05 Y:4E P:6D SP:F0 CYC:204  C ID -V 
C711  C9 AA     CMP #$AA                        A:AA X:05 Y:4E P:6D SP:F0 CYC:210  C ID -V 
C713  F0 06     BEQ $C71B                       A:AA X:05 Y:4E P:6F SP:F0 CYC:216  CZID -V 
C71B  68        PLA                             A:AA X:05 Y:4E P:6F SP:F0 CYC:225  CZID -V 
C71C  29 CB     AND #$CB                        A:FF X:05 Y:4E P:ED SP:F1 CYC:237  C ID -VN
C71E  C9 00     CMP #$00                        A:CB X:05 Y:4E P:ED SP:F1 CYC:243  C ID -VN
C720  F0 06     BEQ $C728                       A:CB X:05 Y:4E P:ED SP:F1 CYC:249  C ID -VN
C722  C9 CB     CMP #$CB                        A:CB X:05 Y:4E P:ED SP:F1 CYC:255  C ID -VN
C724  F0 02     BEQ $C728                       A:CB X:05 Y:4E P:6F SP:F1 CYC:261  CZID -V 
C728  C8        INY                             A:CB X:05 Y:4E P:6F SP:F1 CYC:270  CZID -V 
C729  CA        DEX                             A:CB X:05 Y:4F P:6D SP:F1 CYC:276  C ID -V 
C72A  D0 E0     BNE $C70C                       A:CB X:04 Y:4F P:6D SP:F1 CYC:282  C ID -V 
C70C  68        PLA                             A:CB X:04 Y:4F P:6D SP:F1 CYC:291  C ID -V 
C70D  C9 55     CMP #$55                        A:AA X:04 Y:4F P:ED SP:F2 CYC:303  C ID -VN
C70F  F0 0A     BEQ $C71B                       A:AA X:04 Y:4F P:6D SP:F2 CYC:309  C ID -V 
C711  C9 AA     CMP #$AA                        A:AA X:04 Y:4F P:6D SP:F2 CYC:315  C ID -V 
C713  F0 06     BEQ $C71B                       A:AA X:04 Y:4F P:6F SP:F2 CYC:321  CZID -V 
C71B  68        PLA                             A:AA X:04 Y:4F P:6F SP:F2 CYC:330  CZID -V 
C71C  29 CB     AND #$CB                        A:FF X:04 Y:4F P:ED SP:F3 CYC:  1  C ID -VN
C71E  C9 00     CMP #$00                        A:CB X:04 Y:4F P:ED SP:F3 CYC:  7  C ID -VN
C720  F0 06     BEQ $C728                       A:CB X:04 Y:4F P:ED SP:F3 CYC: 13  C ID -VN
C722  C9 CB     CMP #$CB                        A:CB X:04 Y:4F P:ED SP:F3 CYC: 19  C ID -VN
C724  F0 02     BEQ $C728                       A:CB X:04 Y:4F P:6F SP:F3 CYC: 25  CZID -V 
C728  C8        INY                             A:CB X:04 Y:4F P:6F SP:F3 CYC: 34  CZID -V 
C729  CA        DEX                             A:CB X:04 Y:50 P:6D SP:F3 CYC: 40  C ID -V 
C72A  D0 E0     BNE $C70C                       A:CB X:03 Y:50 P:6D SP:F3 CYC: 46  C ID -V 
C70C  68        PLA                             A:CB X:03 Y:50 P:6D SP:F3 CYC: 55  C ID -V 
C70D  C9 55     CMP #$55                        A:AA X:03 Y:50 P:ED SP:F4 CYC: 67  C ID -VN
C70F  F0 0A     BEQ $C71B                       A:AA X:03 Y:50 P:6D SP:F4 CYC: 73  C ID -V 
C711  C9 AA     CMP #$AA                        A:AA X:03 Y:50 P:6D SP:F4 CYC: 79  C ID -V 
C713  F0 06     BEQ $C71B                       A:AA X:03 Y:50 P:6F SP:F4 CYC: 85  CZID -V 
C71B  68        PLA                             A:AA X:03 Y:50 P:6F SP:F4 CYC: 94  CZID -V 
C71C  29 CB     AND #$CB                        A:FF X:03 Y:50 P:ED SP:F5 CYC:106  C ID -VN
C71E  C9 00     CMP #$00                        A:CB X:03 Y:50 P:ED SP:F5 CYC:112  C ID -VN
C720  F0 06     BEQ $C728                       A:CB X:03 Y:50 P:ED SP:F5 CYC:118  C ID -VN
C722  C9 CB     CMP #$CB                        A:CB X:03 Y:50 P:ED SP:F5 CYC:124  C ID -VN
C724  F0 02     BEQ $C728                       A:CB X:03 Y:50 P:6F SP:F5 CYC:130  CZID -V 
C728  C8        INY                             A:CB X:03 Y:50 P:6F SP:F5 CYC:139  CZID -V 
C729  CA        DEX                             A:CB X:03 Y:51 P:6D SP:F5 CYC:145  C ID -V 
C72A  D0 E0     BNE $C70C                       A:CB X:02 Y:51 P:6D SP:F5 CYC:151  C ID -V 
C70C  68        PLA                             A:CB X:02 Y:51 P:6D SP:F5 CYC:160  C ID -V 
C70D  C9 55     CMP #$55                        A:AA X:02 Y:51 P:ED SP:F6 CYC:172  C ID -VN
C70F  F0 0A     BEQ $C71B                       A:AA X:02 Y:51 P:6D SP:F6 CYC:178  C ID -V 
C711  C9 AA     CMP #$AA                        A:AA X:02 Y:51 P:6D SP:F6 CYC:184  C ID -V 
C713  F0 06     BEQ $C71B                       A:AA X:02 Y:51 P:6F SP:F6 CYC:190  CZID -V 
C71B  68        PLA                             A:AA X:02 Y:51 P:6F SP:F6 CYC:199  CZID -V 
C71C  29 CB     AND #$CB                        A:FF X:02 Y:51 P:ED SP:F7 CYC:211  C ID -VN
C71E  C9 00     CMP #$00                        A:CB X:02 Y:51 P:ED SP:F7 CYC:217  C ID -VN
C720  F0 06     BEQ $C728                       A:CB X:02 Y:51 P:ED SP:F7 CYC:223  C ID -VN
C722  C9 CB     CMP #$CB                        A:CB X:02 Y:51 P:ED SP:F7 CYC:229  C ID -VN
C724  F0 02     BEQ $C728                       A:CB X:02 Y:51 P:6F SP:F7 CYC:235  CZID -V 
C728  C8        INY                             A:CB X:02 Y:51 P:6F SP:F7 CYC:244  CZID -V 
C729  CA        DEX                             A:CB X:02 Y:52 P:6D SP:F7 CYC:250  C ID -V 
C72A  D0 E0     BNE $C70C                       A:CB X:01 Y:52 P:6D SP:F7 CYC:256  C ID -V 
C70C  68        PLA                             A:CB X:01 Y:52 P:6D SP:F7 CYC:265  C ID -V 
C70D  C9 55     CMP #$55                        A:AA X:01 Y:52 P:ED SP:F8 CYC:277  C ID -VN
C70F  F0 0A     BEQ $C71B                       A:AA X:01 Y:52 P:6D SP:F8 CYC:283  C ID -V 
C711  C9 AA     CMP #$AA                        A:AA X:01 Y:52 P:6D SP:F8 CYC:289  C ID -V 
C713  F0 06     BEQ $C71B                       A:AA X:01 Y:52 P:6F SP:F8 CYC:295  CZID -V 
C71B  68        PLA                             A:AA X:01 Y:52 P:6F SP:F8 CYC:304  CZID -V 
C71C  29 CB     AND #$CB                        A:FF X:01 Y:52 P:ED SP:F9 CYC:316  C ID -VN
C71E  C9 00     CMP #$00                        A:CB X:01 Y:52 P:ED SP:F9 CYC:322  C ID -VN
C720  F0 06     BEQ $C728                       A:CB X:01 Y:52 P:ED SP:F9 CYC:328  C ID -VN
C722  C9 CB     CMP #$CB                        A:CB X:01 Y:52 P:ED SP:F9 CYC:334  C ID -VN
C724  F0 02     BEQ $C728                       A:CB X:01 Y:52 P:6F SP:F9 CYC:340  CZID -V 
C728  C8        INY                             A:CB X:01 Y:52 P:6F SP:F9 CYC:  8  CZID -V 
C729  CA        DEX                             A:CB X:01 Y:53 P:6D SP:F9 CYC: 14  C ID -V 
C72A  D0 E0     BNE $C70C                       A:CB X:00 Y:53 P:6F SP:F9 CYC: 20  CZID -V 
C72C  60        RTS                             A:CB X:00 Y:53 P:6F SP:F9 CYC: 26  CZID -V 
C6AC  20 B7 C6  JSR $C6B7                       A:CB X:00 Y:53 P:6F SP:FB CYC: 44  CZID -V 
C6B7  A9 34     LDA #$34                        A:CB X:00 Y:53 P:6F SP:F9 CYC: 62  CZID -V 
C6B9  48        PHA                             A:34 X:00 Y:53 P:6D SP:F9 CYC: 68  C ID -V 
C6BA  A9 55     LDA #$55                        A:34 X:00 Y:53 P:6D SP:F8 CYC: 77  C ID -V 
C6BC  28        PLP                             A:55 X:00 Y:53 P:6D SP:F8 CYC: 83  C ID -V 
C6BD  04 A9    *NOP $A9 = 00                    A:55 X:00 Y:53 P:24 SP:F9 CYC: 95    I  -  
C6BF  44 A9    *NOP $A9 = 00                    A:55 X:00 Y:53 P:24 SP:F9 CYC:104    I  -  
C6C1  64 A9    *NOP $A9 = 00                    A:55 X:00 Y:53 P:24 SP:F9 CYC:113    I  -  
C6C3  EA        NOP                             A:55 X:00 Y:53 P:24 SP:F9 CYC:122    I  -  
C6C4  EA        NOP                             A:55 X:00 Y:53 P:24 SP:F9 CYC:128    I  -  
C6C5  EA        NOP                             A:55 X:00 Y:53 P:24 SP:F9 CYC:134    I  -  
C6C6  EA        NOP                             A:55 X:00 Y:53 P:24 SP:F9 CYC:140    I  -  
C6C7  08        PHP                             A:55 X:00 Y:53 P:24 SP:F9 CYC:146    I  -  
C6C8  48        PHA                             A:55 X:00 Y:53 P:24 SP:F8 CYC:155    I  -  
C6C9  0C A9 A9 *NOP $A9A9 = A9                  A:55 X:00 Y:53 P:24 SP:F7 CYC:164    I  -  
C6CC  EA        NOP                             A:55 X:00 Y:53 P:24 SP:F7 CYC:176    I  -  
C6CD  EA        NOP                             A:55 X:00 Y:53 P:24 SP:F7 CYC:182    I  -  
C6CE  EA        NOP                             A:55 X:00 Y:53 P:24 SP:F7 CYC:188    I  -  
C6CF  EA        NOP                             A:55 X:00 Y:53 P:24 SP:F7 CYC:194    I  -  
C6D0  08        PHP                             A:55 X:00 Y:53 P:24 SP:F7 CYC:200    I  -  
C6D1  48        PHA                             A:55 X:00 Y:53 P:24 SP:F6 CYC:209    I  -  
C6D2  14 A9    *NOP $A9,X @ A9 = 00             A:55 X:00 Y:53 P:24 SP:F5 CYC:218    I  -  
C6D4  34 A9    *NOP $A9,X @ A9 = 00             A:55 X:00 Y:53 P:24 SP:F5 CYC:230    I  -  
C6D6  54 A9    *NOP $A9,X @ A9 = 00             A:55 X:00 Y:53 P:24 SP:F5 CYC:242    I  -  
C6D8  74 A9    *NOP $A9,X @ A9 = 00             A:55 X:00 Y:53 P:24 SP:F5 CYC:254    I  -  
C6DA  D4 A9    *NOP $A9,X @ A9 = 00             A:55 X:00 Y:53 P:24 SP:F5 CYC:266    I  -  
C6DC  F4 A9    *NOP $A9,X @ A9 = 00             A:55 X:00 Y:53 P:24 SP:F5 CYC:278    I  -  
C6DE  EA        NOP                             A:55 X:00 Y:53 P:24 SP:F5 CYC:290    I  -  
C6DF  EA        NOP                             A:55 X:00 Y:53 P:24 SP:F5 CYC:296    I  -  
C6E0  EA        NOP                             A:55 X:00 Y:53 P:24 SP:F5 CYC:302    I  -  
C6E1  EA        NOP                             A:55 X:00 Y:53 P:24 SP:F5 CYC:308    I  -  
C6E2  08        PHP                             A:55 X:00 Y:53 P:24 SP:F5 CYC:314    I  -  
C6E3  48        PHA                             A:55 X:00 Y:53 P:24 SP:F4 CYC:323    I  -  
C6E4  1A       *NOP                             A:55 X:00 Y:53 P:24 SP:F3 CYC:332    I  -  
C6E5  3A       *NOP                             A:55 X:00 Y:53 P:24 SP:F3 CYC:338    I  -  
C6E6  5A       *NOP                             A:55 X:00 Y:53 P:24 SP:F3 CYC:  3    I  -  
C6E7  7A       *NOP                             A:55 X:00 Y:53 P:24 SP:F3 CYC:  9    I  -  
C6E8  DA       *NOP                             A:55 X:00 Y:53 P:24 SP:F3 CYC: 15    I  -  
C6E9  FA       *NOP                             A:55 X:00 Y:53 P:24 SP:F3 CYC: 21    I  -  
C6EA  80 89    *NOP #$89                        A:55 X:00 Y:53 P:24 SP:F3 CYC: 27    I  -  
C6EC  EA        NOP                             A:55 X:00 Y:53 P:24 SP:F3 CYC: 33    I  -  
C6ED  EA        NOP                             A:55 X:00 Y:53 P:24 SP:F3 CYC: 39    I  -  
C6EE  EA        NOP                             A:55 X:00 Y:53 P:24 SP:F3 CYC: 45    I  -  
C6EF  EA        NOP                             A:55 X:00 Y:53 P:24 SP:F3 CYC: 51    I  -  
C6F0  08        PHP                             A:55 X:00 Y:53 P:24 SP:F3 CYC: 57    I  -  
C6F1  48        PHA                             A:55 X:00 Y:53 P:24 SP:F2 CYC: 66    I  -  
C6F2  1C A9 A9 *NOP $A9A9,X @ A9A9 = A9         A:55 X:00 Y:53 P:24 SP:F1 CYC: 75    I  -  
C6F5  3C A9 A9 *NOP $A9A9,X @ A9A9 = A9         A:55 X:00 Y:53 P:24 SP:F1 CYC: 87    I  -  
C6F8  5C A9 A9 *NOP $A9A9,X @ A9A9 = A9         A:55 X:00 Y:53 P:24 SP:F1 CYC: 99    I  -  
C6FB  7C A9 A9 *NOP $A9A9,X @ A9A9 = A9         A:55 X:00 Y:53 P:24 SP:F1 CYC:111    I  -  
C6FE  DC A9 A9 *NOP $A9A9,X @ A9A9 = A9         A:55 X:00 Y:53 P:24 SP:F1 CYC:123    I  -  
C701  FC A9 A9 *NOP $A9A9,X @ A9A9 = A9         A:55 X:00 Y:53 P:24 SP:F1 CYC:135    I  -  
C704  EA        NOP                             A:55 X:00 Y:53 P:24 SP:F1 CYC:147    I  -  
C705  EA        NOP                             A:55 X:00 Y:53 P:24 SP:F1 CYC:153    I  -  
C706  EA        NOP                             A:55 X:00 Y:53 P:24 SP:F1 CYC:159    I  -  
C707  EA        NOP                             A:55 X:00 Y:53 P:24 SP:F1 CYC:165    I  -  
C708  08        PHP                             A:55 X:00 Y:53 P:24 SP:F1 CYC:171    I  -  
C709  48        PHA                             A:55 X:00 Y:53 P:24 SP:F0 CYC:180    I  -  
C70A  A2 05     LDX #$05                        A:55 X:00 Y:53 P:24 SP:EF CYC:189    I  -  
C70C  68        PLA                             A:55 X:05 Y:53 P:24 SP:EF CYC:195    I  -  
C70D  C9 55     CMP #$55                        A:55 X:05 Y:53 P:24 SP:F0 CYC:207    I  -  
C70F  F0 0A     BEQ $C71B                       A:55 X:05 Y:53 P:27 SP:F0 CYC:213  CZI  -  
C71B  68        PLA                             A:55 X:05 Y:53 P:27 SP:F0 CYC:222  CZI  -  
C71C  29 CB     AND #$CB                        A:34 X:05 Y:53 P:25 SP:F1 CYC:234  C I  -  
C71E  C9 00     CMP #$00                        A:00 X:05 Y:53 P:27 SP:F1 CYC:240  CZI  -  
C720  F0 06     BEQ $C728                       A:00 X:05 Y:53 P:27 SP:F1 CYC:246  CZI  -  
C728  C8        INY                             A:00 X:05 Y:53 P:27 SP:F1 CYC:255  CZI  -  
C729  CA        DEX                             A:00 X:05 Y:54 P:25 SP:F1 CYC:261  C I  -  
C72A  D0 E0     BNE $C70C                       A:00 X:04 Y:54 P:25 SP:F1 CYC:267  C I  -  
C70C  68        PLA                             A:00 X:04 Y:54 P:25 SP:F1 CYC:276  C I  -  
C70D  C9 55     CMP #$55                        A:55 X:04 Y:54 P:25 SP:F2 CYC:288  C I  -  
C70F  F0 0A     BEQ $C71B                       A:55 X:04 Y:54 P:27 SP:F2 CYC:294  CZI  -  
C71B  68        PLA                             A:55 X:04 Y:54 P:27 SP:F2 CYC:303  CZI  -  
C71C  29 CB     AND #$CB                        A:34 X:04 Y:54 P:25 SP:F3 CYC:315  C I  -  
C71E  C9 00     CMP #$00                        A:00 X:04 Y:54 P:27 SP:F3 CYC:321  CZI  -  
C720  F0 06     BEQ $C728                       A:00 X:04 Y:54 P:27 SP:F3 CYC:327  CZI  -  
C728  C8        INY                             A:00 X:04 Y:54 P:27 SP:F3 CYC:336  CZI  -  
C729  CA        DEX                             A:00 X:04 Y:55 P:25 SP:F3 CYC:  1  C I  -  
C72A  D0 E0     BNE $C70C                       A:00 X:03 Y:55 P:25 SP:F3 CYC:  7  C I  -  
C70C  68        PLA                             A:00 X:03 Y:55 P:25 SP:F3 CYC: 16  C I  -  
C70D  C9 55     CMP #$55                        A:55 X:03 Y:55 P:25 SP:F4 CYC: 28  C I  -  
C70F  F0 0A     BEQ $C71B                       A:55 X:03 Y:55 P:27 SP:F4 CYC: 34  CZI  -  
C71B  68        PLA                             A:55 X:03 Y:55 P:27 SP:F4 CYC: 43  CZI  -  
C71C  29 CB     AND #$CB                        A:34 X:03 Y:55 P:25 SP:F5 CYC: 55  C I  -  
C71E  C9 00     CMP #$00                        A:00 X:03 Y:55 P:27 SP:F5 CYC: 61  CZI  -  
C720  F0 06     BEQ $C728                       A:00 X:03 Y:55 P:27 SP:F5 CYC: 67  CZI  -  
C728  C8        INY                             A:00 X:03 Y:55 P:27 SP:F5 CYC: 76  CZI  -  
C729  CA        DEX                             A:00 X:03 Y:56 P:25 SP:F5 CYC: 82  C I  -  
C72A  D0 E0     BNE $C70C                       A:00 X:02 Y:56 P:25 SP:F5 CYC: 88  C I  -  
C70C  68        PLA                             A:00 X:02 Y:56 P:25 SP:F5 CYC: 97  C I  -  
C70D  C9 55     CMP #$55                        A:55 X:02 Y:56 P:25 SP:F6 CYC:109  C I  -  
C70F  F0 0A     BEQ $C71B                       A:55 X:02 Y:56 P:27 SP:F6 CYC:115  CZI  -  
C71B  68        PLA                             A:55 X:02 Y:56 P:27 SP:F6 CYC:124  CZI  -  
C71C  29 CB     AND #$CB                        A:34 X:02 Y:56 P:25 SP:F7 CYC:136  C I  -  
C71E  C9 00     CMP #$00                        A:00 X:02 Y:56 P:27 SP:F7 CYC:142  CZI  -  
C720  F0 06     BEQ $C728                       A:00 X:02 Y:56 P:27 SP:F7 CYC:148  CZI  -  
C728  C8        INY                             A:00 X:02 Y:56 P:27 SP:F7 CYC:157  CZI  -  
C729  CA        DEX                             A:00 X:02 Y:57 P:25 SP:F7 CYC:163  C I  -  
C72A  D0 E0     BNE $C70C                       A:00 X:01 Y:57 P:25 SP:F7 CYC:169  C I  -  
C70C  68        PLA                             A:00 X:01 Y:57 P:25 SP:F7 CYC:178  C I  -  
C70D  C9 55     CMP #$55                        A:55 X:01 Y:57 P:25 SP:F8 CYC:190  C I  -  
C70F  F0 0A     BEQ $C71B                       A:55 X:01 Y:57 P:27 SP:F8 CYC:196  CZI  -  
C71B  68        PLA                             A:55 X:01 Y:57 P:27 SP:F8 CYC:205  CZI  -  
C71C  29 CB     AND #$CB                        A:34 X:01 Y:57 P:25 SP:F9 CYC:217  C I  -  
C71E  C9 00     CMP #$00                        A:00 X:01 Y:57 P:27 SP:F9 CYC:223  CZI  -  
C720  F0 06     BEQ $C728                       A:00 X:01 Y:57 P:27 SP:F9 CYC:229  CZI  -  
C728  C8        INY                             A:00 X:01 Y:57 P:27 SP:F9 CYC:238  CZI  -  
C729  CA        DEX                             A:00 X:01 Y:58 P:25 SP:F9 CYC:244  C I  -  
C72A  D0 E0     BNE $C70C                       A:00 X:00 Y:58 P:27 SP:F9 CYC:250  CZI  -  
C72C  60        RTS                             A:00 X:00 Y:58 P:27 SP:F9 CYC:256  CZI  -  
C6AF  60        RTS                             A:00 X:00 Y:58 P:27 SP:FB CYC:274  CZI  -  
C632  20 1E E5  JSR $E51E                       A:00 X:00 Y:58 P:27 SP:FD CYC:292  CZI  -  
E51E  A9 55     LDA #$55                        A:00 X:00 Y:58 P:27 SP:FB CYC:310  CZI  -  
E520  8D 80 05  STA $0580 = 00                  A:55 X:00 Y:58 P:25 SP:FB CYC:316  C I  -  
E523  A9 AA     LDA #$AA                        A:55 X:00 Y:58 P:25 SP:FB CYC:328  C I  -  
E525  8D 32 04  STA $0432 = 00                  A:AA X:00 Y:58 P:A5 SP:FB CYC:334  C I  - N
E528  A9 80     LDA #$80                        A:AA X:00 Y:58 P:A5 SP:FB CYC:  5  C I  - N
E52A  85 43     STA $43 = 00                    A:80 X:00 Y:58 P:A5 SP:FB CYC: 11  C I  - N
E52C  A9 05     LDA #$05                        A:80 X:00 Y:58 P:A5 SP:FB CYC: 20  C I  - N
E52E  85 44     STA $44 = 00                    A:05 X:00 Y:58 P:25 SP:FB CYC: 26  C I  -  
E530  A9 32     LDA #$32                        A:05 X:00 Y:58 P:25 SP:FB CYC: 35  C I  -  
E532  85 45     STA $45 = 00                    A:32 X:00 Y:58 P:25 SP:FB CYC: 41  C I  -  
E534  A9 04     LDA #$04                        A:32 X:00 Y:58 P:25 SP:FB CYC: 50  C I  -  
E536  85 46     STA $46 = 00                    A:04 X:00 Y:58 P:25 SP:FB CYC: 56  C I  -  
E538  A2 03     LDX #$03                        A:04 X:00 Y:58 P:25 SP:FB CYC: 65  C I  -  
E53A  A0 77     LDY #$77                        A:04 X:03 Y:58 P:25 SP:FB CYC: 71  C I  -  
E53C  A9 FF     LDA #$FF                        A:04 X:03 Y:77 P:25 SP:FB CYC: 77  C I  -  
E53E  85 01     STA $01 = FF                    A:FF X:03 Y:77 P:A5 SP:FB CYC: 83  C I  - N
E540  24 01     BIT $01 = FF                    A:FF X:03 Y:77 P:A5 SP:FB CYC: 92  C I  - N
E542  38        SEC                             A:FF X:03 Y:77 P:E5 SP:FB CYC:101  C I  -VN
E543  A9 00     LDA #$00                        A:FF X:03 Y:77 P:E5 SP:FB CYC:107  C I  -VN
E545  A3 40    *LAX ($40,X) @ 43 = 0580 = 55    A:00 X:03 Y:77 P:67 SP:FB CYC:113  CZI  -V 
E547  EA        NOP                             A:55 X:55 Y:77 P:65 SP:FB CYC:131  C I  -V 
E548  EA        NOP                             A:55 X:55 Y:77 P:65 SP:FB CYC:137  C I  -V 
E549  EA        NOP                             A:55 X:55 Y:77 P:65 SP:FB CYC:143  C I  -V 
E54A  EA        NOP                             A:55 X:55 Y:77 P:65 SP:FB CYC:149  C I  -V 
E54B  F0 12     BEQ $E55F                       A:55 X:55 Y:77 P:65 SP:FB CYC:155  C I  -V 
E54D  30 10     BMI $E55F                       A:55 X:55 Y:77 P:65 SP:FB CYC:161  C I  -V 
E54F  50 0E     BVC $E55F                       A:55 X:55 Y:77 P:65 SP:FB CYC:167  C I  -V 
E551  90 0C     BCC $E55F                       A:55 X:55 Y:77 P:65 SP:FB CYC:173  C I  -V 
E553  C9 55     CMP #$55                        A:55 X:55 Y:77 P:65 SP:FB CYC:179  C I  -V 
E555  D0 08     BNE $E55F                       A:55 X:55 Y:77 P:67 SP:FB CYC:185  CZI  -V 
E557  E0 55     CPX #$55                        A:55 X:55 Y:77 P:67 SP:FB CYC:191  CZI  -V 
E559  D0 04     BNE $E55F                       A:55 X:55 Y:77 P:67 SP:FB CYC:197  CZI  -V 
E55B  C0 77     CPY #$77                        A:55 X:55 Y:77 P:67 SP:FB CYC:203  CZI  -V 
E55D  F0 04     BEQ $E563                       A:55 X:55 Y:77 P:67 SP:FB CYC:209  CZI  -V 
E563  A2 05     LDX #$05                        A:55 X:55 Y:77 P:67 SP:FB CYC:218  CZI  -V 
E565  A0 33     LDY #$33                        A:55 X:05 Y:77 P:65 SP:FB CYC:224  C I  -V 
E567  B8        CLV                             A:55 X:05 Y:33 P:65 SP:FB CYC:230  C I  -V 
E568  18        CLC                             A:55 X:05 Y:33 P:25 SP:FB CYC:236  C I  -  
E569  A9 00     LDA #$00                        A:55 X:05 Y:33 P:24 SP:FB CYC:242    I  -  
E56B  A3 40    *LAX ($40,X) @ 45 = 0432 = AA    A:00 X:05 Y:33 P:26 SP:FB CYC:248   ZI  -  
E56D  EA        NOP                             A:AA X:AA Y:33 P:A4 SP:FB CYC:266    I  - N
E56E  EA        NOP                             A:AA X:AA Y:33 P:A4 SP:FB CYC:272    I  - N
E56F  EA        NOP                             A:AA X:AA Y:33 P:A4 SP:FB CYC:278    I  - N
E570  EA        NOP                             A:AA X:AA Y:33 P:A4 SP:FB CYC:284    I  - N
E571  F0 12     BEQ $E585                       A:AA X:AA Y:33 P:A4 SP:FB CYC:290    I  - N
E573  10 10     BPL $E585                       A:AA X:AA Y:33 P:A4 SP:FB CYC:296    I  - N
E575  70 0E     BVS $E585                       A:AA X:AA Y:33 P:A4 SP:FB CYC:302    I  - N
E577  B0 0C     BCS $E585                       A:AA X:AA Y:33 P:A4 SP:FB CYC:308    I  - N
E579  C9 AA     CMP #$AA                        A:AA X:AA Y:33 P:A4 SP:FB CYC:314    I  - N
E57B  D0 08     BNE $E585                       A:AA X:AA Y:33 P:27 SP:FB CYC:320  CZI  -  
E57D  E0 AA     CPX #$AA                        A:AA X:AA Y:33 P:27 SP:FB CYC:326  CZI  -  
E57F  D0 04     BNE $E585                       A:AA X:AA Y:33 P:27 SP:FB CYC:332  CZI  -  
E581  C0 33     CPY #$33                        A:AA X:AA Y:33 P:27 SP:FB CYC:338  CZI  -  
E583  F0 04     BEQ $E589                       A:AA X:AA Y:33 P:27 SP:FB CYC:  3  CZI  -  
E589  A9 87     LDA #$87                        A:AA X:AA Y:33 P:27 SP:FB CYC: 12  CZI  -  
E58B  85 67     STA $67 = 00                    A:87 X:AA Y:33 P:A5 SP:FB CYC: 18  C I  - N
E58D  A9 32     LDA #$32                        A:87 X:AA Y:33 P:A5 SP:FB CYC: 27  C I  - N
E58F  85 68     STA $68 = 00                    A:32 X:AA Y:33 P:25 SP:FB CYC: 33  C I  -  
E591  A0 57     LDY #$57                        A:32 X:AA Y:33 P:25 SP:FB CYC: 42  C I  -  
E593  24 01     BIT $01 = FF                    A:32 X:AA Y:57 P:25 SP:FB CYC: 48  C I  -  
E595  38        SEC                             A:32 X:AA Y:57 P:E5 SP:FB CYC: 57  C I  -VN
E596  A9 00     LDA #$00                        A:32 X:AA Y:57 P:E5 SP:FB CYC: 63  C I  -VN
E598  A7 67    *LAX $67 = 87                    A:00 X:AA Y:57 P:67 SP:FB CYC: 69  CZI  -V 
E59A  EA        NOP                             A:87 X:87 Y:57 P:E5 SP:FB CYC: 78  C I  -VN
E59B  EA        NOP                             A:87 X:87 Y:57 P:E5 SP:FB CYC: 84  C I  -VN
E59C  EA        NOP                             A:87 X:87 Y:57 P:E5 SP:FB CYC: 90  C I  -VN
E59D  EA        NOP                             A:87 X:87 Y:57 P:E5 SP:FB CYC: 96  C I  -VN
E59E  F0 12     BEQ $E5B2                       A:87 X:87 Y:57 P:E5 SP:FB CYC:102  C I  -VN
E5A0  10 10     BPL $E5B2                       A:87 X:87 Y:57 P:E5 SP:FB CYC:108  C I  -VN
E5A2  50 0E     BVC $E5B2                       A:87 X:87 Y:57 P:E5 SP:FB CYC:114  C I  -VN
E5A4  90 0C     BCC $E5B2                       A:87 X:87 Y:57 P:E5 SP:FB CYC:120  C I  -VN
E5A6  C9 87     CMP #$87                        A:87 X:87 Y:57 P:E5 SP:FB CYC:126  C I  -VN
E5A8  D0 08     BNE $E5B2                       A:87 X:87 Y:57 P:67 SP:FB CYC:132  CZI  -V 
E5AA  E0 87     CPX #$87                        A:87 X:87 Y:57 P:67 SP:FB CYC:138  CZI  -V 
E5AC  D0 04     BNE $E5B2                       A:87 X:87 Y:57 P:67 SP:FB CYC:144  CZI  -V 
E5AE  C0 57     CPY #$57                        A:87 X:87 Y:57 P:67 SP:FB CYC:150  CZI  -V 
E5B0  F0 04     BEQ $E5B6                       A:87 X:87 Y:57 P:67 SP:FB CYC:156  CZI  -V 
E5B6  A0 53     LDY #$53                        A:87 X:87 Y:57 P:67 SP:FB CYC:165  CZI  -V 
E5B8  B8        CLV                             A:87 X:87 Y:53 P:65 SP:FB CYC:171  C I  -V 
E5B9  18        CLC                             A:87 X:87 Y:53 P:25 SP:FB CYC:177  C I  -  
E5BA  A9 00     LDA #$00                        A:87 X:87 Y:53 P:24 SP:FB CYC:183    I  -  
E5BC  A7 68    *LAX $68 = 32                    A:00 X:87 Y:53 P:26 SP:FB CYC:189   ZI  -  
E5BE  EA        NOP                             A:32 X:32 Y:53 P:24 SP:FB CYC:198    I  -  
E5BF  EA        NOP                             A:32 X:32 Y:53 P:24 SP:FB CYC:204    I  -  
E5C0  EA        NOP                             A:32 X:32 Y:53 P:24 SP:FB CYC:210    I  -  
E5C1  EA        NOP                             A:32 X:32 Y:53 P:24 SP:FB CYC:216    I  -  
E5C2  F0 12     BEQ $E5D6                       A:32 X:32 Y:53 P:24 SP:FB CYC:222    I  -  
E5C4  30 10     BMI $E5D6                       A:32 X:32 Y:53 P:24 SP:FB CYC:228    I  -  
E5C6  70 0E     BVS $E5D6                       A:32 X:32 Y:53 P:24 SP:FB CYC:234    I  -  
E5C8  B0 0C     BCS $E5D6                       A:32 X:32 Y:53 P:24 SP:FB CYC:240    I  -  
E5CA  C9 32     CMP #$32                        A:32 X:32 Y:53 P:24 SP:FB CYC:246    I  -  
E5CC  D0 08     BNE $E5D6                       A:32 X:32 Y:53 P:27 SP:FB CYC:252  CZI  -  
E5CE  E0 32     CPX #$32                        A:32 X:32 Y:53 P:27 SP:FB CYC:258  CZI  -  
E5D0  D0 04     BNE $E5D6                       A:32 X:32 Y:53 P:27 SP:FB CYC:264  CZI  -  
E5D2  C0 53     CPY #$53                        A:32 X:32 Y:53 P:27 SP:FB CYC:270  CZI  -  
E5D4  F0 04     BEQ $E5DA                       A:32 X:32 Y:53 P:27 SP:FB CYC:276  CZI  -  
E5DA  A9 87     LDA #$87                        A:32 X:32 Y:53 P:27 SP:FB CYC:285  CZI  -  
E5DC  8D 77 05  STA $0577 = 00                  A:87 X:32 Y:53 P:A5 SP:FB CYC:291  C I  - N
E5DF  A9 32     LDA #$32                        A:87 X:32 Y:53 P:A5 SP:FB CYC:303  C I  - N
E5E1  8D 78 05  STA $0578 = 00                  A:32 X:32 Y:53 P:25 SP:FB CYC:309  C I  -  
E5E4  A0 57     LDY #$57                        A:32 X:32 Y:53 P:25 SP:FB CYC:321  C I  -  
E5E6  24 01     BIT $01 = FF                    A:32 X:32 Y:57 P:25 SP:FB CYC:327  C I  -  
E5E8  38        SEC                             A:32 X:32 Y:57 P:E5 SP:FB CYC:336  C I  -VN
E5E9  A9 00     LDA #$00                        A:32 X:32 Y:57 P:E5 SP:FB CYC:  1  C I  -VN
E5EB  AF 77 05 *LAX $0577 = 87                  A:00 X:32 Y:57 P:67 SP:FB CYC:  7  CZI  -V 
E5EE  EA        NOP                             A:87 X:87 Y:57 P:E5 SP:FB CYC: 19  C I  -VN
E5EF  EA        NOP                             A:87 X:87 Y:57 P:E5 SP:FB CYC: 25  C I  -VN
E5F0  EA        NOP                             A:87 X:87 Y:57 P:E5 SP:FB CYC: 31  C I  -VN
E5F1  EA        NOP                             A:87 X:87 Y:57 P:E5 SP:FB CYC: 37  C I  -VN
E5F2  F0 12     BEQ $E606                       A:87 X:87 Y:57 P:E5 SP:FB CYC: 43  C I  -VN
E5F4  10 10     BPL $E606                       A:87 X:87 Y:57 P:E5 SP:FB CYC: 49  C I  -VN
E5F6  50 0E     BVC $E606                       A:87 X:87 Y:57 P:E5 SP:FB CYC: 55  C I  -VN
E5F8  90 0C     BCC $E606                       A:87 X:87 Y:57 P:E5 SP:FB CYC: 61  C I  -VN
E5FA  C9 87     CMP #$87                        A:87 X:87 Y:57 P:E5 SP:FB CYC: 67  C I  -VN
E5FC  D0 08     BNE $E606                       A:87 X:87 Y:57 P:67 SP:FB CYC: 73  CZI  -V 
E5FE  E0 87     CPX #$87                        A:87 X:87 Y:57 P:67 SP:FB CYC: 79  CZI  -V 
E600  D0 04     BNE $E606                       A:87 X:87 Y:57 P:67 SP:FB CYC: 85  CZI  -V 
E602  C0 57     CPY #$57                        A:87 X:87 Y:57 P:67 SP:FB CYC: 91  CZI  -V 
E604  F0 04     BEQ $E60A                       A:87 X:87 Y:57 P:67 SP:FB CYC: 97  CZI  -V 
E60A  A0 53     LDY #$53                        A:87 X:87 Y:57 P:67 SP:FB CYC:106  CZI  -V 
E60C  B8        CLV                             A:87 X:87 Y:53 P:65 SP:FB CYC:112  C I  -V 
E60D  18        CLC                             A:87 X:87 Y:53 P:25 SP:FB CYC:118  C I  -  
E60E  A9 00     LDA #$00                        A:87 X:87 Y:53 P:24 SP:FB CYC:124    I  -  
E610  AF 78 05 *LAX $0578 = 32                  A:00 X:87 Y:53 P:26 SP:FB CYC:130   ZI  -  
E613  EA        NOP                             A:32 X:32 Y:53 P:24 SP:FB CYC:142    I  -  
E614  EA        NOP                             A:32 X:32 Y:53 P:24 SP:FB CYC:148    I  -  
E615  EA        NOP                             A:32 X:32 Y:53 P:24 SP:FB CYC:154    I  -  
E616  EA        NOP                             A:32 X:32 Y:53 P:24 SP:FB CYC:160    I  -  
E617  F0 12     BEQ $E62B                       A:32 X:32 Y:53 P:24 SP:FB CYC:166    I  -  
E619  30 10     BMI $E62B                       A:32 X:32 Y:53 P:24 SP:FB CYC:172    I  -  
E61B  70 0E     BVS $E62B                       A:32 X:32 Y:53 P:24 SP:FB CYC:178    I  -  
E61D  B0 0C     BCS $E62B                       A:32 X:32 Y:53 P:24 SP:FB CYC:184    I  -  
E61F  C9 32     CMP #$32                        A:32 X:32 Y:53 P:24 SP:FB CYC:190    I  -  
E621  D0 08     BNE $E62B                       A:32 X:32 Y:53 P:27 SP:FB CYC:196  CZI  -  
E623  E0 32     CPX #$32                        A:32 X:32 Y:53 P:27 SP:FB CYC:202  CZI  -  
E625  D0 04     BNE $E62B                       A:32 X:32 Y:53 P:27 SP:FB CYC:208  CZI  -  
E627  C0 53     CPY #$53                        A:32 X:32 Y:53 P:27 SP:FB CYC:214  CZI  -  
E629  F0 04     BEQ $E62F                       A:32 X:32 Y:53 P:27 SP:FB CYC:220  CZI  -  
E62F  A9 FF     LDA #$FF                        A:32 X:32 Y:53 P:27 SP:FB CYC:229  CZI  -  
E631  85 43     STA $43 = 80                    A:FF X:32 Y:53 P:A5 SP:FB CYC:235  C I  - N
E633  A9 04     LDA #$04                        A:FF X:32 Y:53 P:A5 SP:FB CYC:244  C I  - N
E635  85 44     STA $44 = 05                    A:04 X:32 Y:53 P:25 SP:FB CYC:250  C I  -  
E637  A9 32     LDA #$32                        A:04 X:32 Y:53 P:25 SP:FB CYC:259  C I  -  
E639  85 45     STA $45 = 32                    A:32 X:32 Y:53 P:25 SP:FB CYC:265  C I  -  
E63B  A9 04     LDA #$04                        A:32 X:32 Y:53 P:25 SP:FB CYC:274  C I  -  
E63D  85 46     STA $46 = 04                    A:04 X:32 Y:53 P:25 SP:FB CYC:280  C I  -  
E63F  A9 55     LDA #$55                        A:04 X:32 Y:53 P:25 SP:FB CYC:289  C I  -  
E641  8D 80 05  STA $0580 = 55                  A:55 X:32 Y:53 P:25 SP:FB CYC:295  C I  -  
E644  A9 AA     LDA #$AA                        A:55 X:32 Y:53 P:25 SP:FB CYC:307  C I  -  
E646  8D 32 04  STA $0432 = AA                  A:AA X:32 Y:53 P:A5 SP:FB CYC:313  C I  - N
E649  A2 03     LDX #$03                        A:AA X:32 Y:53 P:A5 SP:FB CYC:325  C I  - N
E64B  A0 81     LDY #$81                        A:AA X:03 Y:53 P:25 SP:FB CYC:331  C I  -  
E64D  24 01     BIT $01 = FF                    A:AA X:03 Y:81 P:A5 SP:FB CYC:337  C I  - N
E64F  38        SEC                             A:AA X:03 Y:81 P:E5 SP:FB CYC:  5  C I  -VN
E650  A9 00     LDA #$00                        A:AA X:03 Y:81 P:E5 SP:FB CYC: 11  C I  -VN
E652  B3 43    *LAX ($43),Y = 04FF @ 0580 = 55  A:00 X:03 Y:81 P:67 SP:FB CYC: 17  CZI  -V 
E654  EA        NOP                             A:55 X:55 Y:81 P:65 SP:FB CYC: 35  C I  -V 
E655  EA        NOP                             A:55 X:55 Y:81 P:65 SP:FB CYC: 41  C I  -V 
E656  EA        NOP                             A:55 X:55 Y:81 P:65 SP:FB CYC: 47  C I  -V 
E657  EA        NOP                             A:55 X:55 Y:81 P:65 SP:FB CYC: 53  C I  -V 
E658  F0 12     BEQ $E66C                       A:55 X:55 Y:81 P:65 SP:FB CYC: 59  C I  -V 
E65A  30 10     BMI $E66C                       A:55 X:55 Y:81 P:65 SP:FB CYC: 65  C I  -V 
E65C  50 0E     BVC $E66C                       A:55 X:55 Y:81 P:65 SP:FB CYC: 71  C I  -V 
E65E  90 0C     BCC $E66C                       A:55 X:55 Y:81 P:65 SP:FB CYC: 77  C I  -V 
E660  C9 55     CMP #$55                        A:55 X:55 Y:81 P:65 SP:FB CYC: 83  C I  -V 
E662  D0 08     BNE $E66C                       A:55 X:55 Y:81 P:67 SP:FB CYC: 89  CZI  -V 
E664  E0 55     CPX #$55                        A:55 X:55 Y:81 P:67 SP:FB CYC: 95  CZI  -V 
E666  D0 04     BNE $E66C                       A:55 X:55 Y:81 P:67 SP:FB CYC:101  CZI  -V 
E668  C0 81     CPY #$81                        A:55 X:55 Y:81 P:67 SP:FB CYC:107  CZI  -V 
E66A  F0 04     BEQ $E670                       A:55 X:55 Y:81 P:67 SP:FB CYC:113  CZI  -V 
E670  A2 05     LDX #$05                        A:55 X:55 Y:81 P:67 SP:FB CYC:122  CZI  -V 
E672  A0 00     LDY #$00                        A:55 X:05 Y:81 P:65 SP:FB CYC:128  C I  -V 
E674  B8        CLV                             A:55 X:05 Y:00 P:67 SP:FB CYC:134  CZI  -V 
E675  18        CLC                             A:55 X:05 Y:00 P:27 SP:FB CYC:140  CZI  -  
E676  A9 00     LDA #$00                        A:55 X:05 Y:00 P:26 SP:FB CYC:146   ZI  -  
E678  B3 45    *LAX ($45),Y = 0432 @ 0432 = AA  A:00 X:05 Y:00 P:26 SP:FB CYC:152   ZI  -  
E67A  EA        NOP                             A:AA X:AA Y:00 P:A4 SP:FB CYC:167    I  - N
E67B  EA        NOP                             A:AA X:AA Y:00 P:A4 SP:FB CYC:173    I  - N
E67C  EA        NOP                             A:AA X:AA Y:00 P:A4 SP:FB CYC:179    I  - N
E67D  EA        NOP                             A:AA X:AA Y:00 P:A4 SP:FB CYC:185    I  - N
E67E  F0 12     BEQ $E692                       A:AA X:AA Y:00 P:A4 SP:FB CYC:191    I  - N
E680  10 10     BPL $E692                       A:AA X:AA Y:00 P:A4 SP:FB CYC:197    I  - N
E682  70 0E     BVS $E692                       A:AA X:AA Y:00 P:A4 SP:FB CYC:203    I  - N
E684  B0 0C     BCS $E692                       A:AA X:AA Y:00 P:A4 SP:FB CYC:209    I  - N
E686  C9 AA     CMP #$AA                        A:AA X:AA Y:00 P:A4 SP:FB CYC:215    I  - N
E688  D0 08     BNE $E692                       A:AA X:AA Y:00 P:27 SP:FB CYC:221  CZI  -  
E68A  E0 AA     CPX #$AA                        A:AA X:AA Y:00 P:27 SP:FB CYC:227  CZI  -  
E68C  D0 04     BNE $E692                       A:AA X:AA Y:00 P:27 SP:FB CYC:233  CZI  -  
E68E  C0 00     CPY #$00                        A:AA X:AA Y:00 P:27 SP:FB CYC:239  CZI  -  
E690  F0 04     BEQ $E696                       A:AA X:AA Y:00 P:27 SP:FB CYC:245  CZI  -  
E696  A9 87     LDA #$87                        A:AA X:AA Y:00 P:27 SP:FB CYC:254  CZI  -  
E698  85 67     STA $67 = 87                    A:87 X:AA Y:00 P:A5 SP:FB CYC:260  C I  - N
E69A  A9 32     LDA #$32                        A:87 X:AA Y:00 P:A5 SP:FB CYC:269  C I  - N
E69C  85 68     STA $68 = 32                    A:32 X:AA Y:00 P:25 SP:FB CYC:275  C I  -  
E69E  A0 57     LDY #$57                        A:32 X:AA Y:00 P:25 SP:FB CYC:284  C I  -  
E6A0  24 01     BIT $01 = FF                    A:32 X:AA Y:57 P:25 SP:FB CYC:290  C I  -  
E6A2  38        SEC                             A:32 X:AA Y:57 P:E5 SP:FB CYC:299  C I  -VN
E6A3  A9 00     LDA #$00                        A:32 X:AA Y:57 P:E5 SP:FB CYC:305  C I  -VN
E6A5  B7 10    *LAX $10,Y @ 67 = 87             A:00 X:AA Y:57 P:67 SP:FB CYC:311  CZI  -V 
E6A7  EA        NOP                             A:87 X:87 Y:57 P:E5 SP:FB CYC:323  C I  -VN
E6A8  EA        NOP                             A:87 X:87 Y:57 P:E5 SP:FB CYC:329  C I  -VN
E6A9  EA        NOP                             A:87 X:87 Y:57 P:E5 SP:FB CYC:335  C I  -VN
E6AA  EA        NOP                             A:87 X:87 Y:57 P:E5 SP:FB CYC:  0  C I  -VN
E6AB  F0 12     BEQ $E6BF                       A:87 X:87 Y:57 P:E5 SP:FB CYC:  6  C I  -VN
E6AD  10 10     BPL $E6BF                       A:87 X:87 Y:57 P:E5 SP:FB CYC: 12  C I  -VN
E6AF  50 0E     BVC $E6BF                       A:87 X:87 Y:57 P:E5 SP:FB CYC: 18  C I  -VN
E6B1  90 0C     BCC $E6BF                       A:87 X:87 Y:57 P:E5 SP:FB CYC: 24  C I  -VN
E6B3  C9 87     CMP #$87                        A:87 X:87 Y:57 P:E5 SP:FB CYC: 30  C I  -VN
E6B5  D0 08     BNE $E6BF                       A:87 X:87 Y:57 P:67 SP:FB CYC: 36  CZI  -V 
E6B7  E0 87     CPX #$87                        A:87 X:87 Y:57 P:67 SP:FB CYC: 42  CZI  -V 
E6B9  D0 04     BNE $E6BF                       A:87 X:87 Y:57 P:67 SP:FB CYC: 48  CZI  -V 
E6BB  C0 57     CPY #$57                        A:87 X:87 Y:57 P:67 SP:FB CYC: 54  CZI  -V 
E6BD  F0 04     BEQ $E6C3                       A:87 X:87 Y:57 P:67 SP:FB CYC: 60  CZI  -V 
E6C3  A0 FF     LDY #$FF                        A:87 X:87 Y:57 P:67 SP:FB CYC: 69  CZI  -V 
E6C5  B8        CLV                             A:87 X:87 Y:FF P:E5 SP:FB CYC: 75  C I  -VN
E6C6  18        CLC                             A:87 X:87 Y:FF P:A5 SP:FB CYC: 81  C I  - N
E6C7  A9 00     LDA #$00                        A:87 X:87 Y:FF P:A4 SP:FB CYC: 87    I  - N
E6C9  B7 69    *LAX $69,Y @ 68 = 32             A:00 X:87 Y:FF P:26 SP:FB CYC: 93   ZI  -  
E6CB  EA        NOP                             A:32 X:32 Y:FF P:24 SP:FB CYC:105    I  -  
E6CC  EA        NOP                             A:32 X:32 Y:FF P:24 SP:FB CYC:111    I  -  
E6CD  EA        NOP                             A:32 X:32 Y:FF P:24 SP:FB CYC:117    I  -  
E6CE  EA        NOP                             A:32 X:32 Y:FF P:24 SP:FB CYC:123    I  -  
E6CF  F0 12     BEQ $E6E3                       A:32 X:32 Y:FF P:24 SP:FB CYC:129    I  -  
E6D1  30 10     BMI $E6E3                       A:32 X:32 Y:FF P:24 SP:FB CYC:135    I  -  
E6D3  70 0E     BVS $E6E3                       A:32 X:32 Y:FF P:24 SP:FB CYC:141    I  -  
E6D5  B0 0C     BCS $E6E3                       A:32 X:32 Y:FF P:24 SP:FB CYC:147    I  -  
E6D7  C9 32     CMP #$32                        A:32 X:32 Y:FF P:24 SP:FB CYC:153    I  -  
E6D9  D0 08     BNE $E6E3                       A:32 X:32 Y:FF P:27 SP:FB CYC:159  CZI  -  
E6DB  E0 32     CPX #$32                        A:32 X:32 Y:FF P:27 SP:FB CYC:165  CZI  -  
E6DD  D0 04     BNE $E6E3                       A:32 X:32 Y:FF P:27 SP:FB CYC:171  CZI  -  
E6DF  C0 FF     CPY #$FF                        A:32 X:32 Y:FF P:27 SP:FB CYC:177  CZI  -  
E6E1  F0 04     BEQ $E6E7                       A:32 X:32 Y:FF P:27 SP:FB CYC:183  CZI  -  
E6E7  A9 87     LDA #$87                        A:32 X:32 Y:FF P:27 SP:FB CYC:192  CZI  -  
E6E9  8D 87 05  STA $0587 = 00                  A:87 X:32 Y:FF P:A5 SP:FB CYC:198  C I  - N
E6EC  A9 32     LDA #$32                        A:87 X:32 Y:FF P:A5 SP:FB CYC:210  C I  - N
E6EE  8D 88 05  STA $0588 = 00                  A:32 X:32 Y:FF P:25 SP:FB CYC:216  C I  -  
E6F1  A0 30     LDY #$30                        A:32 X:32 Y:FF P:25 SP:FB CYC:228  C I  -  
E6F3  24 01     BIT $01 = FF                    A:32 X:32 Y:30 P:25 SP:FB CYC:234  C I  -  
E6F5  38        SEC                             A:32 X:32 Y:30 P:E5 SP:FB CYC:243  C I  -VN
E6F6  A9 00     LDA #$00                        A:32 X:32 Y:30 P:E5 SP:FB CYC:249  C I  -VN
E6F8  BF 57 05 *LAX $0557,Y @ 0587 = 87         A:00 X:32 Y:30 P:67 SP:FB CYC:255  CZI  -V 
E6FB  EA        NOP                             A:87 X:87 Y:30 P:E5 SP:FB CYC:267  C I  -VN
E6FC  EA        NOP                             A:87 X:87 Y:30 P:E5 SP:FB CYC:273  C I  -VN
E6FD  EA        NOP                             A:87 X:87 Y:30 P:E5 SP:FB CYC:279  C I  -VN
E6FE  EA        NOP                             A:87 X:87 Y:30 P:E5 SP:FB CYC:285  C I  -VN
E6FF  F0 12     BEQ $E713                       A:87 X:87 Y:30 P:E5 SP:FB CYC:291  C I  -VN
E701  10 10     BPL $E713                       A:87 X:87 Y:30 P:E5 SP:FB CYC:297  C I  -VN
E703  50 0E     BVC $E713                       A:87 X:87 Y:30 P:E5 SP:FB CYC:303  C I  -VN
E705  90 0C     BCC $E713                       A:87 X:87 Y:30 P:E5 SP:FB CYC:309  C I  -VN
E707  C9 87     CMP #$87                        A:87 X:87 Y:30 P:E5 SP:FB CYC:315  C I  -VN
E709  D0 08     BNE $E713                       A:87 X:87 Y:30 P:67 SP:FB CYC:321  CZI  -V 
E70B  E0 87     CPX #$87                        A:87 X:87 Y:30 P:67 SP:FB CYC:327  CZI  -V 
E70D  D0 04     BNE $E713                       A:87 X:87 Y:30 P:67 SP:FB CYC:333  CZI  -V 
E70F  C0 30     CPY #$30                        A:87 X:87 Y:30 P:67 SP:FB CYC:339  CZI  -V 
E711  F0 04     BEQ $E717                       A:87 X:87 Y:30 P:67 SP:FB CYC:  4  CZI  -V 
E717  A0 40     LDY #$40                        A:87 X:87 Y:30 P:67 SP:FB CYC: 13  CZI  -V 
E719  B8        CLV                             A:87 X:87 Y:40 P:65 SP:FB CYC: 19  C I  -V 
E71A  18        CLC                             A:87 X:87 Y:40 P:25 SP:FB CYC: 25  C I  -  
E71B  A9 00     LDA #$00                        A:87 X:87 Y:40 P:24 SP:FB CYC: 31    I  -  
E71D  BF 48 05 *LAX $0548,Y @ 0588 = 32         A:00 X:87 Y:40 P:26 SP:FB CYC: 37   ZI  -  
E720  EA        NOP                             A:32 X:32 Y:40 P:24 SP:FB CYC: 49    I  -  
E721  EA        NOP                             A:32 X:32 Y:40 P:24 SP:FB CYC: 55    I  -  
E722  EA        NOP                             A:32 X:32 Y:40 P:24 SP:FB CYC: 61    I  -  
E723  EA        NOP                             A:32 X:32 Y:40 P:24 SP:FB CYC: 67    I  -  
E724  F0 12     BEQ $E738                       A:32 X:32 Y:40 P:24 SP:FB CYC: 73    I  -  
E726  30 10     BMI $E738                       A:32 X:32 Y:40 P:24 SP:FB CYC: 79    I  -  
E728  70 0E     BVS $E738                       A:32 X:32 Y:40 P:24 SP:FB CYC: 85    I  -  
E72A  B0 0C     BCS $E738                       A:32 X:32 Y:40 P:24 SP:FB CYC: 91    I  -  
E72C  C9 32     CMP #$32                        A:32 X:32 Y:40 P:24 SP:FB CYC: 97    I  -  
E72E  D0 08     BNE $E738                       A:32 X:32 Y:40 P:27 SP:FB CYC:103  CZI  -  
E730  E0 32     CPX #$32                        A:32 X:32 Y:40 P:27 SP:FB CYC:109  CZI  -  
E732  D0 04     BNE $E738                       A:32 X:32 Y:40 P:27 SP:FB CYC:115  CZI  -  
E734  C0 40     CPY #$40                        A:32 X:32 Y:40 P:27 SP:FB CYC:121  CZI  -  
E736  F0 04     BEQ $E73C                       A:32 X:32 Y:40 P:27 SP:FB CYC:127  CZI  -  
E73C  60        RTS                             A:32 X:32 Y:40 P:27 SP:FB CYC:136  CZI  -  
C635  20 3D E7  JSR $E73D                       A:32 X:32 Y:40 P:27 SP:FD CYC:154  CZI  -  
E73D  A9 C0     LDA #$C0                        A:32 X:32 Y:40 P:27 SP:FB CYC:172  CZI  -  
E73F  85 01     STA $01 = FF                    A:C0 X:32 Y:40 P:A5 SP:FB CYC:178  C I  - N
E741  A9 00     LDA #$00                        A:C0 X:32 Y:40 P:A5 SP:FB CYC:187  C I  - N
E743  8D 89 04  STA $0489 = 00                  A:00 X:32 Y:40 P:27 SP:FB CYC:193  CZI  -  
E746  A9 89     LDA #$89                        A:00 X:32 Y:40 P:27 SP:FB CYC:205  CZI  -  
E748  85 60     STA $60 = 00                    A:89 X:32 Y:40 P:A5 SP:FB CYC:211  C I  - N
E74A  A9 04     LDA #$04                        A:89 X:32 Y:40 P:A5 SP:FB CYC:220  C I  - N
E74C  85 61     STA $61 = 00                    A:04 X:32 Y:40 P:25 SP:FB CYC:226  C I  -  
E74E  A0 44     LDY #$44                        A:04 X:32 Y:40 P:25 SP:FB CYC:235  C I  -  
E750  A2 17     LDX #$17                        A:04 X:32 Y:44 P:25 SP:FB CYC:241  C I  -  
E752  A9 3E     LDA #$3E                        A:04 X:17 Y:44 P:25 SP:FB CYC:247  C I  -  
E754  24 01     BIT $01 = C0                    A:3E X:17 Y:44 P:25 SP:FB CYC:253  C I  -  
E756  18        CLC                             A:3E X:17 Y:44 P:E7 SP:FB CYC:262  CZI  -VN
E757  83 49    *SAX ($49,X) @ 60 = 0489 = 00    A:3E X:17 Y:44 P:E6 SP:FB CYC:268   ZI  -VN
E759  EA        NOP                             A:3E X:17 Y:44 P:E6 SP:FB CYC:286   ZI  -VN
E75A  EA        NOP                             A:3E X:17 Y:44 P:E6 SP:FB CYC:292   ZI  -VN
E75B  EA        NOP                             A:3E X:17 Y:44 P:E6 SP:FB CYC:298   ZI  -VN
E75C  EA        NOP                             A:3E X:17 Y:44 P:E6 SP:FB CYC:304   ZI  -VN
E75D  D0 19     BNE $E778                       A:3E X:17 Y:44 P:E6 SP:FB CYC:310   ZI  -VN
E75F  B0 17     BCS $E778                       A:3E X:17 Y:44 P:E6 SP:FB CYC:316   ZI  -VN
E761  50 15     BVC $E778                       A:3E X:17 Y:44 P:E6 SP:FB CYC:322   ZI  -VN
E763  10 13     BPL $E778                       A:3E X:17 Y:44 P:E6 SP:FB CYC:328   ZI  -VN
E765  C9 3E     CMP #$3E                        A:3E X:17 Y:44 P:E6 SP:FB CYC:334   ZI  -VN
E767  D0 0F     BNE $E778                       A:3E X:17 Y:44 P:67 SP:FB CYC:340  CZI  -V 
E769  C0 44     CPY #$44                        A:3E X:17 Y:44 P:67 SP:FB CYC:  5  CZI  -V 
E76B  D0 0B     BNE $E778                       A:3E X:17 Y:44 P:67 SP:FB CYC: 11  CZI  -V 
E76D  E0 17     CPX #$17                        A:3E X:17 Y:44 P:67 SP:FB CYC: 17  CZI  -V 
E76F  D0 07     BNE $E778                       A:3E X:17 Y:44 P:67 SP:FB CYC: 23  CZI  -V 
E771  AD 89 04  LDA $0489 = 16                  A:3E X:17 Y:44 P:67 SP:FB CYC: 29  CZI  -V 
E774  C9 16     CMP #$16                        A:16 X:17 Y:44 P:65 SP:FB CYC: 41  C I  -V 
E776  F0 04     BEQ $E77C                       A:16 X:17 Y:44 P:67 SP:FB CYC: 47  CZI  -V 
E77C  A0 44     LDY #$44                        A:16 X:17 Y:44 P:67 SP:FB CYC: 56  CZI  -V 
E77E  A2 7A     LDX #$7A                        A:16 X:17 Y:44 P:65 SP:FB CYC: 62  C I  -V 
E780  A9 66     LDA #$66                        A:16 X:7A Y:44 P:65 SP:FB CYC: 68  C I  -V 
E782  38        SEC                             A:66 X:7A Y:44 P:65 SP:FB CYC: 74  C I  -V 
E783  B8        CLV                             A:66 X:7A Y:44 P:65 SP:FB CYC: 80  C I  -V 
E784  83 E6    *SAX ($E6,X) @ 60 = 0489 = 16    A:66 X:7A Y:44 P:25 SP:FB CYC: 86  C I  -  
E786  EA        NOP                             A:66 X:7A Y:44 P:25 SP:FB CYC:104  C I  -  
E787  EA        NOP                             A:66 X:7A Y:44 P:25 SP:FB CYC:110  C I  -  
E788  EA        NOP                             A:66 X:7A Y:44 P:25 SP:FB CYC:116  C I  -  
E789  EA        NOP                             A:66 X:7A Y:44 P:25 SP:FB CYC:122  C I  -  
E78A  F0 19     BEQ $E7A5                       A:66 X:7A Y:44 P:25 SP:FB CYC:128  C I  -  
E78C  90 17     BCC $E7A5                       A:66 X:7A Y:44 P:25 SP:FB CYC:134  C I  -  
E78E  70 15     BVS $E7A5                       A:66 X:7A Y:44 P:25 SP:FB CYC:140  C I  -  
E790  30 13     BMI $E7A5                       A:66 X:7A Y:44 P:25 SP:FB CYC:146  C I  -  
E792  C9 66     CMP #$66                        A:66 X:7A Y:44 P:25 SP:FB CYC:152  C I  -  
E794  D0 0F     BNE $E7A5                       A:66 X:7A Y:44 P:27 SP:FB CYC:158  CZI  -  
E796  C0 44     CPY #$44                        A:66 X:7A Y:44 P:27 SP:FB CYC:164  CZI  -  
E798  D0 0B     BNE $E7A5                       A:66 X:7A Y:44 P:27 SP:FB CYC:170  CZI  -  
E79A  E0 7A     CPX #$7A                        A:66 X:7A Y:44 P:27 SP:FB CYC:176  CZI  -  
E79C  D0 07     BNE $E7A5                       A:66 X:7A Y:44 P:27 SP:FB CYC:182  CZI  -  
E79E  AD 89 04  LDA $0489 = 62                  A:66 X:7A Y:44 P:27 SP:FB CYC:188  CZI  -  
E7A1  C9 62     CMP #$62                        A:62 X:7A Y:44 P:25 SP:FB CYC:200  C I  -  
E7A3  F0 04     BEQ $E7A9                       A:62 X:7A Y:44 P:27 SP:FB CYC:206  CZI  -  
E7A9  A9 FF     LDA #$FF                        A:62 X:7A Y:44 P:27 SP:FB CYC:215  CZI  -  
E7AB  85 49     STA $49 = 00                    A:FF X:7A Y:44 P:A5 SP:FB CYC:221  C I  - N
E7AD  A0 44     LDY #$44                        A:FF X:7A Y:44 P:A5 SP:FB CYC:230  C I  - N
E7AF  A2 AA     LDX #$AA                        A:FF X:7A Y:44 P:25 SP:FB CYC:236  C I  -  
E7B1  A9 55     LDA #$55                        A:FF X:AA Y:44 P:A5 SP:FB CYC:242  C I  - N
E7B3  24 01     BIT $01 = C0                    A:55 X:AA Y:44 P:25 SP:FB CYC:248  C I  -  
E7B5  18        CLC                             A:55 X:AA Y:44 P:E5 SP:FB CYC:257  C I  -VN
E7B6  87 49    *SAX $49 = FF                    A:55 X:AA Y:44 P:E4 SP:FB CYC:263    I  -VN
E7B8  EA        NOP                             A:55 X:AA Y:44 P:E4 SP:FB CYC:272    I  -VN
E7B9  EA        NOP                             A:55 X:AA Y:44 P:E4 SP:FB CYC:278    I  -VN
E7BA  EA        NOP                             A:55 X:AA Y:44 P:E4 SP:FB CYC:284    I  -VN
E7BB  EA        NOP                             A:55 X:AA Y:44 P:E4 SP:FB CYC:290    I  -VN
E7BC  F0 18     BEQ $E7D6                       A:55 X:AA Y:44 P:E4 SP:FB CYC:296    I  -VN
E7BE  B0 16     BCS $E7D6                       A:55 X:AA Y:44 P:E4 SP:FB CYC:302    I  -VN
E7C0  50 14     BVC $E7D6                       A:55 X:AA Y:44 P:E4 SP:FB CYC:308    I  -VN
E7C2  10 12     BPL $E7D6                       A:55 X:AA Y:44 P:E4 SP:FB CYC:314    I  -VN
E7C4  C9 55     CMP #$55                        A:55 X:AA Y:44 P:E4 SP:FB CYC:320    I  -VN
E7C6  D0 0E     BNE $E7D6                       A:55 X:AA Y:44 P:67 SP:FB CYC:326  CZI  -V 
E7C8  C0 44     CPY #$44                        A:55 X:AA Y:44 P:67 SP:FB CYC:332  CZI  -V 
E7CA  D0 0A     BNE $E7D6                       A:55 X:AA Y:44 P:67 SP:FB CYC:338  CZI  -V 
E7CC  E0 AA     CPX #$AA                        A:55 X:AA Y:44 P:67 SP:FB CYC:  3  CZI  -V 
E7CE  D0 06     BNE $E7D6                       A:55 X:AA Y:44 P:67 SP:FB CYC:  9  CZI  -V 
E7D0  A5 49     LDA $49 = 00                    A:55 X:AA Y:44 P:67 SP:FB CYC: 15  CZI  -V 
E7D2  C9 00     CMP #$00                        A:00 X:AA Y:44 P:67 SP:FB CYC: 24  CZI  -V 
E7D4  F0 04     BEQ $E7DA                       A:00 X:AA Y:44 P:67 SP:FB CYC: 30  CZI  -V 
E7DA  A9 00     LDA #$00                        A:00 X:AA Y:44 P:67 SP:FB CYC: 39  CZI  -V 
E7DC  85 56     STA $56 = 00                    A:00 X:AA Y:44 P:67 SP:FB CYC: 45  CZI  -V 
E7DE  A0 58     LDY #$58                        A:00 X:AA Y:44 P:67 SP:FB CYC: 54  CZI  -V 
E7E0  A2 EF     LDX #$EF                        A:00 X:AA Y:58 P:65 SP:FB CYC: 60  C I  -V 
E7E2  A9 66     LDA #$66                        A:00 X:EF Y:58 P:E5 SP:FB CYC: 66  C I  -VN
E7E4  38        SEC                             A:66 X:EF Y:58 P:65 SP:FB CYC: 72  C I  -V 
E7E5  B8        CLV                             A:66 X:EF Y:58 P:65 SP:FB CYC: 78  C I  -V 
E7E6  87 56    *SAX $56 = 00                    A:66 X:EF Y:58 P:25 SP:FB CYC: 84  C I  -  
E7E8  EA        NOP                             A:66 X:EF Y:58 P:25 SP:FB CYC: 93  C I  -  
E7E9  EA        NOP                             A:66 X:EF Y:58 P:25 SP:FB CYC: 99  C I  -  
E7EA  EA        NOP                             A:66 X:EF Y:58 P:25 SP:FB CYC:105  C I  -  
E7EB  EA        NOP                             A:66 X:EF Y:58 P:25 SP:FB CYC:111  C I  -  
E7EC  F0 18     BEQ $E806                       A:66 X:EF Y:58 P:25 SP:FB CYC:117  C I  -  
E7EE  90 16     BCC $E806                       A:66 X:EF Y:58 P:25 SP:FB CYC:123  C I  -  
E7F0  70 14     BVS $E806                       A:66 X:EF Y:58 P:25 SP:FB CYC:129  C I  -  
E7F2  30 12     BMI $E806                       A:66 X:EF Y:58 P:25 SP:FB CYC:135  C I  -  
E7F4  C9 66     CMP #$66                        A:66 X:EF Y:58 P:25 SP:FB CYC:141  C I  -  
E7F6  D0 0E     BNE $E806                       A:66 X:EF Y:58 P:27 SP:FB CYC:147  CZI  -  
E7F8  C0 58     CPY #$58                        A:66 X:EF Y:58 P:27 SP:FB CYC:153  CZI  -  
E7FA  D0 0A     BNE $E806                       A:66 X:EF Y:58 P:27 SP:FB CYC:159  CZI  -  
E7FC  E0 EF     CPX #$EF                        A:66 X:EF Y:58 P:27 SP:FB CYC:165  CZI  -  
E7FE  D0 06     BNE $E806                       A:66 X:EF Y:58 P:27 SP:FB CYC:171  CZI  -  
E800  A5 56     LDA $56 = 66                    A:66 X:EF Y:58 P:27 SP:FB CYC:177  CZI  -  
E802  C9 66     CMP #$66                        A:66 X:EF Y:58 P:25 SP:FB CYC:186  C I  -  
E804  F0 04     BEQ $E80A                       A:66 X:EF Y:58 P:27 SP:FB CYC:192  CZI  -  
E80A  A9 FF     LDA #$FF                        A:66 X:EF Y:58 P:27 SP:FB CYC:201  CZI  -  
E80C  8D 49 05  STA $0549 = 00                  A:FF X:EF Y:58 P:A5 SP:FB CYC:207  C I  - N
E80F  A0 E5     LDY #$E5                        A:FF X:EF Y:58 P:A5 SP:FB CYC:219  C I  - N
E811  A2 AF     LDX #$AF                        A:FF X:EF Y:E5 P:A5 SP:FB CYC:225  C I  - N
E813  A9 F5     LDA #$F5                        A:FF X:AF Y:E5 P:A5 SP:FB CYC:231  C I  - N
E815  24 01     BIT $01 = C0                    A:F5 X:AF Y:E5 P:A5 SP:FB CYC:237  C I  - N
E817  18        CLC                             A:F5 X:AF Y:E5 P:E5 SP:FB CYC:246  C I  -VN
E818  8F 49 05 *SAX $0549 = FF                  A:F5 X:AF Y:E5 P:E4 SP:FB CYC:252    I  -VN
E81B  EA        NOP                             A:F5 X:AF Y:E5 P:E4 SP:FB CYC:264    I  -VN
E81C  EA        NOP                             A:F5 X:AF Y:E5 P:E4 SP:FB CYC:270    I  -VN
E81D  EA        NOP                             A:F5 X:AF Y:E5 P:E4 SP:FB CYC:276    I  -VN
E81E  EA        NOP                             A:F5 X:AF Y:E5 P:E4 SP:FB CYC:282    I  -VN
E81F  F0 19     BEQ $E83A                       A:F5 X:AF Y:E5 P:E4 SP:FB CYC:288    I  -VN
E821  B0 17     BCS $E83A                       A:F5 X:AF Y:E5 P:E4 SP:FB CYC:294    I  -VN
E823  50 15     BVC $E83A                       A:F5 X:AF Y:E5 P:E4 SP:FB CYC:300    I  -VN
E825  10 13     BPL $E83A                       A:F5 X:AF Y:E5 P:E4 SP:FB CYC:306    I  -VN
E827  C9 F5     CMP #$F5                        A:F5 X:AF Y:E5 P:E4 SP:FB CYC:312    I  -VN
E829  D0 0F     BNE $E83A                       A:F5 X:AF Y:E5 P:67 SP:FB CYC:318  CZI  -V 
E82B  C0 E5     CPY #$E5                        A:F5 X:AF Y:E5 P:67 SP:FB CYC:324  CZI  -V 
E82D  D0 0B     BNE $E83A                       A:F5 X:AF Y:E5 P:67 SP:FB CYC:330  CZI  -V 
E82F  E0 AF     CPX #$AF                        A:F5 X:AF Y:E5 P:67 SP:FB CYC:336  CZI  -V 
E831  D0 07     BNE $E83A                       A:F5 X:AF Y:E5 P:67 SP:FB CYC:  1  CZI  -V 
E833  AD 49 05  LDA $0549 = A5                  A:F5 X:AF Y:E5 P:67 SP:FB CYC:  7  CZI  -V 
E836  C9 A5     CMP #$A5                        A:A5 X:AF Y:E5 P:E5 SP:FB CYC: 19  C I  -VN
E838  F0 04     BEQ $E83E                       A:A5 X:AF Y:E5 P:67 SP:FB CYC: 25  CZI  -V 
E83E  A9 00     LDA #$00                        A:A5 X:AF Y:E5 P:67 SP:FB CYC: 34  CZI  -V 
E840  8D 56 05  STA $0556 = 00                  A:00 X:AF Y:E5 P:67 SP:FB CYC: 40  CZI  -V 
E843  A0 58     LDY #$58                        A:00 X:AF Y:E5 P:67 SP:FB CYC: 52  CZI  -V 
E845  A2 B3     LDX #$B3                        A:00 X:AF Y:58 P:65 SP:FB CYC: 58  C I  -V 
E847  A9 97     LDA #$97                        A:00 X:B3 Y:58 P:E5 SP:FB CYC: 64  C I  -VN
E849  38        SEC                             A:97 X:B3 Y:58 P:E5 SP:FB CYC: 70  C I  -VN
E84A  B8        CLV                             A:97 X:B3 Y:58 P:E5 SP:FB CYC: 76  C I  -VN
E84B  8F 56 05 *SAX $0556 = 00                  A:97 X:B3 Y:58 P:A5 SP:FB CYC: 82  C I  - N
E84E  EA        NOP                             A:97 X:B3 Y:58 P:A5 SP:FB CYC: 94  C I  - N
E84F  EA        NOP                             A:97 X:B3 Y:58 P:A5 SP:FB CYC:100  C I  - N
E850  EA        NOP                             A:97 X:B3 Y:58 P:A5 SP:FB CYC:106  C I  - N
E851  EA        NOP                             A:97 X:B3 Y:58 P:A5 SP:FB CYC:112  C I  - N
E852  F0 19     BEQ $E86D                       A:97 X:B3 Y:58 P:A5 SP:FB CYC:118  C I  - N
E854  90 17     BCC $E86D                       A:97 X:B3 Y:58 P:A5 SP:FB CYC:124  C I  - N
E856  70 15     BVS $E86D                       A:97 X:B3 Y:58 P:A5 SP:FB CYC:130  C I  - N
E858  10 13     BPL $E86D                       A:97 X:B3 Y:58 P:A5 SP:FB CYC:136  C I  - N
E85A  C9 97     CMP #$97                        A:97 X:B3 Y:58 P:A5 SP:FB CYC:142  C I  - N
E85C  D0 0F     BNE $E86D                       A:97 X:B3 Y:58 P:27 SP:FB CYC:148  CZI  -  
E85E  C0 58     CPY #$58                        A:97 X:B3 Y:58 P:27 SP:FB CYC:154  CZI  -  
E860  D0 0B     BNE $E86D                       A:97 X:B3 Y:58 P:27 SP:FB CYC:160  CZI  -  
E862  E0 B3     CPX #$B3                        A:97 X:B3 Y:58 P:27 SP:FB CYC:166  CZI  -  
E864  D0 07     BNE $E86D                       A:97 X:B3 Y:58 P:27 SP:FB CYC:172  CZI  -  
E866  AD 56 05  LDA $0556 = 93                  A:97 X:B3 Y:58 P:27 SP:FB CYC:178  CZI  -  
E869  C9 93     CMP #$93                        A:93 X:B3 Y:58 P:A5 SP:FB CYC:190  C I  - N
E86B  F0 04     BEQ $E871                       A:93 X:B3 Y:58 P:27 SP:FB CYC:196  CZI  -  
E871  A9 FF     LDA #$FF                        A:93 X:B3 Y:58 P:27 SP:FB CYC:205  CZI  -  
E873  85 49     STA $49 = 00                    A:FF X:B3 Y:58 P:A5 SP:FB CYC:211  C I  - N
E875  A0 FF     LDY #$FF                        A:FF X:B3 Y:58 P:A5 SP:FB CYC:220  C I  - N
E877  A2 AA     LDX #$AA                        A:FF X:B3 Y:FF P:A5 SP:FB CYC:226  C I  - N
E879  A9 55     LDA #$55                        A:FF X:AA Y:FF P:A5 SP:FB CYC:232  C I  - N
E87B  24 01     BIT $01 = C0                    A:55 X:AA Y:FF P:25 SP:FB CYC:238  C I  -  
E87D  18        CLC                             A:55 X:AA Y:FF P:E5 SP:FB CYC:247  C I  -VN
E87E  97 4A    *SAX $4A,Y @ 49 = FF             A:55 X:AA Y:FF P:E4 SP:FB CYC:253    I  -VN
E880  EA        NOP                             A:55 X:AA Y:FF P:E4 SP:FB CYC:265    I  -VN
E881  EA        NOP                             A:55 X:AA Y:FF P:E4 SP:FB CYC:271    I  -VN
E882  EA        NOP                             A:55 X:AA Y:FF P:E4 SP:FB CYC:277    I  -VN
E883  EA        NOP                             A:55 X:AA Y:FF P:E4 SP:FB CYC:283    I  -VN
E884  F0 18     BEQ $E89E                       A:55 X:AA Y:FF P:E4 SP:FB CYC:289    I  -VN
E886  B0 16     BCS $E89E                       A:55 X:AA Y:FF P:E4 SP:FB CYC:295    I  -VN
E888  50 14     BVC $E89E                       A:55 X:AA Y:FF P:E4 SP:FB CYC:301    I  -VN
E88A  10 12     BPL $E89E                       A:55 X:AA Y:FF P:E4 SP:FB CYC:307    I  -VN
E88C  C9 55     CMP #$55                        A:55 X:AA Y:FF P:E4 SP:FB CYC:313    I  -VN
E88E  D0 0E     BNE $E89E                       A:55 X:AA Y:FF P:67 SP:FB CYC:319  CZI  -V 
E890  C0 FF     CPY #$FF                        A:55 X:AA Y:FF P:67 SP:FB CYC:325  CZI  -V 
E892  D0 0A     BNE $E89E                       A:55 X:AA Y:FF P:67 SP:FB CYC:331  CZI  -V 
E894  E0 AA     CPX #$AA                        A:55 X:AA Y:FF P:67 SP:FB CYC:337  CZI  -V 
E896  D0 06     BNE $E89E                       A:55 X:AA Y:FF P:67 SP:FB CYC:  2  CZI  -V 
E898  A5 49     LDA $49 = 00                    A:55 X:AA Y:FF P:67 SP:FB CYC:  8  CZI  -V 
E89A  C9 00     CMP #$00                        A:00 X:AA Y:FF P:67 SP:FB CYC: 17  CZI  -V 
E89C  F0 04     BEQ $E8A2                       A:00 X:AA Y:FF P:67 SP:FB CYC: 23  CZI  -V 
E8A2  A9 00     LDA #$00                        A:00 X:AA Y:FF P:67 SP:FB CYC: 32  CZI  -V 
E8A4  85 56     STA $56 = 66                    A:00 X:AA Y:FF P:67 SP:FB CYC: 38  CZI  -V 
E8A6  A0 06     LDY #$06                        A:00 X:AA Y:FF P:67 SP:FB CYC: 47  CZI  -V 
E8A8  A2 EF     LDX #$EF                        A:00 X:AA Y:06 P:65 SP:FB CYC: 53  C I  -V 
E8AA  A9 66     LDA #$66                        A:00 X:EF Y:06 P:E5 SP:FB CYC: 59  C I  -VN
E8AC  38        SEC                             A:66 X:EF Y:06 P:65 SP:FB CYC: 65  C I  -V 
E8AD  B8        CLV                             A:66 X:EF Y:06 P:65 SP:FB CYC: 71  C I  -V 
E8AE  97 50    *SAX $50,Y @ 56 = 00             A:66 X:EF Y:06 P:25 SP:FB CYC: 77  C I  -  
E8B0  EA        NOP                             A:66 X:EF Y:06 P:25 SP:FB CYC: 89  C I  -  
E8B1  EA        NOP                             A:66 X:EF Y:06 P:25 SP:FB CYC: 95  C I  -  
E8B2  EA        NOP                             A:66 X:EF Y:06 P:25 SP:FB CYC:101  C I  -  
E8B3  EA        NOP                             A:66 X:EF Y:06 P:25 SP:FB CYC:107  C I  -  
E8B4  F0 18     BEQ $E8CE                       A:66 X:EF Y:06 P:25 SP:FB CYC:113  C I  -  
E8B6  90 16     BCC $E8CE                       A:66 X:EF Y:06 P:25 SP:FB CYC:119  C I  -  
E8B8  70 14     BVS $E8CE                       A:66 X:EF Y:06 P:25 SP:FB CYC:125  C I  -  
E8BA  30 12     BMI $E8CE                       A:66 X:EF Y:06 P:25 SP:FB CYC:131  C I  -  
E8BC  C9 66     CMP #$66                        A:66 X:EF Y:06 P:25 SP:FB CYC:137  C I  -  
E8BE  D0 0E     BNE $E8CE                       A:66 X:EF Y:06 P:27 SP:FB CYC:143  CZI  -  
E8C0  C0 06     CPY #$06                        A:66 X:EF Y:06 P:27 SP:FB CYC:149  CZI  -  
E8C2  D0 0A     BNE $E8CE                       A:66 X:EF Y:06 P:27 SP:FB CYC:155  CZI  -  
E8C4  E0 EF     CPX #$EF                        A:66 X:EF Y:06 P:27 SP:FB CYC:161  CZI  -  
E8C6  D0 06     BNE $E8CE                       A:66 X:EF Y:06 P:27 SP:FB CYC:167  CZI  -  
E8C8  A5 56     LDA $56 = 66                    A:66 X:EF Y:06 P:27 SP:FB CYC:173  CZI  -  
E8CA  C9 66     CMP #$66                        A:66 X:EF Y:06 P:25 SP:FB CYC:182  C I  -  
E8CC  F0 04     BEQ $E8D2                       A:66 X:EF Y:06 P:27 SP:FB CYC:188  CZI  -  
E8D2  60        RTS                             A:66 X:EF Y:06 P:27 SP:FB CYC:197  CZI  -  
C638  20 D3 E8  JSR $E8D3                       A:66 X:EF Y:06 P:27 SP:FD CYC:215  CZI  -  
E8D3  A0 90     LDY #$90                        A:66 X:EF Y:06 P:27 SP:FB CYC:233  CZI  -  
E8D5  20 31 F9  JSR $F931                       A:66 X:EF Y:90 P:A5 SP:FB CYC:239  C I  - N
F931  24 01     BIT $01 = C0                    A:66 X:EF Y:90 P:A5 SP:F9 CYC:257  C I  - N
F933  A9 40     LDA #$40                        A:66 X:EF Y:90 P:E5 SP:F9 CYC:266  C I  -VN
F935  38        SEC                             A:40 X:EF Y:90 P:65 SP:F9 CYC:272  C I  -V 
F936  60        RTS                             A:40 X:EF Y:90 P:65 SP:F9 CYC:278  C I  -V 
E8D8  EB 40    *SBC #$40                        A:40 X:EF Y:90 P:65 SP:FB CYC:296  C I  -V 
E8DA  EA        NOP                             A:00 X:EF Y:90 P:27 SP:FB CYC:302  CZI  -  
E8DB  EA        NOP                             A:00 X:EF Y:90 P:27 SP:FB CYC:308  CZI  -  
E8DC  EA        NOP                             A:00 X:EF Y:90 P:27 SP:FB CYC:314  CZI  -  
E8DD  EA        NOP                             A:00 X:EF Y:90 P:27 SP:FB CYC:320  CZI  -  
E8DE  20 37 F9  JSR $F937                       A:00 X:EF Y:90 P:27 SP:FB CYC:326  CZI  -  
F937  30 0B     BMI $F944                       A:00 X:EF Y:90 P:27 SP:F9 CYC:  3  CZI  -  
F939  90 09     BCC $F944                       A:00 X:EF Y:90 P:27 SP:F9 CYC:  9  CZI  -  
F93B  D0 07     BNE $F944                       A:00 X:EF Y:90 P:27 SP:F9 CYC: 15  CZI  -  
F93D  70 05     BVS $F944                       A:00 X:EF Y:90 P:27 SP:F9 CYC: 21  CZI  -  
F93F  C9 00     CMP #$00                        A:00 X:EF Y:90 P:27 SP:F9 CYC: 27  CZI  -  
F941  D0 01     BNE $F944                       A:00 X:EF Y:90 P:27 SP:F9 CYC: 33  CZI  -  
F943  60        RTS                             A:00 X:EF Y:90 P:27 SP:F9 CYC: 39  CZI  -  
E8E1  C8        INY                             A:00 X:EF Y:90 P:27 SP:FB CYC: 57  CZI  -  
E8E2  20 47 F9  JSR $F947                       A:00 X:EF Y:91 P:A5 SP:FB CYC: 63  C I  - N
F947  B8        CLV                             A:00 X:EF Y:91 P:A5 SP:F9 CYC: 81  C I  - N
F948  38        SEC                             A:00 X:EF Y:91 P:A5 SP:F9 CYC: 87  C I  - N
F949  A9 40     LDA #$40                        A:00 X:EF Y:91 P:A5 SP:F9 CYC: 93  C I  - N
F94B  60        RTS                             A:40 X:EF Y:91 P:25 SP:F9 CYC: 99  C I  -  
E8E5  EB 3F    *SBC #$3F                        A:40 X:EF Y:91 P:25 SP:FB CYC:117  C I  -  
E8E7  EA        NOP                             A:01 X:EF Y:91 P:25 SP:FB CYC:123  C I  -  
E8E8  EA        NOP                             A:01 X:EF Y:91 P:25 SP:FB CYC:129  C I  -  
E8E9  EA        NOP                             A:01 X:EF Y:91 P:25 SP:FB CYC:135  C I  -  
E8EA  EA        NOP                             A:01 X:EF Y:91 P:25 SP:FB CYC:141  C I  -  
E8EB  20 4C F9  JSR $F94C                       A:01 X:EF Y:91 P:25 SP:FB CYC:147  C I  -  
F94C  F0 0B     BEQ $F959                       A:01 X:EF Y:91 P:25 SP:F9 CYC:165  C I  -  
F94E  30 09     BMI $F959                       A:01 X:EF Y:91 P:25 SP:F9 CYC:171  C I  -  
F950  90 07     BCC $F959                       A:01 X:EF Y:91 P:25 SP:F9 CYC:177  C I  -  
F952  70 05     BVS $F959                       A:01 X:EF Y:91 P:25 SP:F9 CYC:183  C I  -  
F954  C9 01     CMP #$01                        A:01 X:EF Y:91 P:25 SP:F9 CYC:189  C I  -  
F956  D0 01     BNE $F959                       A:01 X:EF Y:91 P:27 SP:F9 CYC:195  CZI  -  
F958  60        RTS                             A:01 X:EF Y:91 P:27 SP:F9 CYC:201  CZI  -  
E8EE  C8        INY                             A:01 X:EF Y:91 P:27 SP:FB CYC:219  CZI  -  
E8EF  20 5C F9  JSR $F95C                       A:01 X:EF Y:92 P:A5 SP:FB CYC:225  C I  - N
F95C  A9 40     LDA #$40                        A:01 X:EF Y:92 P:A5 SP:F9 CYC:243  C I  - N
F95E  38        SEC                             A:40 X:EF Y:92 P:25 SP:F9 CYC:249  C I  -  
F95F  24 01     BIT $01 = C0                    A:40 X:EF Y:92 P:25 SP:F9 CYC:255  C I  -  
F961  60        RTS                             A:40 X:EF Y:92 P:E5 SP:F9 CYC:264  C I  -VN
E8F2  EB 41    *SBC #$41                        A:40 X:EF Y:92 P:E5 SP:FB CYC:282  C I  -VN
E8F4  EA        NOP                             A:FF X:EF Y:92 P:A4 SP:FB CYC:288    I  - N
E8F5  EA        NOP                             A:FF X:EF Y:92 P:A4 SP:FB CYC:294    I  - N
E8F6  EA        NOP                             A:FF X:EF Y:92 P:A4 SP:FB CYC:300    I  - N
E8F7  EA        NOP                             A:FF X:EF Y:92 P:A4 SP:FB CYC:306    I  - N
E8F8  20 62 F9  JSR $F962                       A:FF X:EF Y:92 P:A4 SP:FB CYC:312    I  - N
F962  B0 0B     BCS $F96F                       A:FF X:EF Y:92 P:A4 SP:F9 CYC:330    I  - N
F964  F0 09     BEQ $F96F                       A:FF X:EF Y:92 P:A4 SP:F9 CYC:336    I  - N
F966  10 07     BPL $F96F                       A:FF X:EF Y:92 P:A4 SP:F9 CYC:  1    I  - N
F968  70 05     BVS $F96F                       A:FF X:EF Y:92 P:A4 SP:F9 CYC:  7    I  - N
F96A  C9 FF     CMP #$FF                        A:FF X:EF Y:92 P:A4 SP:F9 CYC: 13    I  - N
F96C  D0 01     BNE $F96F                       A:FF X:EF Y:92 P:27 SP:F9 CYC: 19  CZI  -  
F96E  60        RTS                             A:FF X:EF Y:92 P:27 SP:F9 CYC: 25  CZI  -  
E8FB  C8        INY                             A:FF X:EF Y:92 P:27 SP:FB CYC: 43  CZI  -  
E8FC  20 72 F9  JSR $F972                       A:FF X:EF Y:93 P:A5 SP:FB CYC: 49  C I  - N
F972  18        CLC                             A:FF X:EF Y:93 P:A5 SP:F9 CYC: 67  C I  - N
F973  A9 80     LDA #$80                        A:FF X:EF Y:93 P:A4 SP:F9 CYC: 73    I  - N
F975  60        RTS                             A:80 X:EF Y:93 P:A4 SP:F9 CYC: 79    I  - N
E8FF  EB 00    *SBC #$00                        A:80 X:EF Y:93 P:A4 SP:FB CYC: 97    I  - N
E901  EA        NOP                             A:7F X:EF Y:93 P:65 SP:FB CYC:103  C I  -V 
E902  EA        NOP                             A:7F X:EF Y:93 P:65 SP:FB CYC:109  C I  -V 
E903  EA        NOP                             A:7F X:EF Y:93 P:65 SP:FB CYC:115  C I  -V 
E904  EA        NOP                             A:7F X:EF Y:93 P:65 SP:FB CYC:121  C I  -V 
E905  20 76 F9  JSR $F976                       A:7F X:EF Y:93 P:65 SP:FB CYC:127  C I  -V 
F976  90 05     BCC $F97D                       A:7F X:EF Y:93 P:65 SP:F9 CYC:145  C I  -V 
F978  C9 7F     CMP #$7F                        A:7F X:EF Y:93 P:65 SP:F9 CYC:151  C I  -V 
F97A  D0 01     BNE $F97D                       A:7F X:EF Y:93 P:67 SP:F9 CYC:157  CZI  -V 
F97C  60        RTS                             A:7F X:EF Y:93 P:67 SP:F9 CYC:163  CZI  -V 
E908  C8        INY                             A:7F X:EF Y:93 P:67 SP:FB CYC:181  CZI  -V 
E909  20 80 F9  JSR $F980                       A:7F X:EF Y:94 P:E5 SP:FB CYC:187  C I  -VN
F980  38        SEC                             A:7F X:EF Y:94 P:E5 SP:F9 CYC:205  C I  -VN
F981  A9 81     LDA #$81                        A:7F X:EF Y:94 P:E5 SP:F9 CYC:211  C I  -VN
F983  60        RTS                             A:81 X:EF Y:94 P:E5 SP:F9 CYC:217  C I  -VN
E90C  EB 7F    *SBC #$7F                        A:81 X:EF Y:94 P:E5 SP:FB CYC:235  C I  -VN
E90E  EA        NOP                             A:02 X:EF Y:94 P:65 SP:FB CYC:241  C I  -V 
E90F  EA        NOP                             A:02 X:EF Y:94 P:65 SP:FB CYC:247  C I  -V 
E910  EA        NOP                             A:02 X:EF Y:94 P:65 SP:FB CYC:253  C I  -V 
E911  EA        NOP                             A:02 X:EF Y:94 P:65 SP:FB CYC:259  C I  -V 
E912  20 84 F9  JSR $F984                       A:02 X:EF Y:94 P:65 SP:FB CYC:265  C I  -V 
F984  50 07     BVC $F98D                       A:02 X:EF Y:94 P:65 SP:F9 CYC:283  C I  -V 
F986  90 05     BCC $F98D                       A:02 X:EF Y:94 P:65 SP:F9 CYC:289  C I  -V 
F988  C9 02     CMP #$02                        A:02 X:EF Y:94 P:65 SP:F9 CYC:295  C I  -V 
F98A  D0 01     BNE $F98D                       A:02 X:EF Y:94 P:67 SP:F9 CYC:301  CZI  -V 
F98C  60        RTS                             A:02 X:EF Y:94 P:67 SP:F9 CYC:307  CZI  -V 
E915  60        RTS                             A:02 X:EF Y:94 P:67 SP:FB CYC:325  CZI  -V 
C63B  20 16 E9  JSR $E916                       A:02 X:EF Y:94 P:67 SP:FD CYC:  2  CZI  -V 
E916  A9 FF     LDA #$FF                        A:02 X:EF Y:94 P:67 SP:FB CYC: 20  CZI  -V 
E918  85 01     STA $01 = C0                    A:FF X:EF Y:94 P:E5 SP:FB CYC: 26  C I  -VN
E91A  A0 95     LDY #$95                        A:FF X:EF Y:94 P:E5 SP:FB CYC: 35  C I  -VN
E91C  A2 02     LDX #$02                        A:FF X:EF Y:95 P:E5 SP:FB CYC: 41  C I  -VN
E91E  A9 47     LDA #$47                        A:FF X:02 Y:95 P:65 SP:FB CYC: 47  C I  -V 
E920  85 47     STA $47 = 00                    A:47 X:02 Y:95 P:65 SP:FB CYC: 53  C I  -V 
E922  A9 06     LDA #$06                        A:47 X:02 Y:95 P:65 SP:FB CYC: 62  C I  -V 
E924  85 48     STA $48 = 00                    A:06 X:02 Y:95 P:65 SP:FB CYC: 68  C I  -V 
E926  A9 EB     LDA #$EB                        A:06 X:02 Y:95 P:65 SP:FB CYC: 77  C I  -V 
E928  8D 47 06  STA $0647 = 00                  A:EB X:02 Y:95 P:E5 SP:FB CYC: 83  C I  -VN
E92B  20 31 FA  JSR $FA31                       A:EB X:02 Y:95 P:E5 SP:FB CYC: 95  C I  -VN
FA31  24 01     BIT $01 = FF                    A:EB X:02 Y:95 P:E5 SP:F9 CYC:113  C I  -VN
FA33  18        CLC                             A:EB X:02 Y:95 P:E5 SP:F9 CYC:122  C I  -VN
FA34  A9 40     LDA #$40                        A:EB X:02 Y:95 P:E4 SP:F9 CYC:128    I  -VN
FA36  60        RTS                             A:40 X:02 Y:95 P:64 SP:F9 CYC:134    I  -V 
E92E  C3 45    *DCP ($45,X) @ 47 = 0647 = EB    A:40 X:02 Y:95 P:64 SP:FB CYC:152    I  -V 
E930  EA        NOP                             A:40 X:02 Y:95 P:64 SP:FB CYC:176    I  -V 
E931  EA        NOP                             A:40 X:02 Y:95 P:64 SP:FB CYC:182    I  -V 
E932  EA        NOP                             A:40 X:02 Y:95 P:64 SP:FB CYC:188    I  -V 
E933  EA        NOP                             A:40 X:02 Y:95 P:64 SP:FB CYC:194    I  -V 
E934  20 37 FA  JSR $FA37                       A:40 X:02 Y:95 P:64 SP:FB CYC:200    I  -V 
FA37  50 2C     BVC $FA65                       A:40 X:02 Y:95 P:64 SP:F9 CYC:218    I  -V 
FA39  B0 2A     BCS $FA65                       A:40 X:02 Y:95 P:64 SP:F9 CYC:224    I  -V 
FA3B  30 28     BMI $FA65                       A:40 X:02 Y:95 P:64 SP:F9 CYC:230    I  -V 
FA3D  C9 40     CMP #$40                        A:40 X:02 Y:95 P:64 SP:F9 CYC:236    I  -V 
FA3F  D0 24     BNE $FA65                       A:40 X:02 Y:95 P:67 SP:F9 CYC:242  CZI  -V 
FA41  60        RTS                             A:40 X:02 Y:95 P:67 SP:F9 CYC:248  CZI  -V 
E937  AD 47 06  LDA $0647 = EA                  A:40 X:02 Y:95 P:67 SP:FB CYC:266  CZI  -V 
E93A  C9 EA     CMP #$EA                        A:EA X:02 Y:95 P:E5 SP:FB CYC:278  C I  -VN
E93C  F0 02     BEQ $E940                       A:EA X:02 Y:95 P:67 SP:FB CYC:284  CZI  -V 
E940  C8        INY                             A:EA X:02 Y:95 P:67 SP:FB CYC:293  CZI  -V 
E941  A9 00     LDA #$00                        A:EA X:02 Y:96 P:E5 SP:FB CYC:299  C I  -VN
E943  8D 47 06  STA $0647 = EA                  A:00 X:02 Y:96 P:67 SP:FB CYC:305  CZI  -V 
E946  20 42 FA  JSR $FA42                       A:00 X:02 Y:96 P:67 SP:FB CYC:317  CZI  -V 
FA42  B8        CLV                             A:00 X:02 Y:96 P:67 SP:F9 CYC:335  CZI  -V 
FA43  38        SEC                             A:00 X:02 Y:96 P:27 SP:F9 CYC:  0  CZI  -  
FA44  A9 FF     LDA #$FF                        A:00 X:02 Y:96 P:27 SP:F9 CYC:  6  CZI  -  
FA46  60        RTS                             A:FF X:02 Y:96 P:A5 SP:F9 CYC: 12  C I  - N
E949  C3 45    *DCP ($45,X) @ 47 = 0647 = 00    A:FF X:02 Y:96 P:A5 SP:FB CYC: 30  C I  - N
E94B  EA        NOP                             A:FF X:02 Y:96 P:27 SP:FB CYC: 54  CZI  -  
E94C  EA        NOP                             A:FF X:02 Y:96 P:27 SP:FB CYC: 60  CZI  -  
E94D  EA        NOP                             A:FF X:02 Y:96 P:27 SP:FB CYC: 66  CZI  -  
E94E  EA        NOP                             A:FF X:02 Y:96 P:27 SP:FB CYC: 72  CZI  -  
E94F  20 47 FA  JSR $FA47                       A:FF X:02 Y:96 P:27 SP:FB CYC: 78  CZI  -  
FA47  70 1C     BVS $FA65                       A:FF X:02 Y:96 P:27 SP:F9 CYC: 96  CZI  -  
FA49  D0 1A     BNE $FA65                       A:FF X:02 Y:96 P:27 SP:F9 CYC:102  CZI  -  
FA4B  30 18     BMI $FA65                       A:FF X:02 Y:96 P:27 SP:F9 CYC:108  CZI  -  
FA4D  90 16     BCC $FA65                       A:FF X:02 Y:96 P:27 SP:F9 CYC:114  CZI  -  
FA4F  C9 FF     CMP #$FF                        A:FF X:02 Y:96 P:27 SP:F9 CYC:120  CZI  -  
FA51  D0 12     BNE $FA65                       A:FF X:02 Y:96 P:27 SP:F9 CYC:126  CZI  -  
FA53  60        RTS                             A:FF X:02 Y:96 P:27 SP:F9 CYC:132  CZI  -  
E952  AD 47 06  LDA $0647 = FF                  A:FF X:02 Y:96 P:27 SP:FB CYC:150  CZI  -  
E955  C9 FF     CMP #$FF                        A:FF X:02 Y:96 P:A5 SP:FB CYC:162  C I  - N
E957  F0 02     BEQ $E95B                       A:FF X:02 Y:96 P:27 SP:FB CYC:168  CZI  -  
E95B  C8        INY                             A:FF X:02 Y:96 P:27 SP:FB CYC:177  CZI  -  
E95C  A9 37     LDA #$37                        A:FF X:02 Y:97 P:A5 SP:FB CYC:183  C I  - N
E95E  8D 47 06  STA $0647 = FF                  A:37 X:02 Y:97 P:25 SP:FB CYC:189  C I  -  
E961  20 54 FA  JSR $FA54                       A:37 X:02 Y:97 P:25 SP:FB CYC:201  C I  -  
FA54  24 01     BIT $01 = FF                    A:37 X:02 Y:97 P:25 SP:F9 CYC:219  C I  -  
FA56  A9 F0     LDA #$F0                        A:37 X:02 Y:97 P:E5 SP:F9 CYC:228  C I  -VN
FA58  60        RTS                             A:F0 X:02 Y:97 P:E5 SP:F9 CYC:234  C I  -VN
E964  C3 45    *DCP ($45,X) @ 47 = 0647 = 37    A:F0 X:02 Y:97 P:E5 SP:FB CYC:252  C I  -VN
E966  EA        NOP                             A:F0 X:02 Y:97 P:E5 SP:FB CYC:276  C I  -VN
E967  EA        NOP                             A:F0 X:02 Y:97 P:E5 SP:FB CYC:282  C I  -VN
E968  EA        NOP                             A:F0 X:02 Y:97 P:E5 SP:FB CYC:288  C I  -VN
E969  EA        NOP                             A:F0 X:02 Y:97 P:E5 SP:FB CYC:294  C I  -VN
E96A  20 59 FA  JSR $FA59                       A:F0 X:02 Y:97 P:E5 SP:FB CYC:300  C I  -VN
FA59  50 0A     BVC $FA65                       A:F0 X:02 Y:97 P:E5 SP:F9 CYC:318  C I  -VN
FA5B  F0 08     BEQ $FA65                       A:F0 X:02 Y:97 P:E5 SP:F9 CYC:324  C I  -VN
FA5D  10 06     BPL $FA65                       A:F0 X:02 Y:97 P:E5 SP:F9 CYC:330  C I  -VN
FA5F  90 04     BCC $FA65                       A:F0 X:02 Y:97 P:E5 SP:F9 CYC:336  C I  -VN
FA61  C9 F0     CMP #$F0                        A:F0 X:02 Y:97 P:E5 SP:F9 CYC:  1  C I  -VN
FA63  F0 02     BEQ $FA67                       A:F0 X:02 Y:97 P:67 SP:F9 CYC:  7  CZI  -V 
FA67  60        RTS                             A:F0 X:02 Y:97 P:67 SP:F9 CYC: 16  CZI  -V 
E96D  AD 47 06  LDA $0647 = 36                  A:F0 X:02 Y:97 P:67 SP:FB CYC: 34  CZI  -V 
E970  C9 36     CMP #$36                        A:36 X:02 Y:97 P:65 SP:FB CYC: 46  C I  -V 
E972  F0 02     BEQ $E976                       A:36 X:02 Y:97 P:67 SP:FB CYC: 52  CZI  -V 
E976  C8        INY                             A:36 X:02 Y:97 P:67 SP:FB CYC: 61  CZI  -V 
E977  A9 EB     LDA #$EB                        A:36 X:02 Y:98 P:E5 SP:FB CYC: 67  C I  -VN
E979  85 47     STA $47 = 47                    A:EB X:02 Y:98 P:E5 SP:FB CYC: 73  C I  -VN
E97B  20 31 FA  JSR $FA31                       A:EB X:02 Y:98 P:E5 SP:FB CYC: 82  C I  -VN
FA31  24 01     BIT $01 = FF                    A:EB X:02 Y:98 P:E5 SP:F9 CYC:100  C I  -VN
FA33  18        CLC                             A:EB X:02 Y:98 P:E5 SP:F9 CYC:109  C I  -VN
FA34  A9 40     LDA #$40                        A:EB X:02 Y:98 P:E4 SP:F9 CYC:115    I  -VN
FA36  60        RTS                             A:40 X:02 Y:98 P:64 SP:F9 CYC:121    I  -V 
E97E  C7 47    *DCP $47 = EB                    A:40 X:02 Y:98 P:64 SP:FB CYC:139    I  -V 
E980  EA        NOP                             A:40 X:02 Y:98 P:64 SP:FB CYC:154    I  -V 
E981  EA        NOP                             A:40 X:02 Y:98 P:64 SP:FB CYC:160    I  -V 
E982  EA        NOP                             A:40 X:02 Y:98 P:64 SP:FB CYC:166    I  -V 
E983  EA        NOP                             A:40 X:02 Y:98 P:64 SP:FB CYC:172    I  -V 
E984  20 37 FA  JSR $FA37                       A:40 X:02 Y:98 P:64 SP:FB CYC:178    I  -V 
FA37  50 2C     BVC $FA65                       A:40 X:02 Y:98 P:64 SP:F9 CYC:196    I  -V 
FA39  B0 2A     BCS $FA65                       A:40 X:02 Y:98 P:64 SP:F9 CYC:202    I  -V 
FA3B  30 28     BMI $FA65                       A:40 X:02 Y:98 P:64 SP:F9 CYC:208    I  -V 
FA3D  C9 40     CMP #$40                        A:40 X:02 Y:98 P:64 SP:F9 CYC:214    I  -V 
FA3F  D0 24     BNE $FA65                       A:40 X:02 Y:98 P:67 SP:F9 CYC:220  CZI  -V 
FA41  60        RTS                             A:40 X:02 Y:98 P:67 SP:F9 CYC:226  CZI  -V 
E987  A5 47     LDA $47 = EA                    A:40 X:02 Y:98 P:67 SP:FB CYC:244  CZI  -V 
E989  C9 EA     CMP #$EA                        A:EA X:02 Y:98 P:E5 SP:FB CYC:253  C I  -VN
E98B  F0 02     BEQ $E98F                       A:EA X:02 Y:98 P:67 SP:FB CYC:259  CZI  -V 
E98F  C8        INY                             A:EA X:02 Y:98 P:67 SP:FB CYC:268  CZI  -V 
E990  A9 00     LDA #$00                        A:EA X:02 Y:99 P:E5 SP:FB CYC:274  C I  -VN
E992  85 47     STA $47 = EA                    A:00 X:02 Y:99 P:67 SP:FB CYC:280  CZI  -V 
E994  20 42 FA  JSR $FA42                       A:00 X:02 Y:99 P:67 SP:FB CYC:289  CZI  -V 
FA42  B8        CLV                             A:00 X:02 Y:99 P:67 SP:F9 CYC:307  CZI  -V 
FA43  38        SEC                             A:00 X:02 Y:99 P:27 SP:F9 CYC:313  CZI  -  
FA44  A9 FF     LDA #$FF                        A:00 X:02 Y:99 P:27 SP:F9 CYC:319  CZI  -  
FA46  60        RTS                             A:FF X:02 Y:99 P:A5 SP:F9 CYC:325  C I  - N
E997  C7 47    *DCP $47 = 00                    A:FF X:02 Y:99 P:A5 SP:FB CYC:  2  C I  - N
E999  EA        NOP                             A:FF X:02 Y:99 P:27 SP:FB CYC: 17  CZI  -  
E99A  EA        NOP                             A:FF X:02 Y:99 P:27 SP:FB CYC: 23  CZI  -  
E99B  EA        NOP                             A:FF X:02 Y:99 P:27 SP:FB CYC: 29  CZI  -  
E99C  EA        NOP                             A:FF X:02 Y:99 P:27 SP:FB CYC: 35  CZI  -  
E99D  20 47 FA  JSR $FA47                       A:FF X:02 Y:99 P:27 SP:FB CYC: 41  CZI  -  
FA47  70 1C     BVS $FA65                       A:FF X:02 Y:99 P:27 SP:F9 CYC: 59  CZI  -  
FA49  D0 1A     BNE $FA65                       A:FF X:02 Y:99 P:27 SP:F9 CYC: 65  CZI  -  
FA4B  30 18     BMI $FA65                       A:FF X:02 Y:99 P:27 SP:F9 CYC: 71  CZI  -  
FA4D  90 16     BCC $FA65                       A:FF X:02 Y:99 P:27 SP:F9 CYC: 77  CZI  -  
FA4F  C9 FF     CMP #$FF                        A:FF X:02 Y:99 P:27 SP:F9 CYC: 83  CZI  -  
FA51  D0 12     BNE $FA65                       A:FF X:02 Y:99 P:27 SP:F9 CYC: 89  CZI  -  
FA53  60        RTS                             A:FF X:02 Y:99 P:27 SP:F9 CYC: 95  CZI  -  
E9A0  A5 47     LDA $47 = FF                    A:FF X:02 Y:99 P:27 SP:FB CYC:113  CZI  -  
E9A2  C9 FF     CMP #$FF                        A:FF X:02 Y:99 P:A5 SP:FB CYC:122  C I  - N
E9A4  F0 02     BEQ $E9A8                       A:FF X:02 Y:99 P:27 SP:FB CYC:128  CZI  -  
E9A8  C8        INY                             A:FF X:02 Y:99 P:27 SP:FB CYC:137  CZI  -  
E9A9  A9 37     LDA #$37                        A:FF X:02 Y:9A P:A5 SP:FB CYC:143  C I  - N
E9AB  85 47     STA $47 = FF                    A:37 X:02 Y:9A P:25 SP:FB CYC:149  C I  -  
E9AD  20 54 FA  JSR $FA54                       A:37 X:02 Y:9A P:25 SP:FB CYC:158  C I  -  
FA54  24 01     BIT $01 = FF                    A:37 X:02 Y:9A P:25 SP:F9 CYC:176  C I  -  
FA56  A9 F0     LDA #$F0                        A:37 X:02 Y:9A P:E5 SP:F9 CYC:185  C I  -VN
FA58  60        RTS                             A:F0 X:02 Y:9A P:E5 SP:F9 CYC:191  C I  -VN
E9B0  C7 47    *DCP $47 = 37                    A:F0 X:02 Y:9A P:E5 SP:FB CYC:209  C I  -VN
E9B2  EA        NOP                             A:F0 X:02 Y:9A P:E5 SP:FB CYC:224  C I  -VN
E9B3  EA        NOP                             A:F0 X:02 Y:9A P:E5 SP:FB CYC:230  C I  -VN
E9B4  EA        NOP                             A:F0 X:02 Y:9A P:E5 SP:FB CYC:236  C I  -VN
E9B5  EA        NOP                             A:F0 X:02 Y:9A P:E5 SP:FB CYC:242  C I  -VN
E9B6  20 59 FA  JSR $FA59                       A:F0 X:02 Y:9A P:E5 SP:FB CYC:248  C I  -VN
FA59  50 0A     BVC $FA65                       A:F0 X:02 Y:9A P:E5 SP:F9 CYC:266  C I  -VN
FA5B  F0 08     BEQ $FA65                       A:F0 X:02 Y:9A P:E5 SP:F9 CYC:272  C I  -VN
FA5D  10 06     BPL $FA65                       A:F0 X:02 Y:9A P:E5 SP:F9 CYC:278  C I  -VN
FA5F  90 04     BCC $FA65                       A:F0 X:02 Y:9A P:E5 SP:F9 CYC:284  C I  -VN
FA61  C9 F0     CMP #$F0                        A:F0 X:02 Y:9A P:E5 SP:F9 CYC:290  C I  -VN
FA63  F0 02     BEQ $FA67                       A:F0 X:02 Y:9A P:67 SP:F9 CYC:296  CZI  -V 
FA67  60        RTS                             A:F0 X:02 Y:9A P:67 SP:F9 CYC:305  CZI  -V 
E9B9  A5 47     LDA $47 = 36                    A:F0 X:02 Y:9A P:67 SP:FB CYC:323  CZI  -V 
E9BB  C9 36     CMP #$36                        A:36 X:02 Y:9A P:65 SP:FB CYC:332  C I  -V 
E9BD  F0 02     BEQ $E9C1                       A:36 X:02 Y:9A P:67 SP:FB CYC:338  CZI  -V 
E9C1  C8        INY                             A:36 X:02 Y:9A P:67 SP:FB CYC:  6  CZI  -V 
E9C2  A9 EB     LDA #$EB                        A:36 X:02 Y:9B P:E5 SP:FB CYC: 12  C I  -VN
E9C4  8D 47 06  STA $0647 = 36                  A:EB X:02 Y:9B P:E5 SP:FB CYC: 18  C I  -VN
E9C7  20 31 FA  JSR $FA31                       A:EB X:02 Y:9B P:E5 SP:FB CYC: 30  C I  -VN
FA31  24 01     BIT $01 = FF                    A:EB X:02 Y:9B P:E5 SP:F9 CYC: 48  C I  -VN
FA33  18        CLC                             A:EB X:02 Y:9B P:E5 SP:F9 CYC: 57  C I  -VN
FA34  A9 40     LDA #$40                        A:EB X:02 Y:9B P:E4 SP:F9 CYC: 63    I  -VN
FA36  60        RTS                             A:40 X:02 Y:9B P:64 SP:F9 CYC: 69    I  -V 
E9CA  CF 47 06 *DCP $0647 = EB                  A:40 X:02 Y:9B P:64 SP:FB CYC: 87    I  -V 
E9CD  EA        NOP                             A:40 X:02 Y:9B P:64 SP:FB CYC:105    I  -V 
E9CE  EA        NOP                             A:40 X:02 Y:9B P:64 SP:FB CYC:111    I  -V 
E9CF  EA        NOP                             A:40 X:02 Y:9B P:64 SP:FB CYC:117    I  -V 
E9D0  EA        NOP                             A:40 X:02 Y:9B P:64 SP:FB CYC:123    I  -V 
E9D1  20 37 FA  JSR $FA37                       A:40 X:02 Y:9B P:64 SP:FB CYC:129    I  -V 
FA37  50 2C     BVC $FA65                       A:40 X:02 Y:9B P:64 SP:F9 CYC:147    I  -V 
FA39  B0 2A     BCS $FA65                       A:40 X:02 Y:9B P:64 SP:F9 CYC:153    I  -V 
FA3B  30 28     BMI $FA65                       A:40 X:02 Y:9B P:64 SP:F9 CYC:159    I  -V 
FA3D  C9 40     CMP #$40                        A:40 X:02 Y:9B P:64 SP:F9 CYC:165    I  -V 
FA3F  D0 24     BNE $FA65                       A:40 X:02 Y:9B P:67 SP:F9 CYC:171  CZI  -V 
FA41  60        RTS                             A:40 X:02 Y:9B P:67 SP:F9 CYC:177  CZI  -V 
E9D4  AD 47 06  LDA $0647 = EA                  A:40 X:02 Y:9B P:67 SP:FB CYC:195  CZI  -V 
E9D7  C9 EA     CMP #$EA                        A:EA X:02 Y:9B P:E5 SP:FB CYC:207  C I  -VN
E9D9  F0 02     BEQ $E9DD                       A:EA X:02 Y:9B P:67 SP:FB CYC:213  CZI  -V 
E9DD  C8        INY                             A:EA X:02 Y:9B P:67 SP:FB CYC:222  CZI  -V 
E9DE  A9 00     LDA #$00                        A:EA X:02 Y:9C P:E5 SP:FB CYC:228  C I  -VN
E9E0  8D 47 06  STA $0647 = EA                  A:00 X:02 Y:9C P:67 SP:FB CYC:234  CZI  -V 
E9E3  20 42 FA  JSR $FA42                       A:00 X:02 Y:9C P:67 SP:FB CYC:246  CZI  -V 
FA42  B8        CLV                             A:00 X:02 Y:9C P:67 SP:F9 CYC:264  CZI  -V 
FA43  38        SEC                             A:00 X:02 Y:9C P:27 SP:F9 CYC:270  CZI  -  
FA44  A9 FF     LDA #$FF                        A:00 X:02 Y:9C P:27 SP:F9 CYC:276  CZI  -  
FA46  60        RTS                             A:FF X:02 Y:9C P:A5 SP:F9 CYC:282  C I  - N
E9E6  CF 47 06 *DCP $0647 = 00                  A:FF X:02 Y:9C P:A5 SP:FB CYC:300  C I  - N
E9E9  EA        NOP                             A:FF X:02 Y:9C P:27 SP:FB CYC:318  CZI  -  
E9EA  EA        NOP                             A:FF X:02 Y:9C P:27 SP:FB CYC:324  CZI  -  
E9EB  EA        NOP                             A:FF X:02 Y:9C P:27 SP:FB CYC:330  CZI  -  
E9EC  EA        NOP                             A:FF X:02 Y:9C P:27 SP:FB CYC:336  CZI  -  
E9ED  20 47 FA  JSR $FA47                       A:FF X:02 Y:9C P:27 SP:FB CYC:  1  CZI  -  
FA47  70 1C     BVS $FA65                       A:FF X:02 Y:9C P:27 SP:F9 CYC: 19  CZI  -  
FA49  D0 1A     BNE $FA65                       A:FF X:02 Y:9C P:27 SP:F9 CYC: 25  CZI  -  
FA4B  30 18     BMI $FA65                       A:FF X:02 Y:9C P:27 SP:F9 CYC: 31  CZI  -  
FA4D  90 16     BCC $FA65                       A:FF X:02 Y:9C P:27 SP:F9 CYC: 37  CZI  -  
FA4F  C9 FF     CMP #$FF                        A:FF X:02 Y:9C P:27 SP:F9 CYC: 43  CZI  -  
FA51  D0 12     BNE $FA65                       A:FF X:02 Y:9C P:27 SP:F9 CYC: 49  CZI  -  
FA53  60        RTS                             A:FF X:02 Y:9C P:27 SP:F9 CYC: 55  CZI  -  
E9F0  AD 47 06  LDA $0647 = FF                  A:FF X:02 Y:9C P:27 SP:FB CYC: 73  CZI  -  
E9F3  C9 FF     CMP #$FF                        A:FF X:02 Y:9C P:A5 SP:FB CYC: 85  C I  - N
E9F5  F0 02     BEQ $E9F9                       A:FF X:02 Y:9C P:27 SP:FB CYC: 91  CZI  -  
E9F9  C8        INY                             A:FF X:02 Y:9C P:27 SP:FB CYC:100  CZI  -  
E9FA  A9 37     LDA #$37                        A:FF X:02 Y:9D P:A5 SP:FB CYC:106  C I  - N
E9FC  8D 47 06  STA $0647 = FF                  A:37 X:02 Y:9D P:25 SP:FB CYC:112  C I  -  
E9FF  20 54 FA  JSR $FA54                       A:37 X:02 Y:9D P:25 SP:FB CYC:124  C I  -  
FA54  24 01     BIT $01 = FF                    A:37 X:02 Y:9D P:25 SP:F9 CYC:142  C I  -  
FA56  A9 F0     LDA #$F0                        A:37 X:02 Y:9D P:E5 SP:F9 CYC:151  C I  -VN
FA58  60        RTS                             A:F0 X:02 Y:9D P:E5 SP:F9 CYC:157  C I  -VN
EA02  CF 47 06 *DCP $0647 = 37                  A:F0 X:02 Y:9D P:E5 SP:FB CYC:175  C I  -VN
EA05  EA        NOP                             A:F0 X:02 Y:9D P:E5 SP:FB CYC:193  C I  -VN
EA06  EA        NOP                             A:F0 X:02 Y:9D P:E5 SP:FB CYC:199  C I  -VN
EA07  EA        NOP                             A:F0 X:02 Y:9D P:E5 SP:FB CYC:205  C I  -VN
EA08  EA        NOP                             A:F0 X:02 Y:9D P:E5 SP:FB CYC:211  C I  -VN
EA09  20 59 FA  JSR $FA59                       A:F0 X:02 Y:9D P:E5 SP:FB CYC:217  C I  -VN
FA59  50 0A     BVC $FA65                       A:F0 X:02 Y:9D P:E5 SP:F9 CYC:235  C I  -VN
FA5B  F0 08     BEQ $FA65                       A:F0 X:02 Y:9D P:E5 SP:F9 CYC:241  C I  -VN
FA5D  10 06     BPL $FA65                       A:F0 X:02 Y:9D P:E5 SP:F9 CYC:247  C I  -VN
FA5F  90 04     BCC $FA65                       A:F0 X:02 Y:9D P:E5 SP:F9 CYC:253  C I  -VN
FA61  C9 F0     CMP #$F0                        A:F0 X:02 Y:9D P:E5 SP:F9 CYC:259  C I  -VN
FA63  F0 02     BEQ $FA67                       A:F0 X:02 Y:9D P:67 SP:F9 CYC:265  CZI  -V 
FA67  60        RTS                             A:F0 X:02 Y:9D P:67 SP:F9 CYC:274  CZI  -V 
EA0C  AD 47 06  LDA $0647 = 36                  A:F0 X:02 Y:9D P:67 SP:FB CYC:292  CZI  -V 
EA0F  C9 36     CMP #$36                        A:36 X:02 Y:9D P:65 SP:FB CYC:304  C I  -V 
EA11  F0 02     BEQ $EA15                       A:36 X:02 Y:9D P:67 SP:FB CYC:310  CZI  -V 
EA15  A9 EB     LDA #$EB                        A:36 X:02 Y:9D P:67 SP:FB CYC:319  CZI  -V 
EA17  8D 47 06  STA $0647 = 36                  A:EB X:02 Y:9D P:E5 SP:FB CYC:325  C I  -VN
EA1A  A9 48     LDA #$48                        A:EB X:02 Y:9D P:E5 SP:FB CYC:337  C I  -VN
EA1C  85 45     STA $45 = 32                    A:48 X:02 Y:9D P:65 SP:FB CYC:  2  C I  -V 
EA1E  A9 05     LDA #$05                        A:48 X:02 Y:9D P:65 SP:FB CYC: 11  C I  -V 
EA20  85 46     STA $46 = 04                    A:05 X:02 Y:9D P:65 SP:FB CYC: 17  C I  -V 
EA22  A0 FF     LDY #$FF                        A:05 X:02 Y:9D P:65 SP:FB CYC: 26  C I  -V 
EA24  20 31 FA  JSR $FA31                       A:05 X:02 Y:FF P:E5 SP:FB CYC: 32  C I  -VN
FA31  24 01     BIT $01 = FF                    A:05 X:02 Y:FF P:E5 SP:F9 CYC: 50  C I  -VN
FA33  18        CLC                             A:05 X:02 Y:FF P:E5 SP:F9 CYC: 59  C I  -VN
FA34  A9 40     LDA #$40                        A:05 X:02 Y:FF P:E4 SP:F9 CYC: 65    I  -VN
FA36  60        RTS                             A:40 X:02 Y:FF P:64 SP:F9 CYC: 71    I  -V 
EA27  D3 45    *DCP ($45),Y = 0548 @ 0647 = EB  A:40 X:02 Y:FF P:64 SP:FB CYC: 89    I  -V 
EA29  EA        NOP                             A:40 X:02 Y:FF P:64 SP:FB CYC:113    I  -V 
EA2A  EA        NOP                             A:40 X:02 Y:FF P:64 SP:FB CYC:119    I  -V 
EA2B  08        PHP                             A:40 X:02 Y:FF P:64 SP:FB CYC:125    I  -V 
EA2C  48        PHA                             A:40 X:02 Y:FF P:64 SP:FA CYC:134    I  -V 
EA2D  A0 9E     LDY #$9E                        A:40 X:02 Y:FF P:64 SP:F9 CYC:143    I  -V 
EA2F  68        PLA                             A:40 X:02 Y:9E P:E4 SP:F9 CYC:149    I  -VN
EA30  28        PLP                             A:40 X:02 Y:9E P:64 SP:FA CYC:161    I  -V 
EA31  20 37 FA  JSR $FA37                       A:40 X:02 Y:9E P:64 SP:FB CYC:173    I  -V 
FA37  50 2C     BVC $FA65                       A:40 X:02 Y:9E P:64 SP:F9 CYC:191    I  -V 
FA39  B0 2A     BCS $FA65                       A:40 X:02 Y:9E P:64 SP:F9 CYC:197    I  -V 
FA3B  30 28     BMI $FA65                       A:40 X:02 Y:9E P:64 SP:F9 CYC:203    I  -V 
FA3D  C9 40     CMP #$40                        A:40 X:02 Y:9E P:64 SP:F9 CYC:209    I  -V 
FA3F  D0 24     BNE $FA65                       A:40 X:02 Y:9E P:67 SP:F9 CYC:215  CZI  -V 
FA41  60        RTS                             A:40 X:02 Y:9E P:67 SP:F9 CYC:221  CZI  -V 
EA34  AD 47 06  LDA $0647 = EA                  A:40 X:02 Y:9E P:67 SP:FB CYC:239  CZI  -V 
EA37  C9 EA     CMP #$EA                        A:EA X:02 Y:9E P:E5 SP:FB CYC:251  C I  -VN
EA39  F0 02     BEQ $EA3D                       A:EA X:02 Y:9E P:67 SP:FB CYC:257  CZI  -V 
EA3D  A0 FF     LDY #$FF                        A:EA X:02 Y:9E P:67 SP:FB CYC:266  CZI  -V 
EA3F  A9 00     LDA #$00                        A:EA X:02 Y:FF P:E5 SP:FB CYC:272  C I  -VN
EA41  8D 47 06  STA $0647 = EA                  A:00 X:02 Y:FF P:67 SP:FB CYC:278  CZI  -V 
EA44  20 42 FA  JSR $FA42                       A:00 X:02 Y:FF P:67 SP:FB CYC:290  CZI  -V 
FA42  B8        CLV                             A:00 X:02 Y:FF P:67 SP:F9 CYC:308  CZI  -V 
FA43  38        SEC                             A:00 X:02 Y:FF P:27 SP:F9 CYC:314  CZI  -  
FA44  A9 FF     LDA #$FF                        A:00 X:02 Y:FF P:27 SP:F9 CYC:320  CZI  -  
FA46  60        RTS                             A:FF X:02 Y:FF P:A5 SP:F9 CYC:326  C I  - N
EA47  D3 45    *DCP ($45),Y = 0548 @ 0647 = 00  A:FF X:02 Y:FF P:A5 SP:FB CYC:  3  C I  - N
EA49  EA        NOP                             A:FF X:02 Y:FF P:27 SP:FB CYC: 27  CZI  -  
EA4A  EA        NOP                             A:FF X:02 Y:FF P:27 SP:FB CYC: 33  CZI  -  
EA4B  08        PHP                             A:FF X:02 Y:FF P:27 SP:FB CYC: 39  CZI  -  
EA4C  48        PHA                             A:FF X:02 Y:FF P:27 SP:FA CYC: 48  CZI  -  
EA4D  A0 9F     LDY #$9F                        A:FF X:02 Y:FF P:27 SP:F9 CYC: 57  CZI  -  
EA4F  68        PLA                             A:FF X:02 Y:9F P:A5 SP:F9 CYC: 63  C I  - N
EA50  28        PLP                             A:FF X:02 Y:9F P:A5 SP:FA CYC: 75  C I  - N
EA51  20 47 FA  JSR $FA47                       A:FF X:02 Y:9F P:27 SP:FB CYC: 87  CZI  -  
FA47  70 1C     BVS $FA65                       A:FF X:02 Y:9F P:27 SP:F9 CYC:105  CZI  -  
FA49  D0 1A     BNE $FA65                       A:FF X:02 Y:9F P:27 SP:F9 CYC:111  CZI  -  
FA4B  30 18     BMI $FA65                       A:FF X:02 Y:9F P:27 SP:F9 CYC:117  CZI  -  
FA4D  90 16     BCC $FA65                       A:FF X:02 Y:9F P:27 SP:F9 CYC:123  CZI  -  
FA4F  C9 FF     CMP #$FF                        A:FF X:02 Y:9F P:27 SP:F9 CYC:129  CZI  -  
FA51  D0 12     BNE $FA65                       A:FF X:02 Y:9F P:27 SP:F9 CYC:135  CZI  -  
FA53  60        RTS                             A:FF X:02 Y:9F P:27 SP:F9 CYC:141  CZI  -  
EA54  AD 47 06  LDA $0647 = FF                  A:FF X:02 Y:9F P:27 SP:FB CYC:159  CZI  -  
EA57  C9 FF     CMP #$FF                        A:FF X:02 Y:9F P:A5 SP:FB CYC:171  C I  - N
EA59  F0 02     BEQ $EA5D                       A:FF X:02 Y:9F P:27 SP:FB CYC:177  CZI  -  
EA5D  A0 FF     LDY #$FF                        A:FF X:02 Y:9F P:27 SP:FB CYC:186  CZI  -  
EA5F  A9 37     LDA #$37                        A:FF X:02 Y:FF P:A5 SP:FB CYC:192  C I  - N
EA61  8D 47 06  STA $0647 = FF                  A:37 X:02 Y:FF P:25 SP:FB CYC:198  C I  -  
EA64  20 54 FA  JSR $FA54                       A:37 X:02 Y:FF P:25 SP:FB CYC:210  C I  -  
FA54  24 01     BIT $01 = FF                    A:37 X:02 Y:FF P:25 SP:F9 CYC:228  C I  -  
FA56  A9 F0     LDA #$F0                        A:37 X:02 Y:FF P:E5 SP:F9 CYC:237  C I  -VN
FA58  60        RTS                             A:F0 X:02 Y:FF P:E5 SP:F9 CYC:243  C I  -VN
EA67  D3 45    *DCP ($45),Y = 0548 @ 0647 = 37  A:F0 X:02 Y:FF P:E5 SP:FB CYC:261  C I  -VN
EA69  EA        NOP                             A:F0 X:02 Y:FF P:E5 SP:FB CYC:285  C I  -VN
EA6A  EA        NOP                             A:F0 X:02 Y:FF P:E5 SP:FB CYC:291  C I  -VN
EA6B  08        PHP                             A:F0 X:02 Y:FF P:E5 SP:FB CYC:297  C I  -VN
EA6C  48        PHA                             A:F0 X:02 Y:FF P:E5 SP:FA CYC:306  C I  -VN
EA6D  A0 A0     LDY #$A0                        A:F0 X:02 Y:FF P:E5 SP:F9 CYC:315  C I  -VN
EA6F  68        PLA                             A:F0 X:02 Y:A0 P:E5 SP:F9 CYC:321  C I  -VN
EA70  28        PLP                             A:F0 X:02 Y:A0 P:E5 SP:FA CYC:333  C I  -VN
EA71  20 59 FA  JSR $FA59                       A:F0 X:02 Y:A0 P:E5 SP:FB CYC:  4  C I  -VN
FA59  50 0A     BVC $FA65                       A:F0 X:02 Y:A0 P:E5 SP:F9 CYC: 22  C I  -VN
FA5B  F0 08     BEQ $FA65                       A:F0 X:02 Y:A0 P:E5 SP:F9 CYC: 28  C I  -VN
FA5D  10 06     BPL $FA65                       A:F0 X:02 Y:A0 P:E5 SP:F9 CYC: 34  C I  -VN
FA5F  90 04     BCC $FA65                       A:F0 X:02 Y:A0 P:E5 SP:F9 CYC: 40  C I  -VN
FA61  C9 F0     CMP #$F0                        A:F0 X:02 Y:A0 P:E5 SP:F9 CYC: 46  C I  -VN
FA63  F0 02     BEQ $FA67                       A:F0 X:02 Y:A0 P:67 SP:F9 CYC: 52  CZI  -V 
FA67  60        RTS                             A:F0 X:02 Y:A0 P:67 SP:F9 CYC: 61  CZI  -V 
EA74  AD 47 06  LDA $0647 = 36                  A:F0 X:02 Y:A0 P:67 SP:FB CYC: 79  CZI  -V 
EA77  C9 36     CMP #$36                        A:36 X:02 Y:A0 P:65 SP:FB CYC: 91  C I  -V 
EA79  F0 02     BEQ $EA7D                       A:36 X:02 Y:A0 P:67 SP:FB CYC: 97  CZI  -V 
EA7D  A0 A1     LDY #$A1                        A:36 X:02 Y:A0 P:67 SP:FB CYC:106  CZI  -V 
EA7F  A2 FF     LDX #$FF                        A:36 X:02 Y:A1 P:E5 SP:FB CYC:112  C I  -VN
EA81  A9 EB     LDA #$EB                        A:36 X:FF Y:A1 P:E5 SP:FB CYC:118  C I  -VN
EA83  85 47     STA $47 = 36                    A:EB X:FF Y:A1 P:E5 SP:FB CYC:124  C I  -VN
EA85  20 31 FA  JSR $FA31                       A:EB X:FF Y:A1 P:E5 SP:FB CYC:133  C I  -VN
FA31  24 01     BIT $01 = FF                    A:EB X:FF Y:A1 P:E5 SP:F9 CYC:151  C I  -VN
FA33  18        CLC                             A:EB X:FF Y:A1 P:E5 SP:F9 CYC:160  C I  -VN
FA34  A9 40     LDA #$40                        A:EB X:FF Y:A1 P:E4 SP:F9 CYC:166    I  -VN
FA36  60        RTS                             A:40 X:FF Y:A1 P:64 SP:F9 CYC:172    I  -V 
EA88  D7 48    *DCP $48,X @ 47 = EB             A:40 X:FF Y:A1 P:64 SP:FB CYC:190    I  -V 
EA8A  EA        NOP                             A:40 X:FF Y:A1 P:64 SP:FB CYC:208    I  -V 
EA8B  EA        NOP                             A:40 X:FF Y:A1 P:64 SP:FB CYC:214    I  -V 
EA8C  EA        NOP                             A:40 X:FF Y:A1 P:64 SP:FB CYC:220    I  -V 
EA8D  EA        NOP                             A:40 X:FF Y:A1 P:64 SP:FB CYC:226    I  -V 
EA8E  20 37 FA  JSR $FA37                       A:40 X:FF Y:A1 P:64 SP:FB CYC:232    I  -V 
FA37  50 2C     BVC $FA65                       A:40 X:FF Y:A1 P:64 SP:F9 CYC:250    I  -V 
FA39  B0 2A     BCS $FA65                       A:40 X:FF Y:A1 P:64 SP:F9 CYC:256    I  -V 
FA3B  30 28     BMI $FA65                       A:40 X:FF Y:A1 P:64 SP:F9 CYC:262    I  -V 
FA3D  C9 40     CMP #$40                        A:40 X:FF Y:A1 P:64 SP:F9 CYC:268    I  -V 
FA3F  D0 24     BNE $FA65                       A:40 X:FF Y:A1 P:67 SP:F9 CYC:274  CZI  -V 
FA41  60        RTS                             A:40 X:FF Y:A1 P:67 SP:F9 CYC:280  CZI  -V 
EA91  A5 47     LDA $47 = EA                    A:40 X:FF Y:A1 P:67 SP:FB CYC:298  CZI  -V 
EA93  C9 EA     CMP #$EA                        A:EA X:FF Y:A1 P:E5 SP:FB CYC:307  C I  -VN
EA95  F0 02     BEQ $EA99                       A:EA X:FF Y:A1 P:67 SP:FB CYC:313  CZI  -V 
EA99  C8        INY                             A:EA X:FF Y:A1 P:67 SP:FB CYC:322  CZI  -V 
EA9A  A9 00     LDA #$00                        A:EA X:FF Y:A2 P:E5 SP:FB CYC:328  C I  -VN
EA9C  85 47     STA $47 = EA                    A:00 X:FF Y:A2 P:67 SP:FB CYC:334  CZI  -V 
EA9E  20 42 FA  JSR $FA42                       A:00 X:FF Y:A2 P:67 SP:FB CYC:  2  CZI  -V 
FA42  B8        CLV                             A:00 X:FF Y:A2 P:67 SP:F9 CYC: 20  CZI  -V 
FA43  38        SEC                             A:00 X:FF Y:A2 P:27 SP:F9 CYC: 26  CZI  -  
FA44  A9 FF     LDA #$FF                        A:00 X:FF Y:A2 P:27 SP:F9 CYC: 32  CZI  -  
FA46  60        RTS                             A:FF X:FF Y:A2 P:A5 SP:F9 CYC: 38  C I  - N
EAA1  D7 48    *DCP $48,X @ 47 = 00             A:FF X:FF Y:A2 P:A5 SP:FB CYC: 56  C I  - N
EAA3  EA        NOP                             A:FF X:FF Y:A2 P:27 SP:FB CYC: 74  CZI  -  
EAA4  EA        NOP                             A:FF X:FF Y:A2 P:27 SP:FB CYC: 80  CZI  -  
EAA5  EA        NOP                             A:FF X:FF Y:A2 P:27 SP:FB CYC: 86  CZI  -  
EAA6  EA        NOP                             A:FF X:FF Y:A2 P:27 SP:FB CYC: 92  CZI  -  
EAA7  20 47 FA  JSR $FA47                       A:FF X:FF Y:A2 P:27 SP:FB CYC: 98  CZI  -  
FA47  70 1C     BVS $FA65                       A:FF X:FF Y:A2 P:27 SP:F9 CYC:116  CZI  -  
FA49  D0 1A     BNE $FA65                       A:FF X:FF Y:A2 P:27 SP:F9 CYC:122  CZI  -  
FA4B  30 18     BMI $FA65                       A:FF X:FF Y:A2 P:27 SP:F9 CYC:128  CZI  -  
FA4D  90 16     BCC $FA65                       A:FF X:FF Y:A2 P:27 SP:F9 CYC:134  CZI  -  
FA4F  C9 FF     CMP #$FF                        A:FF X:FF Y:A2 P:27 SP:F9 CYC:140  CZI  -  
FA51  D0 12     BNE $FA65                       A:FF X:FF Y:A2 P:27 SP:F9 CYC:146  CZI  -  
FA53  60        RTS                             A:FF X:FF Y:A2 P:27 SP:F9 CYC:152  CZI  -  
EAAA  A5 47     LDA $47 = FF                    A:FF X:FF Y:A2 P:27 SP:FB CYC:170  CZI  -  
EAAC  C9 FF     CMP #$FF                        A:FF X:FF Y:A2 P:A5 SP:FB CYC:179  C I  - N
EAAE  F0 02     BEQ $EAB2                       A:FF X:FF Y:A2 P:27 SP:FB CYC:185  CZI  -  
EAB2  C8        INY                             A:FF X:FF Y:A2 P:27 SP:FB CYC:194  CZI  -  
EAB3  A9 37     LDA #$37                        A:FF X:FF Y:A3 P:A5 SP:FB CYC:200  C I  - N
EAB5  85 47     STA $47 = FF                    A:37 X:FF Y:A3 P:25 SP:FB CYC:206  C I  -  
EAB7  20 54 FA  JSR $FA54                       A:37 X:FF Y:A3 P:25 SP:FB CYC:215  C I  -  
FA54  24 01     BIT $01 = FF                    A:37 X:FF Y:A3 P:25 SP:F9 CYC:233  C I  -  
FA56  A9 F0     LDA #$F0                        A:37 X:FF Y:A3 P:E5 SP:F9 CYC:242  C I  -VN
FA58  60        RTS                             A:F0 X:FF Y:A3 P:E5 SP:F9 CYC:248  C I  -VN
EABA  D7 48    *DCP $48,X @ 47 = 37             A:F0 X:FF Y:A3 P:E5 SP:FB CYC:266  C I  -VN
EABC  EA        NOP                             A:F0 X:FF Y:A3 P:E5 SP:FB CYC:284  C I  -VN
EABD  EA        NOP                             A:F0 X:FF Y:A3 P:E5 SP:FB CYC:290  C I  -VN
EABE  EA        NOP                             A:F0 X:FF Y:A3 P:E5 SP:FB CYC:296  C I  -VN
EABF  EA        NOP                             A:F0 X:FF Y:A3 P:E5 SP:FB CYC:302  C I  -VN
EAC0  20 59 FA  JSR $FA59                       A:F0 X:FF Y:A3 P:E5 SP:FB CYC:308  C I  -VN
FA59  50 0A     BVC $FA65                       A:F0 X:FF Y:A3 P:E5 SP:F9 CYC:326  C I  -VN
FA5B  F0 08     BEQ $FA65                       A:F0 X:FF Y:A3 P:E5 SP:F9 CYC:332  C I  -VN
FA5D  10 06     BPL $FA65                       A:F0 X:FF Y:A3 P:E5 SP:F9 CYC:338  C I  -VN
FA5F  90 04     BCC $FA65                       A:F0 X:FF Y:A3 P:E5 SP:F9 CYC:  3  C I  -VN
FA61  C9 F0     CMP #$F0                        A:F0 X:FF Y:A3 P:E5 SP:F9 CYC:  9  C I  -VN
FA63  F0 02     BEQ $FA67                       A:F0 X:FF Y:A3 P:67 SP:F9 CYC: 15  CZI  -V 
FA67  60        RTS                             A:F0 X:FF Y:A3 P:67 SP:F9 CYC: 24  CZI  -V 
EAC3  A5 47     LDA $47 = 36                    A:F0 X:FF Y:A3 P:67 SP:FB CYC: 42  CZI  -V 
EAC5  C9 36     CMP #$36                        A:36 X:FF Y:A3 P:65 SP:FB CYC: 51  C I  -V 
EAC7  F0 02     BEQ $EACB                       A:36 X:FF Y:A3 P:67 SP:FB CYC: 57  CZI  -V 
EACB  A9 EB     LDA #$EB                        A:36 X:FF Y:A3 P:67 SP:FB CYC: 66  CZI  -V 
EACD  8D 47 06  STA $0647 = 36                  A:EB X:FF Y:A3 P:E5 SP:FB CYC: 72  C I  -VN
EAD0  A0 FF     LDY #$FF                        A:EB X:FF Y:A3 P:E5 SP:FB CYC: 84  C I  -VN
EAD2  20 31 FA  JSR $FA31                       A:EB X:FF Y:FF P:E5 SP:FB CYC: 90  C I  -VN
FA31  24 01     BIT $01 = FF                    A:EB X:FF Y:FF P:E5 SP:F9 CYC:108  C I  -VN
FA33  18        CLC                             A:EB X:FF Y:FF P:E5 SP:F9 CYC:117  C I  -VN
FA34  A9 40     LDA #$40                        A:EB X:FF Y:FF P:E4 SP:F9 CYC:123    I  -VN
FA36  60        RTS                             A:40 X:FF Y:FF P:64 SP:F9 CYC:129    I  -V 
EAD5  DB 48 05 *DCP $0548,Y @ 0647 = EB         A:40 X:FF Y:FF P:64 SP:FB CYC:147    I  -V 
EAD8  EA        NOP                             A:40 X:FF Y:FF P:64 SP:FB CYC:168    I  -V 
EAD9  EA        NOP                             A:40 X:FF Y:FF P:64 SP:FB CYC:174    I  -V 
EADA  08        PHP                             A:40 X:FF Y:FF P:64 SP:FB CYC:180    I  -V 
EADB  48        PHA                             A:40 X:FF Y:FF P:64 SP:FA CYC:189    I  -V 
EADC  A0 A4     LDY #$A4                        A:40 X:FF Y:FF P:64 SP:F9 CYC:198    I  -V 
EADE  68        PLA                             A:40 X:FF Y:A4 P:E4 SP:F9 CYC:204    I  -VN
EADF  28        PLP                             A:40 X:FF Y:A4 P:64 SP:FA CYC:216    I  -V 
EAE0  20 37 FA  JSR $FA37                       A:40 X:FF Y:A4 P:64 SP:FB CYC:228    I  -V 
FA37  50 2C     BVC $FA65                       A:40 X:FF Y:A4 P:64 SP:F9 CYC:246    I  -V 
FA39  B0 2A     BCS $FA65                       A:40 X:FF Y:A4 P:64 SP:F9 CYC:252    I  -V 
FA3B  30 28     BMI $FA65                       A:40 X:FF Y:A4 P:64 SP:F9 CYC:258    I  -V 
FA3D  C9 40     CMP #$40                        A:40 X:FF Y:A4 P:64 SP:F9 CYC:264    I  -V 
FA3F  D0 24     BNE $FA65                       A:40 X:FF Y:A4 P:67 SP:F9 CYC:270  CZI  -V 
FA41  60        RTS                             A:40 X:FF Y:A4 P:67 SP:F9 CYC:276  CZI  -V 
EAE3  AD 47 06  LDA $0647 = EA                  A:40 X:FF Y:A4 P:67 SP:FB CYC:294  CZI  -V 
EAE6  C9 EA     CMP #$EA                        A:EA X:FF Y:A4 P:E5 SP:FB CYC:306  C I  -VN
EAE8  F0 02     BEQ $EAEC                       A:EA X:FF Y:A4 P:67 SP:FB CYC:312  CZI  -V 
EAEC  A0 FF     LDY #$FF                        A:EA X:FF Y:A4 P:67 SP:FB CYC:321  CZI  -V 
EAEE  A9 00     LDA #$00                        A:EA X:FF Y:FF P:E5 SP:FB CYC:327  C I  -VN
EAF0  8D 47 06  STA $0647 = EA                  A:00 X:FF Y:FF P:67 SP:FB CYC:333  CZI  -V 
EAF3  20 42 FA  JSR $FA42                       A:00 X:FF Y:FF P:67 SP:FB CYC:  4  CZI  -V 
FA42  B8        CLV                             A:00 X:FF Y:FF P:67 SP:F9 CYC: 22  CZI  -V 
FA43  38        SEC                             A:00 X:FF Y:FF P:27 SP:F9 CYC: 28  CZI  -  
FA44  A9 FF     LDA #$FF                        A:00 X:FF Y:FF P:27 SP:F9 CYC: 34  CZI  -  
FA46  60        RTS                             A:FF X:FF Y:FF P:A5 SP:F9 CYC: 40  C I  - N
EAF6  DB 48 05 *DCP $0548,Y @ 0647 = 00         A:FF X:FF Y:FF P:A5 SP:FB CYC: 58  C I  - N
EAF9  EA        NOP                             A:FF X:FF Y:FF P:27 SP:FB CYC: 79  CZI  -  
EAFA  EA        NOP                             A:FF X:FF Y:FF P:27 SP:FB CYC: 85  CZI  -  
EAFB  08        PHP                             A:FF X:FF Y:FF P:27 SP:FB CYC: 91  CZI  -  
EAFC  48        PHA                             A:FF X:FF Y:FF P:27 SP:FA CYC:100  CZI  -  
EAFD  A0 A5     LDY #$A5                        A:FF X:FF Y:FF P:27 SP:F9 CYC:109  CZI  -  
EAFF  68        PLA                             A:FF X:FF Y:A5 P:A5 SP:F9 CYC:115  C I  - N
EB00  28        PLP                             A:FF X:FF Y:A5 P:A5 SP:FA CYC:127  C I  - N
EB01  20 47 FA  JSR $FA47                       A:FF X:FF Y:A5 P:27 SP:FB CYC:139  CZI  -  
FA47  70 1C     BVS $FA65                       A:FF X:FF Y:A5 P:27 SP:F9 CYC:157  CZI  -  
FA49  D0 1A     BNE $FA65                       A:FF X:FF Y:A5 P:27 SP:F9 CYC:163  CZI  -  
FA4B  30 18     BMI $FA65                       A:FF X:FF Y:A5 P:27 SP:F9 CYC:169  CZI  -  
FA4D  90 16     BCC $FA65                       A:FF X:FF Y:A5 P:27 SP:F9 CYC:175  CZI  -  
FA4F  C9 FF     CMP #$FF                        A:FF X:FF Y:A5 P:27 SP:F9 CYC:181  CZI  -  
FA51  D0 12     BNE $FA65                       A:FF X:FF Y:A5 P:27 SP:F9 CYC:187  CZI  -  
FA53  60        RTS                             A:FF X:FF Y:A5 P:27 SP:F9 CYC:193  CZI  -  
EB04  AD 47 06  LDA $0647 = FF                  A:FF X:FF Y:A5 P:27 SP:FB CYC:211  CZI  -  
EB07  C9 FF     CMP #$FF                        A:FF X:FF Y:A5 P:A5 SP:FB CYC:223  C I  - N
EB09  F0 02     BEQ $EB0D                       A:FF X:FF Y:A5 P:27 SP:FB CYC:229  CZI  -  
EB0D  A0 FF     LDY #$FF                        A:FF X:FF Y:A5 P:27 SP:FB CYC:238  CZI  -  
EB0F  A9 37     LDA #$37                        A:FF X:FF Y:FF P:A5 SP:FB CYC:244  C I  - N
EB11  8D 47 06  STA $0647 = FF                  A:37 X:FF Y:FF P:25 SP:FB CYC:250  C I  -  
EB14  20 54 FA  JSR $FA54                       A:37 X:FF Y:FF P:25 SP:FB CYC:262  C I  -  
FA54  24 01     BIT $01 = FF                    A:37 X:FF Y:FF P:25 SP:F9 CYC:280  C I  -  
FA56  A9 F0     LDA #$F0                        A:37 X:FF Y:FF P:E5 SP:F9 CYC:289  C I  -VN
FA58  60        RTS                             A:F0 X:FF Y:FF P:E5 SP:F9 CYC:295  C I  -VN
EB17  DB 48 05 *DCP $0548,Y @ 0647 = 37         A:F0 X:FF Y:FF P:E5 SP:FB CYC:313  C I  -VN
EB1A  EA        NOP                             A:F0 X:FF Y:FF P:E5 SP:FB CYC:334  C I  -VN
EB1B  EA        NOP                             A:F0 X:FF Y:FF P:E5 SP:FB CYC:340  C I  -VN
EB1C  08        PHP                             A:F0 X:FF Y:FF P:E5 SP:FB CYC:  5  C I  -VN
EB1D  48        PHA                             A:F0 X:FF Y:FF P:E5 SP:FA CYC: 14  C I  -VN
EB1E  A0 A6     LDY #$A6                        A:F0 X:FF Y:FF P:E5 SP:F9 CYC: 23  C I  -VN
EB20  68        PLA                             A:F0 X:FF Y:A6 P:E5 SP:F9 CYC: 29  C I  -VN
EB21  28        PLP                             A:F0 X:FF Y:A6 P:E5 SP:FA CYC: 41  C I  -VN
EB22  20 59 FA  JSR $FA59                       A:F0 X:FF Y:A6 P:E5 SP:FB CYC: 53  C I  -VN
FA59  50 0A     BVC $FA65                       A:F0 X:FF Y:A6 P:E5 SP:F9 CYC: 71  C I  -VN
FA5B  F0 08     BEQ $FA65                       A:F0 X:FF Y:A6 P:E5 SP:F9 CYC: 77  C I  -VN
FA5D  10 06     BPL $FA65                       A:F0 X:FF Y:A6 P:E5 SP:F9 CYC: 83  C I  -VN
FA5F  90 04     BCC $FA65                       A:F0 X:FF Y:A6 P:E5 SP:F9 CYC: 89  C I  -VN
FA61  C9 F0     CMP #$F0                        A:F0 X:FF Y:A6 P:E5 SP:F9 CYC: 95  C I  -VN
FA63  F0 02     BEQ $FA67                       A:F0 X:FF Y:A6 P:67 SP:F9 CYC:101  CZI  -V 
FA67  60        RTS                             A:F0 X:FF Y:A6 P:67 SP:F9 CYC:110  CZI  -V 
EB25  AD 47 06  LDA $0647 = 36                  A:F0 X:FF Y:A6 P:67 SP:FB CYC:128  CZI  -V 
EB28  C9 36     CMP #$36                        A:36 X:FF Y:A6 P:65 SP:FB CYC:140  C I  -V 
EB2A  F0 02     BEQ $EB2E                       A:36 X:FF Y:A6 P:67 SP:FB CYC:146  CZI  -V 
EB2E  A0 A7     LDY #$A7                        A:36 X:FF Y:A6 P:67 SP:FB CYC:155  CZI  -V 
EB30  A2 FF     LDX #$FF                        A:36 X:FF Y:A7 P:E5 SP:FB CYC:161  C I  -VN
EB32  A9 EB     LDA #$EB                        A:36 X:FF Y:A7 P:E5 SP:FB CYC:167  C I  -VN
EB34  8D 47 06  STA $0647 = 36                  A:EB X:FF Y:A7 P:E5 SP:FB CYC:173  C I  -VN
EB37  20 31 FA  JSR $FA31                       A:EB X:FF Y:A7 P:E5 SP:FB CYC:185  C I  -VN
FA31  24 01     BIT $01 = FF                    A:EB X:FF Y:A7 P:E5 SP:F9 CYC:203  C I  -VN
FA33  18        CLC                             A:EB X:FF Y:A7 P:E5 SP:F9 CYC:212  C I  -VN
FA34  A9 40     LDA #$40                        A:EB X:FF Y:A7 P:E4 SP:F9 CYC:218    I  -VN
FA36  60        RTS                             A:40 X:FF Y:A7 P:64 SP:F9 CYC:224    I  -V 
EB3A  DF 48 05 *DCP $0548,X @ 0647 = EB         A:40 X:FF Y:A7 P:64 SP:FB CYC:242    I  -V 
EB3D  EA        NOP                             A:40 X:FF Y:A7 P:64 SP:FB CYC:263    I  -V 
EB3E  EA        NOP                             A:40 X:FF Y:A7 P:64 SP:FB CYC:269    I  -V 
EB3F  EA        NOP                             A:40 X:FF Y:A7 P:64 SP:FB CYC:275    I  -V 
EB40  EA        NOP                             A:40 X:FF Y:A7 P:64 SP:FB CYC:281    I  -V 
EB41  20 37 FA  JSR $FA37                       A:40 X:FF Y:A7 P:64 SP:FB CYC:287    I  -V 
FA37  50 2C     BVC $FA65                       A:40 X:FF Y:A7 P:64 SP:F9 CYC:305    I  -V 
FA39  B0 2A     BCS $FA65                       A:40 X:FF Y:A7 P:64 SP:F9 CYC:311    I  -V 
FA3B  30 28     BMI $FA65                       A:40 X:FF Y:A7 P:64 SP:F9 CYC:317    I  -V 
FA3D  C9 40     CMP #$40                        A:40 X:FF Y:A7 P:64 SP:F9 CYC:323    I  -V 
FA3F  D0 24     BNE $FA65                       A:40 X:FF Y:A7 P:67 SP:F9 CYC:329  CZI  -V 
FA41  60        RTS                             A:40 X:FF Y:A7 P:67 SP:F9 CYC:335  CZI  -V 
EB44  AD 47 06  LDA $0647 = EA                  A:40 X:FF Y:A7 P:67 SP:FB CYC: 12  CZI  -V 
EB47  C9 EA     CMP #$EA                        A:EA X:FF Y:A7 P:E5 SP:FB CYC: 24  C I  -VN
EB49  F0 02     BEQ $EB4D                       A:EA X:FF Y:A7 P:67 SP:FB CYC: 30  CZI  -V 
EB4D  C8        INY                             A:EA X:FF Y:A7 P:67 SP:FB CYC: 39  CZI  -V 
EB4E  A9 00     LDA #$00                        A:EA X:FF Y:A8 P:E5 SP:FB CYC: 45  C I  -VN
EB50  8D 47 06  STA $0647 = EA                  A:00 X:FF Y:A8 P:67 SP:FB CYC: 51  CZI  -V 
EB53  20 42 FA  JSR $FA42                       A:00 X:FF Y:A8 P:67 SP:FB CYC: 63  CZI  -V 
FA42  B8        CLV                             A:00 X:FF Y:A8 P:67 SP:F9 CYC: 81  CZI  -V 
FA43  38        SEC                             A:00 X:FF Y:A8 P:27 SP:F9 CYC: 87  CZI  -  
FA44  A9 FF     LDA #$FF                        A:00 X:FF Y:A8 P:27 SP:F9 CYC: 93  CZI  -  
FA46  60        RTS                             A:FF X:FF Y:A8 P:A5 SP:F9 CYC: 99  C I  - N
EB56  DF 48 05 *DCP $0548,X @ 0647 = 00         A:FF X:FF Y:A8 P:A5 SP:FB CYC:117  C I  - N
EB59  EA        NOP                             A:FF X:FF Y:A8 P:27 SP:FB CYC:138  CZI  -  
EB5A  EA        NOP                             A:FF X:FF Y:A8 P:27 SP:FB CYC:144  CZI  -  
EB5B  EA        NOP                             A:FF X:FF Y:A8 P:27 SP:FB CYC:150  CZI  -  
EB5C  EA        NOP                             A:FF X:FF Y:A8 P:27 SP:FB CYC:156  CZI  -  
EB5D  20 47 FA  JSR $FA47                       A:FF X:FF Y:A8 P:27 SP:FB CYC:162  CZI  -  
FA47  70 1C     BVS $FA65                       A:FF X:FF Y:A8 P:27 SP:F9 CYC:180  CZI  -  
FA49  D0 1A     BNE $FA65                       A:FF X:FF Y:A8 P:27 SP:F9 CYC:186  CZI  -  
FA4B  30 18     BMI $FA65                       A:FF X:FF Y:A8 P:27 SP:F9 CYC:192  CZI  -  
FA4D  90 16     BCC $FA65                       A:FF X:FF Y:A8 P:27 SP:F9 CYC:198  CZI  -  
FA4F  C9 FF     CMP #$FF                        A:FF X:FF Y:A8 P:27 SP:F9 CYC:204  CZI  -  
FA51  D0 12     BNE $FA65                       A:FF X:FF Y:A8 P:27 SP:F9 CYC:210  CZI  -  
FA53  60        RTS                             A:FF X:FF Y:A8 P:27 SP:F9 CYC:216  CZI  -  
EB60  AD 47 06  LDA $0647 = FF                  A:FF X:FF Y:A8 P:27 SP:FB CYC:234  CZI  -  
EB63  C9 FF     CMP #$FF                        A:FF X:FF Y:A8 P:A5 SP:FB CYC:246  C I  - N
EB65  F0 02     BEQ $EB69                       A:FF X:FF Y:A8 P:27 SP:FB CYC:252  CZI  -  
EB69  C8        INY                             A:FF X:FF Y:A8 P:27 SP:FB CYC:261  CZI  -  
EB6A  A9 37     LDA #$37                        A:FF X:FF Y:A9 P:A5 SP:FB CYC:267  C I  - N
EB6C  8D 47 06  STA $0647 = FF                  A:37 X:FF Y:A9 P:25 SP:FB CYC:273  C I  -  
EB6F  20 54 FA  JSR $FA54                       A:37 X:FF Y:A9 P:25 SP:FB CYC:285  C I  -  
FA54  24 01     BIT $01 = FF                    A:37 X:FF Y:A9 P:25 SP:F9 CYC:303  C I  -  
FA56  A9 F0     LDA #$F0                        A:37 X:FF Y:A9 P:E5 SP:F9 CYC:312  C I  -VN
FA58  60        RTS                             A:F0 X:FF Y:A9 P:E5 SP:F9 CYC:318  C I  -VN
EB72  DF 48 05 *DCP $0548,X @ 0647 = 37         A:F0 X:FF Y:A9 P:E5 SP:FB CYC:336  C I  -VN
EB75  EA        NOP                             A:F0 X:FF Y:A9 P:E5 SP:FB CYC: 16  C I  -VN
EB76  EA        NOP                             A:F0 X:FF Y:A9 P:E5 SP:FB CYC: 22  C I  -VN
EB77  EA        NOP                             A:F0 X:FF Y:A9 P:E5 SP:FB CYC: 28  C I  -VN
EB78  EA        NOP                             A:F0 X:FF Y:A9 P:E5 SP:FB CYC: 34  C I  -VN
EB79  20 59 FA  JSR $FA59                       A:F0 X:FF Y:A9 P:E5 SP:FB CYC: 40  C I  -VN
FA59  50 0A     BVC $FA65                       A:F0 X:FF Y:A9 P:E5 SP:F9 CYC: 58  C I  -VN
FA5B  F0 08     BEQ $FA65                       A:F0 X:FF Y:A9 P:E5 SP:F9 CYC: 64  C I  -VN
FA5D  10 06     BPL $FA65                       A:F0 X:FF Y:A9 P:E5 SP:F9 CYC: 70  C I  -VN
FA5F  90 04     BCC $FA65                       A:F0 X:FF Y:A9 P:E5 SP:F9 CYC: 76  C I  -VN
FA61  C9 F0     CMP #$F0                        A:F0 X:FF Y:A9 P:E5 SP:F9 CYC: 82  C I  -VN
FA63  F0 02     BEQ $FA67                       A:F0 X:FF Y:A9 P:67 SP:F9 CYC: 88  CZI  -V 
FA67  60        RTS                             A:F0 X:FF Y:A9 P:67 SP:F9 CYC: 97  CZI  -V 
EB7C  AD 47 06  LDA $0647 = 36                  A:F0 X:FF Y:A9 P:67 SP:FB CYC:115  CZI  -V 
EB7F  C9 36     CMP #$36                        A:36 X:FF Y:A9 P:65 SP:FB CYC:127  C I  -V 
EB81  F0 02     BEQ $EB85                       A:36 X:FF Y:A9 P:67 SP:FB CYC:133  CZI  -V 
EB85  60        RTS                             A:36 X:FF Y:A9 P:67 SP:FB CYC:142  CZI  -V 
C63E  20 86 EB  JSR $EB86                       A:36 X:FF Y:A9 P:67 SP:FD CYC:160  CZI  -V 
EB86  A9 FF     LDA #$FF                        A:36 X:FF Y:A9 P:67 SP:FB CYC:178  CZI  -V 
EB88  85 01     STA $01 = FF                    A:FF X:FF Y:A9 P:E5 SP:FB CYC:184  C I  -VN
EB8A  A0 AA     LDY #$AA                        A:FF X:FF Y:A9 P:E5 SP:FB CYC:193  C I  -VN
EB8C  A2 02     LDX #$02                        A:FF X:FF Y:AA P:E5 SP:FB CYC:199  C I  -VN
EB8E  A9 47     LDA #$47                        A:FF X:02 Y:AA P:65 SP:FB CYC:205  C I  -V 
EB90  85 47     STA $47 = 36                    A:47 X:02 Y:AA P:65 SP:FB CYC:211  C I  -V 
EB92  A9 06     LDA #$06                        A:47 X:02 Y:AA P:65 SP:FB CYC:220  C I  -V 
EB94  85 48     STA $48 = 06                    A:06 X:02 Y:AA P:65 SP:FB CYC:226  C I  -V 
EB96  A9 EB     LDA #$EB                        A:06 X:02 Y:AA P:65 SP:FB CYC:235  C I  -V 
EB98  8D 47 06  STA $0647 = 36                  A:EB X:02 Y:AA P:E5 SP:FB CYC:241  C I  -VN
EB9B  20 B1 FA  JSR $FAB1                       A:EB X:02 Y:AA P:E5 SP:FB CYC:253  C I  -VN
FAB1  24 01     BIT $01 = FF                    A:EB X:02 Y:AA P:E5 SP:F9 CYC:271  C I  -VN
FAB3  18        CLC                             A:EB X:02 Y:AA P:E5 SP:F9 CYC:280  C I  -VN
FAB4  A9 40     LDA #$40                        A:EB X:02 Y:AA P:E4 SP:F9 CYC:286    I  -VN
FAB6  60        RTS                             A:40 X:02 Y:AA P:64 SP:F9 CYC:292    I  -V 
EB9E  E3 45    *ISB ($45,X) @ 47 = 0647 = EB    A:40 X:02 Y:AA P:64 SP:FB CYC:310    I  -V 
EBA0  EA        NOP                             A:53 X:02 Y:AA P:24 SP:FB CYC:334    I  -  
EBA1  EA        NOP                             A:53 X:02 Y:AA P:24 SP:FB CYC:340    I  -  
EBA2  EA        NOP                             A:53 X:02 Y:AA P:24 SP:FB CYC:  5    I  -  
EBA3  EA        NOP                             A:53 X:02 Y:AA P:24 SP:FB CYC: 11    I  -  
EBA4  20 B7 FA  JSR $FAB7                       A:53 X:02 Y:AA P:24 SP:FB CYC: 17    I  -  
FAB7  70 2D     BVS $FAE6                       A:53 X:02 Y:AA P:24 SP:F9 CYC: 35    I  -  
FAB9  B0 2B     BCS $FAE6                       A:53 X:02 Y:AA P:24 SP:F9 CYC: 41    I  -  
FABB  30 29     BMI $FAE6                       A:53 X:02 Y:AA P:24 SP:F9 CYC: 47    I  -  
FABD  C9 53     CMP #$53                        A:53 X:02 Y:AA P:24 SP:F9 CYC: 53    I  -  
FABF  D0 25     BNE $FAE6                       A:53 X:02 Y:AA P:27 SP:F9 CYC: 59  CZI  -  
FAC1  60        RTS                             A:53 X:02 Y:AA P:27 SP:F9 CYC: 65  CZI  -  
EBA7  AD 47 06  LDA $0647 = EC                  A:53 X:02 Y:AA P:27 SP:FB CYC: 83  CZI  -  
EBAA  C9 EC     CMP #$EC                        A:EC X:02 Y:AA P:A5 SP:FB CYC: 95  C I  - N
EBAC  F0 02     BEQ $EBB0                       A:EC X:02 Y:AA P:27 SP:FB CYC:101  CZI  -  
EBB0  C8        INY                             A:EC X:02 Y:AA P:27 SP:FB CYC:110  CZI  -  
EBB1  A9 FF     LDA #$FF                        A:EC X:02 Y:AB P:A5 SP:FB CYC:116  C I  - N
EBB3  8D 47 06  STA $0647 = EC                  A:FF X:02 Y:AB P:A5 SP:FB CYC:122  C I  - N
EBB6  20 C2 FA  JSR $FAC2                       A:FF X:02 Y:AB P:A5 SP:FB CYC:134  C I  - N
FAC2  B8        CLV                             A:FF X:02 Y:AB P:A5 SP:F9 CYC:152  C I  - N
FAC3  38        SEC                             A:FF X:02 Y:AB P:A5 SP:F9 CYC:158  C I  - N
FAC4  A9 FF     LDA #$FF                        A:FF X:02 Y:AB P:A5 SP:F9 CYC:164  C I  - N
FAC6  60        RTS                             A:FF X:02 Y:AB P:A5 SP:F9 CYC:170  C I  - N
EBB9  E3 45    *ISB ($45,X) @ 47 = 0647 = FF    A:FF X:02 Y:AB P:A5 SP:FB CYC:188  C I  - N
EBBB  EA        NOP                             A:FF X:02 Y:AB P:A5 SP:FB CYC:212  C I  - N
EBBC  EA        NOP                             A:FF X:02 Y:AB P:A5 SP:FB CYC:218  C I  - N
EBBD  EA        NOP                             A:FF X:02 Y:AB P:A5 SP:FB CYC:224  C I  - N
EBBE  EA        NOP                             A:FF X:02 Y:AB P:A5 SP:FB CYC:230  C I  - N
EBBF  20 C7 FA  JSR $FAC7                       A:FF X:02 Y:AB P:A5 SP:FB CYC:236  C I  - N
FAC7  70 1D     BVS $FAE6                       A:FF X:02 Y:AB P:A5 SP:F9 CYC:254  C I  - N
FAC9  F0 1B     BEQ $FAE6                       A:FF X:02 Y:AB P:A5 SP:F9 CYC:260  C I  - N
FACB  10 19     BPL $FAE6                       A:FF X:02 Y:AB P:A5 SP:F9 CYC:266  C I  - N
FACD  90 17     BCC $FAE6                       A:FF X:02 Y:AB P:A5 SP:F9 CYC:272  C I  - N
FACF  C9 FF     CMP #$FF                        A:FF X:02 Y:AB P:A5 SP:F9 CYC:278  C I  - N
FAD1  D0 13     BNE $FAE6                       A:FF X:02 Y:AB P:27 SP:F9 CYC:284  CZI  -  
FAD3  60        RTS                             A:FF X:02 Y:AB P:27 SP:F9 CYC:290  CZI  -  
EBC2  AD 47 06  LDA $0647 = 00                  A:FF X:02 Y:AB P:27 SP:FB CYC:308  CZI  -  
EBC5  C9 00     CMP #$00                        A:00 X:02 Y:AB P:27 SP:FB CYC:320  CZI  -  
EBC7  F0 02     BEQ $EBCB                       A:00 X:02 Y:AB P:27 SP:FB CYC:326  CZI  -  
EBCB  C8        INY                             A:00 X:02 Y:AB P:27 SP:FB CYC:335  CZI  -  
EBCC  A9 37     LDA #$37                        A:00 X:02 Y:AC P:A5 SP:FB CYC:  0  C I  - N
EBCE  8D 47 06  STA $0647 = 00                  A:37 X:02 Y:AC P:25 SP:FB CYC:  6  C I  -  
EBD1  20 D4 FA  JSR $FAD4                       A:37 X:02 Y:AC P:25 SP:FB CYC: 18  C I  -  
FAD4  24 01     BIT $01 = FF                    A:37 X:02 Y:AC P:25 SP:F9 CYC: 36  C I  -  
FAD6  38        SEC                             A:37 X:02 Y:AC P:E5 SP:F9 CYC: 45  C I  -VN
FAD7  A9 F0     LDA #$F0                        A:37 X:02 Y:AC P:E5 SP:F9 CYC: 51  C I  -VN
FAD9  60        RTS                             A:F0 X:02 Y:AC P:E5 SP:F9 CYC: 57  C I  -VN
EBD4  E3 45    *ISB ($45,X) @ 47 = 0647 = 37    A:F0 X:02 Y:AC P:E5 SP:FB CYC: 75  C I  -VN
EBD6  EA        NOP                             A:B8 X:02 Y:AC P:A5 SP:FB CYC: 99  C I  - N
EBD7  EA        NOP                             A:B8 X:02 Y:AC P:A5 SP:FB CYC:105  C I  - N
EBD8  EA        NOP                             A:B8 X:02 Y:AC P:A5 SP:FB CYC:111  C I  - N
EBD9  EA        NOP                             A:B8 X:02 Y:AC P:A5 SP:FB CYC:117  C I  - N
EBDA  20 DA FA  JSR $FADA                       A:B8 X:02 Y:AC P:A5 SP:FB CYC:123  C I  - N
FADA  70 0A     BVS $FAE6                       A:B8 X:02 Y:AC P:A5 SP:F9 CYC:141  C I  - N
FADC  F0 08     BEQ $FAE6                       A:B8 X:02 Y:AC P:A5 SP:F9 CYC:147  C I  - N
FADE  10 06     BPL $FAE6                       A:B8 X:02 Y:AC P:A5 SP:F9 CYC:153  C I  - N
FAE0  90 04     BCC $FAE6                       A:B8 X:02 Y:AC P:A5 SP:F9 CYC:159  C I  - N
FAE2  C9 B8     CMP #$B8                        A:B8 X:02 Y:AC P:A5 SP:F9 CYC:165  C I  - N
FAE4  F0 02     BEQ $FAE8                       A:B8 X:02 Y:AC P:27 SP:F9 CYC:171  CZI  -  
FAE8  60        RTS                             A:B8 X:02 Y:AC P:27 SP:F9 CYC:180  CZI  -  
EBDD  AD 47 06  LDA $0647 = 38                  A:B8 X:02 Y:AC P:27 SP:FB CYC:198  CZI  -  
EBE0  C9 38     CMP #$38                        A:38 X:02 Y:AC P:25 SP:FB CYC:210  C I  -  
EBE2  F0 02     BEQ $EBE6                       A:38 X:02 Y:AC P:27 SP:FB CYC:216  CZI  -  
EBE6  C8        INY                             A:38 X:02 Y:AC P:27 SP:FB CYC:225  CZI  -  
EBE7  A9 EB     LDA #$EB                        A:38 X:02 Y:AD P:A5 SP:FB CYC:231  C I  - N
EBE9  85 47     STA $47 = 47                    A:EB X:02 Y:AD P:A5 SP:FB CYC:237  C I  - N
EBEB  20 B1 FA  JSR $FAB1                       A:EB X:02 Y:AD P:A5 SP:FB CYC:246  C I  - N
FAB1  24 01     BIT $01 = FF                    A:EB X:02 Y:AD P:A5 SP:F9 CYC:264  C I  - N
FAB3  18        CLC                             A:EB X:02 Y:AD P:E5 SP:F9 CYC:273  C I  -VN
FAB4  A9 40     LDA #$40                        A:EB X:02 Y:AD P:E4 SP:F9 CYC:279    I  -VN
FAB6  60        RTS                             A:40 X:02 Y:AD P:64 SP:F9 CYC:285    I  -V 
EBEE  E7 47    *ISB $47 = EB                    A:40 X:02 Y:AD P:64 SP:FB CYC:303    I  -V 
EBF0  EA        NOP                             A:53 X:02 Y:AD P:24 SP:FB CYC:318    I  -  
EBF1  EA        NOP                             A:53 X:02 Y:AD P:24 SP:FB CYC:324    I  -  
EBF2  EA        NOP                             A:53 X:02 Y:AD P:24 SP:FB CYC:330    I  -  
EBF3  EA        NOP                             A:53 X:02 Y:AD P:24 SP:FB CYC:336    I  -  
EBF4  20 B7 FA  JSR $FAB7                       A:53 X:02 Y:AD P:24 SP:FB CYC:  1    I  -  
FAB7  70 2D     BVS $FAE6                       A:53 X:02 Y:AD P:24 SP:F9 CYC: 19    I  -  
FAB9  B0 2B     BCS $FAE6                       A:53 X:02 Y:AD P:24 SP:F9 CYC: 25    I  -  
FABB  30 29     BMI $FAE6                       A:53 X:02 Y:AD P:24 SP:F9 CYC: 31    I  -  
FABD  C9 53     CMP #$53                        A:53 X:02 Y:AD P:24 SP:F9 CYC: 37    I  -  
FABF  D0 25     BNE $FAE6                       A:53 X:02 Y:AD P:27 SP:F9 CYC: 43  CZI  -  
FAC1  60        RTS                             A:53 X:02 Y:AD P:27 SP:F9 CYC: 49  CZI  -  
EBF7  A5 47     LDA $47 = EC                    A:53 X:02 Y:AD P:27 SP:FB CYC: 67  CZI  -  
EBF9  C9 EC     CMP #$EC                        A:EC X:02 Y:AD P:A5 SP:FB CYC: 76  C I  - N
EBFB  F0 02     BEQ $EBFF                       A:EC X:02 Y:AD P:27 SP:FB CYC: 82  CZI  -  
EBFF  C8        INY                             A:EC X:02 Y:AD P:27 SP:FB CYC: 91  CZI  -  
EC00  A9 FF     LDA #$FF                        A:EC X:02 Y:AE P:A5 SP:FB CYC: 97  C I  - N
EC02  85 47     STA $47 = EC                    A:FF X:02 Y:AE P:A5 SP:FB CYC:103  C I  - N
EC04  20 C2 FA  JSR $FAC2                       A:FF X:02 Y:AE P:A5 SP:FB CYC:112  C I  - N
FAC2  B8        CLV                             A:FF X:02 Y:AE P:A5 SP:F9 CYC:130  C I  - N
FAC3  38        SEC                             A:FF X:02 Y:AE P:A5 SP:F9 CYC:136  C I  - N
FAC4  A9 FF     LDA #$FF                        A:FF X:02 Y:AE P:A5 SP:F9 CYC:142  C I  - N
FAC6  60        RTS                             A:FF X:02 Y:AE P:A5 SP:F9 CYC:148  C I  - N
EC07  E7 47    *ISB $47 = FF                    A:FF X:02 Y:AE P:A5 SP:FB CYC:166  C I  - N
EC09  EA        NOP                             A:FF X:02 Y:AE P:A5 SP:FB CYC:181  C I  - N
EC0A  EA        NOP                             A:FF X:02 Y:AE P:A5 SP:FB CYC:187  C I  - N
EC0B  EA        NOP                             A:FF X:02 Y:AE P:A5 SP:FB CYC:193  C I  - N
EC0C  EA        NOP                             A:FF X:02 Y:AE P:A5 SP:FB CYC:199  C I  - N
EC0D  20 C7 FA  JSR $FAC7                       A:FF X:02 Y:AE P:A5 SP:FB CYC:205  C I  - N
FAC7  70 1D     BVS $FAE6                       A:FF X:02 Y:AE P:A5 SP:F9 CYC:223  C I  - N
FAC9  F0 1B     BEQ $FAE6                       A:FF X:02 Y:AE P:A5 SP:F9 CYC:229  C I  - N
FACB  10 19     BPL $FAE6                       A:FF X:02 Y:AE P:A5 SP:F9 CYC:235  C I  - N
FACD  90 17     BCC $FAE6                       A:FF X:02 Y:AE P:A5 SP:F9 CYC:241  C I  - N
FACF  C9 FF     CMP #$FF                        A:FF X:02 Y:AE P:A5 SP:F9 CYC:247  C I  - N
FAD1  D0 13     BNE $FAE6                       A:FF X:02 Y:AE P:27 SP:F9 CYC:253  CZI  -  
FAD3  60        RTS                             A:FF X:02 Y:AE P:27 SP:F9 CYC:259  CZI  -  
EC10  A5 47     LDA $47 = 00                    A:FF X:02 Y:AE P:27 SP:FB CYC:277  CZI  -  
EC12  C9 00     CMP #$00                        A:00 X:02 Y:AE P:27 SP:FB CYC:286  CZI  -  
EC14  F0 02     BEQ $EC18                       A:00 X:02 Y:AE P:27 SP:FB CYC:292  CZI  -  
EC18  C8        INY                             A:00 X:02 Y:AE P:27 SP:FB CYC:301  CZI  -  
EC19  A9 37     LDA #$37                        A:00 X:02 Y:AF P:A5 SP:FB CYC:307  C I  - N
EC1B  85 47     STA $47 = 00                    A:37 X:02 Y:AF P:25 SP:FB CYC:313  C I  -  
EC1D  20 D4 FA  JSR $FAD4                       A:37 X:02 Y:AF P:25 SP:FB CYC:322  C I  -  
FAD4  24 01     BIT $01 = FF                    A:37 X:02 Y:AF P:25 SP:F9 CYC:340  C I  -  
FAD6  38        SEC                             A:37 X:02 Y:AF P:E5 SP:F9 CYC:  8  C I  -VN
FAD7  A9 F0     LDA #$F0                        A:37 X:02 Y:AF P:E5 SP:F9 CYC: 14  C I  -VN
FAD9  60        RTS                             A:F0 X:02 Y:AF P:E5 SP:F9 CYC: 20  C I  -VN
EC20  E7 47    *ISB $47 = 37                    A:F0 X:02 Y:AF P:E5 SP:FB CYC: 38  C I  -VN
EC22  EA        NOP                             A:B8 X:02 Y:AF P:A5 SP:FB CYC: 53  C I  - N
EC23  EA        NOP                             A:B8 X:02 Y:AF P:A5 SP:FB CYC: 59  C I  - N
EC24  EA        NOP                             A:B8 X:02 Y:AF P:A5 SP:FB CYC: 65  C I  - N
EC25  EA        NOP                             A:B8 X:02 Y:AF P:A5 SP:FB CYC: 71  C I  - N
EC26  20 DA FA  JSR $FADA                       A:B8 X:02 Y:AF P:A5 SP:FB CYC: 77  C I  - N
FADA  70 0A     BVS $FAE6                       A:B8 X:02 Y:AF P:A5 SP:F9 CYC: 95  C I  - N
FADC  F0 08     BEQ $FAE6                       A:B8 X:02 Y:AF P:A5 SP:F9 CYC:101  C I  - N
FADE  10 06     BPL $FAE6                       A:B8 X:02 Y:AF P:A5 SP:F9 CYC:107  C I  - N
FAE0  90 04     BCC $FAE6                       A:B8 X:02 Y:AF P:A5 SP:F9 CYC:113  C I  - N
FAE2  C9 B8     CMP #$B8                        A:B8 X:02 Y:AF P:A5 SP:F9 CYC:119  C I  - N
FAE4  F0 02     BEQ $FAE8                       A:B8 X:02 Y:AF P:27 SP:F9 CYC:125  CZI  -  
FAE8  60        RTS                             A:B8 X:02 Y:AF P:27 SP:F9 CYC:134  CZI  -  
EC29  A5 47     LDA $47 = 38                    A:B8 X:02 Y:AF P:27 SP:FB CYC:152  CZI  -  
EC2B  C9 38     CMP #$38                        A:38 X:02 Y:AF P:25 SP:FB CYC:161  C I  -  
EC2D  F0 02     BEQ $EC31                       A:38 X:02 Y:AF P:27 SP:FB CYC:167  CZI  -  
EC31  C8        INY                             A:38 X:02 Y:AF P:27 SP:FB CYC:176  CZI  -  
EC32  A9 EB     LDA #$EB                        A:38 X:02 Y:B0 P:A5 SP:FB CYC:182  C I  - N
EC34  8D 47 06  STA $0647 = 38                  A:EB X:02 Y:B0 P:A5 SP:FB CYC:188  C I  - N
EC37  20 B1 FA  JSR $FAB1                       A:EB X:02 Y:B0 P:A5 SP:FB CYC:200  C I  - N
FAB1  24 01     BIT $01 = FF                    A:EB X:02 Y:B0 P:A5 SP:F9 CYC:218  C I  - N
FAB3  18        CLC                             A:EB X:02 Y:B0 P:E5 SP:F9 CYC:227  C I  -VN
FAB4  A9 40     LDA #$40                        A:EB X:02 Y:B0 P:E4 SP:F9 CYC:233    I  -VN
FAB6  60        RTS                             A:40 X:02 Y:B0 P:64 SP:F9 CYC:239    I  -V 
EC3A  EF 47 06 *ISB $0647 = EB                  A:40 X:02 Y:B0 P:64 SP:FB CYC:257    I  -V 
EC3D  EA        NOP                             A:53 X:02 Y:B0 P:24 SP:FB CYC:275    I  -  
EC3E  EA        NOP                             A:53 X:02 Y:B0 P:24 SP:FB CYC:281    I  -  
EC3F  EA        NOP                             A:53 X:02 Y:B0 P:24 SP:FB CYC:287    I  -  
EC40  EA        NOP                             A:53 X:02 Y:B0 P:24 SP:FB CYC:293    I  -  
EC41  20 B7 FA  JSR $FAB7                       A:53 X:02 Y:B0 P:24 SP:FB CYC:299    I  -  
FAB7  70 2D     BVS $FAE6                       A:53 X:02 Y:B0 P:24 SP:F9 CYC:317    I  -  
FAB9  B0 2B     BCS $FAE6                       A:53 X:02 Y:B0 P:24 SP:F9 CYC:323    I  -  
FABB  30 29     BMI $FAE6                       A:53 X:02 Y:B0 P:24 SP:F9 CYC:329    I  -  
FABD  C9 53     CMP #$53                        A:53 X:02 Y:B0 P:24 SP:F9 CYC:335    I  -  
FABF  D0 25     BNE $FAE6                       A:53 X:02 Y:B0 P:27 SP:F9 CYC:  0  CZI  -  
FAC1  60        RTS                             A:53 X:02 Y:B0 P:27 SP:F9 CYC:  6  CZI  -  
EC44  AD 47 06  LDA $0647 = EC                  A:53 X:02 Y:B0 P:27 SP:FB CYC: 24  CZI  -  
EC47  C9 EC     CMP #$EC                        A:EC X:02 Y:B0 P:A5 SP:FB CYC: 36  C I  - N
EC49  F0 02     BEQ $EC4D                       A:EC X:02 Y:B0 P:27 SP:FB CYC: 42  CZI  -  
EC4D  C8        INY                             A:EC X:02 Y:B0 P:27 SP:FB CYC: 51  CZI  -  
EC4E  A9 FF     LDA #$FF                        A:EC X:02 Y:B1 P:A5 SP:FB CYC: 57  C I  - N
EC50  8D 47 06  STA $0647 = EC                  A:FF X:02 Y:B1 P:A5 SP:FB CYC: 63  C I  - N
EC53  20 C2 FA  JSR $FAC2                       A:FF X:02 Y:B1 P:A5 SP:FB CYC: 75  C I  - N
FAC2  B8        CLV                             A:FF X:02 Y:B1 P:A5 SP:F9 CYC: 93  C I  - N
FAC3  38        SEC                             A:FF X:02 Y:B1 P:A5 SP:F9 CYC: 99  C I  - N
FAC4  A9 FF     LDA #$FF                        A:FF X:02 Y:B1 P:A5 SP:F9 CYC:105  C I  - N
FAC6  60        RTS                             A:FF X:02 Y:B1 P:A5 SP:F9 CYC:111  C I  - N
EC56  EF 47 06 *ISB $0647 = FF                  A:FF X:02 Y:B1 P:A5 SP:FB CYC:129  C I  - N
EC59  EA        NOP                             A:FF X:02 Y:B1 P:A5 SP:FB CYC:147  C I  - N
EC5A  EA        NOP                             A:FF X:02 Y:B1 P:A5 SP:FB CYC:153  C I  - N
EC5B  EA        NOP                             A:FF X:02 Y:B1 P:A5 SP:FB CYC:159  C I  - N
EC5C  EA        NOP                             A:FF X:02 Y:B1 P:A5 SP:FB CYC:165  C I  - N
EC5D  20 C7 FA  JSR $FAC7                       A:FF X:02 Y:B1 P:A5 SP:FB CYC:171  C I  - N
FAC7  70 1D     BVS $FAE6                       A:FF X:02 Y:B1 P:A5 SP:F9 CYC:189  C I  - N
FAC9  F0 1B     BEQ $FAE6                       A:FF X:02 Y:B1 P:A5 SP:F9 CYC:195  C I  - N
FACB  10 19     BPL $FAE6                       A:FF X:02 Y:B1 P:A5 SP:F9 CYC:201  C I  - N
FACD  90 17     BCC $FAE6                       A:FF X:02 Y:B1 P:A5 SP:F9 CYC:207  C I  - N
FACF  C9 FF     CMP #$FF                        A:FF X:02 Y:B1 P:A5 SP:F9 CYC:213  C I  - N
FAD1  D0 13     BNE $FAE6                       A:FF X:02 Y:B1 P:27 SP:F9 CYC:219  CZI  -  
FAD3  60        RTS                             A:FF X:02 Y:B1 P:27 SP:F9 CYC:225  CZI  -  
EC60  AD 47 06  LDA $0647 = 00                  A:FF X:02 Y:B1 P:27 SP:FB CYC:243  CZI  -  
EC63  C9 00     CMP #$00                        A:00 X:02 Y:B1 P:27 SP:FB CYC:255  CZI  -  
EC65  F0 02     BEQ $EC69                       A:00 X:02 Y:B1 P:27 SP:FB CYC:261  CZI  -  
EC69  C8        INY                             A:00 X:02 Y:B1 P:27 SP:FB CYC:270  CZI  -  
EC6A  A9 37     LDA #$37                        A:00 X:02 Y:B2 P:A5 SP:FB CYC:276  C I  - N
EC6C  8D 47 06  STA $0647 = 00                  A:37 X:02 Y:B2 P:25 SP:FB CYC:282  C I  -  
EC6F  20 D4 FA  JSR $FAD4                       A:37 X:02 Y:B2 P:25 SP:FB CYC:294  C I  -  
FAD4  24 01     BIT $01 = FF                    A:37 X:02 Y:B2 P:25 SP:F9 CYC:312  C I  -  
FAD6  38        SEC                             A:37 X:02 Y:B2 P:E5 SP:F9 CYC:321  C I  -VN
FAD7  A9 F0     LDA #$F0                        A:37 X:02 Y:B2 P:E5 SP:F9 CYC:327  C I  -VN
FAD9  60        RTS                             A:F0 X:02 Y:B2 P:E5 SP:F9 CYC:333  C I  -VN
EC72  EF 47 06 *ISB $0647 = 37                  A:F0 X:02 Y:B2 P:E5 SP:FB CYC: 10  C I  -VN
EC75  EA        NOP                             A:B8 X:02 Y:B2 P:A5 SP:FB CYC: 28  C I  - N
EC76  EA        NOP                             A:B8 X:02 Y:B2 P:A5 SP:FB CYC: 34  C I  - N
EC77  EA        NOP                             A:B8 X:02 Y:B2 P:A5 SP:FB CYC: 40  C I  - N
EC78  EA        NOP                             A:B8 X:02 Y:B2 P:A5 SP:FB CYC: 46  C I  - N
EC79  20 DA FA  JSR $FADA                       A:B8 X:02 Y:B2 P:A5 SP:FB CYC: 52  C I  - N
FADA  70 0A     BVS $FAE6                       A:B8 X:02 Y:B2 P:A5 SP:F9 CYC: 70  C I  - N
FADC  F0 08     BEQ $FAE6                       A:B8 X:02 Y:B2 P:A5 SP:F9 CYC: 76  C I  - N
FADE  10 06     BPL $FAE6                       A:B8 X:02 Y:B2 P:A5 SP:F9 CYC: 82  C I  - N
FAE0  90 04     BCC $FAE6                       A:B8 X:02 Y:B2 P:A5 SP:F9 CYC: 88  C I  - N
FAE2  C9 B8     CMP #$B8                        A:B8 X:02 Y:B2 P:A5 SP:F9 CYC: 94  C I  - N
FAE4  F0 02     BEQ $FAE8                       A:B8 X:02 Y:B2 P:27 SP:F9 CYC:100  CZI  -  
FAE8  60        RTS                             A:B8 X:02 Y:B2 P:27 SP:F9 CYC:109  CZI  -  
EC7C  AD 47 06  LDA $0647 = 38                  A:B8 X:02 Y:B2 P:27 SP:FB CYC:127  CZI  -  
EC7F  C9 38     CMP #$38                        A:38 X:02 Y:B2 P:25 SP:FB CYC:139  C I  -  
EC81  F0 02     BEQ $EC85                       A:38 X:02 Y:B2 P:27 SP:FB CYC:145  CZI  -  
EC85  A9 EB     LDA #$EB                        A:38 X:02 Y:B2 P:27 SP:FB CYC:154  CZI  -  
EC87  8D 47 06  STA $0647 = 38                  A:EB X:02 Y:B2 P:A5 SP:FB CYC:160  C I  - N
EC8A  A9 48     LDA #$48                        A:EB X:02 Y:B2 P:A5 SP:FB CYC:172  C I  - N
EC8C  85 45     STA $45 = 48                    A:48 X:02 Y:B2 P:25 SP:FB CYC:178  C I  -  
EC8E  A9 05     LDA #$05                        A:48 X:02 Y:B2 P:25 SP:FB CYC:187  C I  -  
EC90  85 46     STA $46 = 05                    A:05 X:02 Y:B2 P:25 SP:FB CYC:193  C I  -  
EC92  A0 FF     LDY #$FF                        A:05 X:02 Y:B2 P:25 SP:FB CYC:202  C I  -  
EC94  20 B1 FA  JSR $FAB1                       A:05 X:02 Y:FF P:A5 SP:FB CYC:208  C I  - N
FAB1  24 01     BIT $01 = FF                    A:05 X:02 Y:FF P:A5 SP:F9 CYC:226  C I  - N
FAB3  18        CLC                             A:05 X:02 Y:FF P:E5 SP:F9 CYC:235  C I  -VN
FAB4  A9 40     LDA #$40                        A:05 X:02 Y:FF P:E4 SP:F9 CYC:241    I  -VN
FAB6  60        RTS                             A:40 X:02 Y:FF P:64 SP:F9 CYC:247    I  -V 
EC97  F3 45    *ISB ($45),Y = 0548 @ 0647 = EB  A:40 X:02 Y:FF P:64 SP:FB CYC:265    I  -V 
EC99  EA        NOP                             A:53 X:02 Y:FF P:24 SP:FB CYC:289    I  -  
EC9A  EA        NOP                             A:53 X:02 Y:FF P:24 SP:FB CYC:295    I  -  
EC9B  08        PHP                             A:53 X:02 Y:FF P:24 SP:FB CYC:301    I  -  
EC9C  48        PHA                             A:53 X:02 Y:FF P:24 SP:FA CYC:310    I  -  
EC9D  A0 B3     LDY #$B3                        A:53 X:02 Y:FF P:24 SP:F9 CYC:319    I  -  
EC9F  68        PLA                             A:53 X:02 Y:B3 P:A4 SP:F9 CYC:325    I  - N
ECA0  28        PLP                             A:53 X:02 Y:B3 P:24 SP:FA CYC:337    I  -  
ECA1  20 B7 FA  JSR $FAB7                       A:53 X:02 Y:B3 P:24 SP:FB CYC:  8    I  -  
FAB7  70 2D     BVS $FAE6                       A:53 X:02 Y:B3 P:24 SP:F9 CYC: 26    I  -  
FAB9  B0 2B     BCS $FAE6                       A:53 X:02 Y:B3 P:24 SP:F9 CYC: 32    I  -  
FABB  30 29     BMI $FAE6                       A:53 X:02 Y:B3 P:24 SP:F9 CYC: 38    I  -  
FABD  C9 53     CMP #$53                        A:53 X:02 Y:B3 P:24 SP:F9 CYC: 44    I  -  
FABF  D0 25     BNE $FAE6                       A:53 X:02 Y:B3 P:27 SP:F9 CYC: 50  CZI  -  
FAC1  60        RTS                             A:53 X:02 Y:B3 P:27 SP:F9 CYC: 56  CZI  -  
ECA4  AD 47 06  LDA $0647 = EC                  A:53 X:02 Y:B3 P:27 SP:FB CYC: 74  CZI  -  
ECA7  C9 EC     CMP #$EC                        A:EC X:02 Y:B3 P:A5 SP:FB CYC: 86  C I  - N
ECA9  F0 02     BEQ $ECAD                       A:EC X:02 Y:B3 P:27 SP:FB CYC: 92  CZI  -  
ECAD  A0 FF     LDY #$FF                        A:EC X:02 Y:B3 P:27 SP:FB CYC:101  CZI  -  
ECAF  A9 FF     LDA #$FF                        A:EC X:02 Y:FF P:A5 SP:FB CYC:107  C I  - N
ECB1  8D 47 06  STA $0647 = EC                  A:FF X:02 Y:FF P:A5 SP:FB CYC:113  C I  - N
ECB4  20 C2 FA  JSR $FAC2                       A:FF X:02 Y:FF P:A5 SP:FB CYC:125  C I  - N
FAC2  B8        CLV                             A:FF X:02 Y:FF P:A5 SP:F9 CYC:143  C I  - N
FAC3  38        SEC                             A:FF X:02 Y:FF P:A5 SP:F9 CYC:149  C I  - N
FAC4  A9 FF     LDA #$FF                        A:FF X:02 Y:FF P:A5 SP:F9 CYC:155  C I  - N
FAC6  60        RTS                             A:FF X:02 Y:FF P:A5 SP:F9 CYC:161  C I  - N
ECB7  F3 45    *ISB ($45),Y = 0548 @ 0647 = FF  A:FF X:02 Y:FF P:A5 SP:FB CYC:179  C I  - N
ECB9  EA        NOP                             A:FF X:02 Y:FF P:A5 SP:FB CYC:203  C I  - N
ECBA  EA        NOP                             A:FF X:02 Y:FF P:A5 SP:FB CYC:209  C I  - N
ECBB  08        PHP                             A:FF X:02 Y:FF P:A5 SP:FB CYC:215  C I  - N
ECBC  48        PHA                             A:FF X:02 Y:FF P:A5 SP:FA CYC:224  C I  - N
ECBD  A0 B4     LDY #$B4                        A:FF X:02 Y:FF P:A5 SP:F9 CYC:233  C I  - N
ECBF  68        PLA                             A:FF X:02 Y:B4 P:A5 SP:F9 CYC:239  C I  - N
ECC0  28        PLP                             A:FF X:02 Y:B4 P:A5 SP:FA CYC:251  C I  - N
ECC1  20 C7 FA  JSR $FAC7                       A:FF X:02 Y:B4 P:A5 SP:FB CYC:263  C I  - N
FAC7  70 1D     BVS $FAE6                       A:FF X:02 Y:B4 P:A5 SP:F9 CYC:281  C I  - N
FAC9  F0 1B     BEQ $FAE6                       A:FF X:02 Y:B4 P:A5 SP:F9 CYC:287  C I  - N
FACB  10 19     BPL $FAE6                       A:FF X:02 Y:B4 P:A5 SP:F9 CYC:293  C I  - N
FACD  90 17     BCC $FAE6                       A:FF X:02 Y:B4 P:A5 SP:F9 CYC:299  C I  - N
FACF  C9 FF     CMP #$FF                        A:FF X:02 Y:B4 P:A5 SP:F9 CYC:305  C I  - N
FAD1  D0 13     BNE $FAE6                       A:FF X:02 Y:B4 P:27 SP:F9 CYC:311  CZI  -  
FAD3  60        RTS                             A:FF X:02 Y:B4 P:27 SP:F9 CYC:317  CZI  -  
ECC4  AD 47 06  LDA $0647 = 00                  A:FF X:02 Y:B4 P:27 SP:FB CYC:335  CZI  -  
ECC7  C9 00     CMP #$00                        A:00 X:02 Y:B4 P:27 SP:FB CYC:  6  CZI  -  
ECC9  F0 02     BEQ $ECCD                       A:00 X:02 Y:B4 P:27 SP:FB CYC: 12  CZI  -  
ECCD  A0 FF     LDY #$FF                        A:00 X:02 Y:B4 P:27 SP:FB CYC: 21  CZI  -  
ECCF  A9 37     LDA #$37                        A:00 X:02 Y:FF P:A5 SP:FB CYC: 27  C I  - N
ECD1  8D 47 06  STA $0647 = 00                  A:37 X:02 Y:FF P:25 SP:FB CYC: 33  C I  -  
ECD4  20 D4 FA  JSR $FAD4                       A:37 X:02 Y:FF P:25 SP:FB CYC: 45  C I  -  
FAD4  24 01     BIT $01 = FF                    A:37 X:02 Y:FF P:25 SP:F9 CYC: 63  C I  -  
FAD6  38        SEC                             A:37 X:02 Y:FF P:E5 SP:F9 CYC: 72  C I  -VN
FAD7  A9 F0     LDA #$F0                        A:37 X:02 Y:FF P:E5 SP:F9 CYC: 78  C I  -VN
FAD9  60        RTS                             A:F0 X:02 Y:FF P:E5 SP:F9 CYC: 84  C I  -VN
ECD7  F3 45    *ISB ($45),Y = 0548 @ 0647 = 37  A:F0 X:02 Y:FF P:E5 SP:FB CYC:102  C I  -VN
ECD9  EA        NOP                             A:B8 X:02 Y:FF P:A5 SP:FB CYC:126  C I  - N
ECDA  EA        NOP                             A:B8 X:02 Y:FF P:A5 SP:FB CYC:132  C I  - N
ECDB  08        PHP                             A:B8 X:02 Y:FF P:A5 SP:FB CYC:138  C I  - N
ECDC  48        PHA                             A:B8 X:02 Y:FF P:A5 SP:FA CYC:147  C I  - N
ECDD  A0 B5     LDY #$B5                        A:B8 X:02 Y:FF P:A5 SP:F9 CYC:156  C I  - N
ECDF  68        PLA                             A:B8 X:02 Y:B5 P:A5 SP:F9 CYC:162  C I  - N
ECE0  28        PLP                             A:B8 X:02 Y:B5 P:A5 SP:FA CYC:174  C I  - N
ECE1  20 DA FA  JSR $FADA                       A:B8 X:02 Y:B5 P:A5 SP:FB CYC:186  C I  - N
FADA  70 0A     BVS $FAE6                       A:B8 X:02 Y:B5 P:A5 SP:F9 CYC:204  C I  - N
FADC  F0 08     BEQ $FAE6                       A:B8 X:02 Y:B5 P:A5 SP:F9 CYC:210  C I  - N
FADE  10 06     BPL $FAE6                       A:B8 X:02 Y:B5 P:A5 SP:F9 CYC:216  C I  - N
FAE0  90 04     BCC $FAE6                       A:B8 X:02 Y:B5 P:A5 SP:F9 CYC:222  C I  - N
FAE2  C9 B8     CMP #$B8                        A:B8 X:02 Y:B5 P:A5 SP:F9 CYC:228  C I  - N
FAE4  F0 02     BEQ $FAE8                       A:B8 X:02 Y:B5 P:27 SP:F9 CYC:234  CZI  -  
FAE8  60        RTS                             A:B8 X:02 Y:B5 P:27 SP:F9 CYC:243  CZI  -  
ECE4  AD 47 06  LDA $0647 = 38                  A:B8 X:02 Y:B5 P:27 SP:FB CYC:261  CZI  -  
ECE7  C9 38     CMP #$38                        A:38 X:02 Y:B5 P:25 SP:FB CYC:273  C I  -  
ECE9  F0 02     BEQ $ECED                       A:38 X:02 Y:B5 P:27 SP:FB CYC:279  CZI  -  
ECED  A0 B6     LDY #$B6                        A:38 X:02 Y:B5 P:27 SP:FB CYC:288  CZI  -  
ECEF  A2 FF     LDX #$FF                        A:38 X:02 Y:B6 P:A5 SP:FB CYC:294  C I  - N
ECF1  A9 EB     LDA #$EB                        A:38 X:FF Y:B6 P:A5 SP:FB CYC:300  C I  - N
ECF3  85 47     STA $47 = 38                    A:EB X:FF Y:B6 P:A5 SP:FB CYC:306  C I  - N
ECF5  20 B1 FA  JSR $FAB1                       A:EB X:FF Y:B6 P:A5 SP:FB CYC:315  C I  - N
FAB1  24 01     BIT $01 = FF                    A:EB X:FF Y:B6 P:A5 SP:F9 CYC:333  C I  - N
FAB3  18        CLC                             A:EB X:FF Y:B6 P:E5 SP:F9 CYC:  1  C I  -VN
FAB4  A9 40     LDA #$40                        A:EB X:FF Y:B6 P:E4 SP:F9 CYC:  7    I  -VN
FAB6  60        RTS                             A:40 X:FF Y:B6 P:64 SP:F9 CYC: 13    I  -V 
ECF8  F7 48    *ISB $48,X @ 47 = EB             A:40 X:FF Y:B6 P:64 SP:FB CYC: 31    I  -V 
ECFA  EA        NOP                             A:53 X:FF Y:B6 P:24 SP:FB CYC: 49    I  -  
ECFB  EA        NOP                             A:53 X:FF Y:B6 P:24 SP:FB CYC: 55    I  -  
ECFC  EA        NOP                             A:53 X:FF Y:B6 P:24 SP:FB CYC: 61    I  -  
ECFD  EA        NOP                             A:53 X:FF Y:B6 P:24 SP:FB CYC: 67    I  -  
ECFE  20 B7 FA  JSR $FAB7                       A:53 X:FF Y:B6 P:24 SP:FB CYC: 73    I  -  
FAB7  70 2D     BVS $FAE6                       A:53 X:FF Y:B6 P:24 SP:F9 CYC: 91    I  -  
FAB9  B0 2B     BCS $FAE6                       A:53 X:FF Y:B6 P:24 SP:F9 CYC: 97    I  -  
FABB  30 29     BMI $FAE6                       A:53 X:FF Y:B6 P:24 SP:F9 CYC:103    I  -  
FABD  C9 53     CMP #$53                        A:53 X:FF Y:B6 P:24 SP:F9 CYC:109    I  -  
FABF  D0 25     BNE $FAE6                       A:53 X:FF Y:B6 P:27 SP:F9 CYC:115  CZI  -  
FAC1  60        RTS                             A:53 X:FF Y:B6 P:27 SP:F9 CYC:121  CZI  -  
ED01  A5 47     LDA $47 = EC                    A:53 X:FF Y:B6 P:27 SP:FB CYC:139  CZI  -  
ED03  C9 EC     CMP #$EC                        A:EC X:FF Y:B6 P:A5 SP:FB CYC:148  C I  - N
ED05  F0 02     BEQ $ED09                       A:EC X:FF Y:B6 P:27 SP:FB CYC:154  CZI  -  
ED09  C8        INY                             A:EC X:FF Y:B6 P:27 SP:FB CYC:163  CZI  -  
ED0A  A9 FF     LDA #$FF                        A:EC X:FF Y:B7 P:A5 SP:FB CYC:169  C I  - N
ED0C  85 47     STA $47 = EC                    A:FF X:FF Y:B7 P:A5 SP:FB CYC:175  C I  - N
ED0E  20 C2 FA  JSR $FAC2                       A:FF X:FF Y:B7 P:A5 SP:FB CYC:184  C I  - N
FAC2  B8        CLV                             A:FF X:FF Y:B7 P:A5 SP:F9 CYC:202  C I  - N
FAC3  38        SEC                             A:FF X:FF Y:B7 P:A5 SP:F9 CYC:208  C I  - N
FAC4  A9 FF     LDA #$FF                        A:FF X:FF Y:B7 P:A5 SP:F9 CYC:214  C I  - N
FAC6  60        RTS                             A:FF X:FF Y:B7 P:A5 SP:F9 CYC:220  C I  - N
ED11  F7 48    *ISB $48,X @ 47 = FF             A:FF X:FF Y:B7 P:A5 SP:FB CYC:238  C I  - N
ED13  EA        NOP                             A:FF X:FF Y:B7 P:A5 SP:FB CYC:256  C I  - N
ED14  EA        NOP                             A:FF X:FF Y:B7 P:A5 SP:FB CYC:262  C I  - N
ED15  EA        NOP                             A:FF X:FF Y:B7 P:A5 SP:FB CYC:268  C I  - N
ED16  EA        NOP                             A:FF X:FF Y:B7 P:A5 SP:FB CYC:274  C I  - N
ED17  20 C7 FA  JSR $FAC7                       A:FF X:FF Y:B7 P:A5 SP:FB CYC:280  C I  - N
FAC7  70 1D     BVS $FAE6                       A:FF X:FF Y:B7 P:A5 SP:F9 CYC:298  C I  - N
FAC9  F0 1B     BEQ $FAE6                       A:FF X:FF Y:B7 P:A5 SP:F9 CYC:304  C I  - N
FACB  10 19     BPL $FAE6                       A:FF X:FF Y:B7 P:A5 SP:F9 CYC:310  C I  - N
FACD  90 17     BCC $FAE6                       A:FF X:FF Y:B7 P:A5 SP:F9 CYC:316  C I  - N
FACF  C9 FF     CMP #$FF                        A:FF X:FF Y:B7 P:A5 SP:F9 CYC:322  C I  - N
FAD1  D0 13     BNE $FAE6                       A:FF X:FF Y:B7 P:27 SP:F9 CYC:328  CZI  -  
FAD3  60        RTS                             A:FF X:FF Y:B7 P:27 SP:F9 CYC:334  CZI  -  
ED1A  A5 47     LDA $47 = 00                    A:FF X:FF Y:B7 P:27 SP:FB CYC: 11  CZI  -  
ED1C  C9 00     CMP #$00                        A:00 X:FF Y:B7 P:27 SP:FB CYC: 20  CZI  -  
ED1E  F0 02     BEQ $ED22                       A:00 X:FF Y:B7 P:27 SP:FB CYC: 26  CZI  -  
ED22  C8        INY                             A:00 X:FF Y:B7 P:27 SP:FB CYC: 35  CZI  -  
ED23  A9 37     LDA #$37                        A:00 X:FF Y:B8 P:A5 SP:FB CYC: 41  C I  - N
ED25  85 47     STA $47 = 00                    A:37 X:FF Y:B8 P:25 SP:FB CYC: 47  C I  -  
ED27  20 D4 FA  JSR $FAD4                       A:37 X:FF Y:B8 P:25 SP:FB CYC: 56  C I  -  
FAD4  24 01     BIT $01 = FF                    A:37 X:FF Y:B8 P:25 SP:F9 CYC: 74  C I  -  
FAD6  38        SEC                             A:37 X:FF Y:B8 P:E5 SP:F9 CYC: 83  C I  -VN
FAD7  A9 F0     LDA #$F0                        A:37 X:FF Y:B8 P:E5 SP:F9 CYC: 89  C I  -VN
FAD9  60        RTS                             A:F0 X:FF Y:B8 P:E5 SP:F9 CYC: 95  C I  -VN
ED2A  F7 48    *ISB $48,X @ 47 = 37             A:F0 X:FF Y:B8 P:E5 SP:FB CYC:113  C I  -VN
ED2C  EA        NOP                             A:B8 X:FF Y:B8 P:A5 SP:FB CYC:131  C I  - N
ED2D  EA        NOP                             A:B8 X:FF Y:B8 P:A5 SP:FB CYC:137  C I  - N
ED2E  EA        NOP                             A:B8 X:FF Y:B8 P:A5 SP:FB CYC:143  C I  - N
ED2F  EA        NOP                             A:B8 X:FF Y:B8 P:A5 SP:FB CYC:149  C I  - N
ED30  20 DA FA  JSR $FADA                       A:B8 X:FF Y:B8 P:A5 SP:FB CYC:155  C I  - N
FADA  70 0A     BVS $FAE6                       A:B8 X:FF Y:B8 P:A5 SP:F9 CYC:173  C I  - N
FADC  F0 08     BEQ $FAE6                       A:B8 X:FF Y:B8 P:A5 SP:F9 CYC:179  C I  - N
FADE  10 06     BPL $FAE6                       A:B8 X:FF Y:B8 P:A5 SP:F9 CYC:185  C I  - N
FAE0  90 04     BCC $FAE6                       A:B8 X:FF Y:B8 P:A5 SP:F9 CYC:191  C I  - N
FAE2  C9 B8     CMP #$B8                        A:B8 X:FF Y:B8 P:A5 SP:F9 CYC:197  C I  - N
FAE4  F0 02     BEQ $FAE8                       A:B8 X:FF Y:B8 P:27 SP:F9 CYC:203  CZI  -  
FAE8  60        RTS                             A:B8 X:FF Y:B8 P:27 SP:F9 CYC:212  CZI  -  
ED33  A5 47     LDA $47 = 38                    A:B8 X:FF Y:B8 P:27 SP:FB CYC:230  CZI  -  
ED35  C9 38     CMP #$38                        A:38 X:FF Y:B8 P:25 SP:FB CYC:239  C I  -  
ED37  F0 02     BEQ $ED3B                       A:38 X:FF Y:B8 P:27 SP:FB CYC:245  CZI  -  
ED3B  A9 EB     LDA #$EB                        A:38 X:FF Y:B8 P:27 SP:FB CYC:254  CZI  -  
ED3D  8D 47 06  STA $0647 = 38                  A:EB X:FF Y:B8 P:A5 SP:FB CYC:260  C I  - N
ED40  A0 FF     LDY #$FF                        A:EB X:FF Y:B8 P:A5 SP:FB CYC:272  C I  - N
ED42  20 B1 FA  JSR $FAB1                       A:EB X:FF Y:FF P:A5 SP:FB CYC:278  C I  - N
FAB1  24 01     BIT $01 = FF                    A:EB X:FF Y:FF P:A5 SP:F9 CYC:296  C I  - N
FAB3  18        CLC                             A:EB X:FF Y:FF P:E5 SP:F9 CYC:305  C I  -VN
FAB4  A9 40     LDA #$40                        A:EB X:FF Y:FF P:E4 SP:F9 CYC:311    I  -VN
FAB6  60        RTS                             A:40 X:FF Y:FF P:64 SP:F9 CYC:317    I  -V 
ED45  FB 48 05 *ISB $0548,Y @ 0647 = EB         A:40 X:FF Y:FF P:64 SP:FB CYC:335    I  -V 
ED48  EA        NOP                             A:53 X:FF Y:FF P:24 SP:FB CYC: 15    I  -  
ED49  EA        NOP                             A:53 X:FF Y:FF P:24 SP:FB CYC: 21    I  -  
ED4A  08        PHP                             A:53 X:FF Y:FF P:24 SP:FB CYC: 27    I  -  
ED4B  48        PHA                             A:53 X:FF Y:FF P:24 SP:FA CYC: 36    I  -  
ED4C  A0 B9     LDY #$B9                        A:53 X:FF Y:FF P:24 SP:F9 CYC: 45    I  -  
ED4E  68        PLA                             A:53 X:FF Y:B9 P:A4 SP:F9 CYC: 51    I  - N
ED4F  28        PLP                             A:53 X:FF Y:B9 P:24 SP:FA CYC: 63    I  -  
ED50  20 B7 FA  JSR $FAB7                       A:53 X:FF Y:B9 P:24 SP:FB CYC: 75    I  -  
FAB7  70 2D     BVS $FAE6                       A:53 X:FF Y:B9 P:24 SP:F9 CYC: 93    I  -  
FAB9  B0 2B     BCS $FAE6                       A:53 X:FF Y:B9 P:24 SP:F9 CYC: 99    I  -  
FABB  30 29     BMI $FAE6                       A:53 X:FF Y:B9 P:24 SP:F9 CYC:105    I  -  
FABD  C9 53     CMP #$53                        A:53 X:FF Y:B9 P:24 SP:F9 CYC:111    I  -  
FABF  D0 25     BNE $FAE6                       A:53 X:FF Y:B9 P:27 SP:F9 CYC:117  CZI  -  
FAC1  60        RTS                             A:53 X:FF Y:B9 P:27 SP:F9 CYC:123  CZI  -  
ED53  AD 47 06  LDA $0647 = EC                  A:53 X:FF Y:B9 P:27 SP:FB CYC:141  CZI  -  
ED56  C9 EC     CMP #$EC                        A:EC X:FF Y:B9 P:A5 SP:FB CYC:153  C I  - N
ED58  F0 02     BEQ $ED5C                       A:EC X:FF Y:B9 P:27 SP:FB CYC:159  CZI  -  
ED5C  A0 FF     LDY #$FF                        A:EC X:FF Y:B9 P:27 SP:FB CYC:168  CZI  -  
ED5E  A9 FF     LDA #$FF                        A:EC X:FF Y:FF P:A5 SP:FB CYC:174  C I  - N
ED60  8D 47 06  STA $0647 = EC                  A:FF X:FF Y:FF P:A5 SP:FB CYC:180  C I  - N
ED63  20 C2 FA  JSR $FAC2                       A:FF X:FF Y:FF P:A5 SP:FB CYC:192  C I  - N
FAC2  B8        CLV                             A:FF X:FF Y:FF P:A5 SP:F9 CYC:210  C I  - N
FAC3  38        SEC                             A:FF X:FF Y:FF P:A5 SP:F9 CYC:216  C I  - N
FAC4  A9 FF     LDA #$FF                        A:FF X:FF Y:FF P:A5 SP:F9 CYC:222  C I  - N
FAC6  60        RTS                             A:FF X:FF Y:FF P:A5 SP:F9 CYC:228  C I  - N
ED66  FB 48 05 *ISB $0548,Y @ 0647 = FF         A:FF X:FF Y:FF P:A5 SP:FB CYC:246  C I  - N
ED69  EA        NOP                             A:FF X:FF Y:FF P:A5 SP:FB CYC:267  C I  - N
ED6A  EA        NOP                             A:FF X:FF Y:FF P:A5 SP:FB CYC:273  C I  - N
ED6B  08        PHP                             A:FF X:FF Y:FF P:A5 SP:FB CYC:279  C I  - N
ED6C  48        PHA                             A:FF X:FF Y:FF P:A5 SP:FA CYC:288  C I  - N
ED6D  A0 BA     LDY #$BA                        A:FF X:FF Y:FF P:A5 SP:F9 CYC:297  C I  - N
ED6F  68        PLA                             A:FF X:FF Y:BA P:A5 SP:F9 CYC:303  C I  - N
ED70  28        PLP                             A:FF X:FF Y:BA P:A5 SP:FA CYC:315  C I  - N
ED71  20 C7 FA  JSR $FAC7                       A:FF X:FF Y:BA P:A5 SP:FB CYC:327  C I  - N
FAC7  70 1D     BVS $FAE6                       A:FF X:FF Y:BA P:A5 SP:F9 CYC:  4  C I  - N
FAC9  F0 1B     BEQ $FAE6                       A:FF X:FF Y:BA P:A5 SP:F9 CYC: 10  C I  - N
FACB  10 19     BPL $FAE6                       A:FF X:FF Y:BA P:A5 SP:F9 CYC: 16  C I  - N
FACD  90 17     BCC $FAE6                       A:FF X:FF Y:BA P:A5 SP:F9 CYC: 22  C I  - N
FACF  C9 FF     CMP #$FF                        A:FF X:FF Y:BA P:A5 SP:F9 CYC: 28  C I  - N
FAD1  D0 13     BNE $FAE6                       A:FF X:FF Y:BA P:27 SP:F9 CYC: 34  CZI  -  
FAD3  60        RTS                             A:FF X:FF Y:BA P:27 SP:F9 CYC: 40  CZI  -  
ED74  AD 47 06  LDA $0647 = 00                  A:FF X:FF Y:BA P:27 SP:FB CYC: 58  CZI  -  
ED77  C9 00     CMP #$00                        A:00 X:FF Y:BA P:27 SP:FB CYC: 70  CZI  -  
ED79  F0 02     BEQ $ED7D                       A:00 X:FF Y:BA P:27 SP:FB CYC: 76  CZI  -  
ED7D  A0 FF     LDY #$FF                        A:00 X:FF Y:BA P:27 SP:FB CYC: 85  CZI  -  
ED7F  A9 37     LDA #$37                        A:00 X:FF Y:FF P:A5 SP:FB CYC: 91  C I  - N
ED81  8D 47 06  STA $0647 = 00                  A:37 X:FF Y:FF P:25 SP:FB CYC: 97  C I  -  
ED84  20 D4 FA  JSR $FAD4                       A:37 X:FF Y:FF P:25 SP:FB CYC:109  C I  -  
FAD4  24 01     BIT $01 = FF                    A:37 X:FF Y:FF P:25 SP:F9 CYC:127  C I  -  
FAD6  38        SEC                             A:37 X:FF Y:FF P:E5 SP:F9 CYC:136  C I  -VN
FAD7  A9 F0     LDA #$F0                        A:37 X:FF Y:FF P:E5 SP:F9 CYC:142  C I  -VN
FAD9  60        RTS                             A:F0 X:FF Y:FF P:E5 SP:F9 CYC:148  C I  -VN
ED87  FB 48 05 *ISB $0548,Y @ 0647 = 37         A:F0 X:FF Y:FF P:E5 SP:FB CYC:166  C I  -VN
ED8A  EA        NOP                             A:B8 X:FF Y:FF P:A5 SP:FB CYC:187  C I  - N
ED8B  EA        NOP                             A:B8 X:FF Y:FF P:A5 SP:FB CYC:193  C I  - N
ED8C  08        PHP                             A:B8 X:FF Y:FF P:A5 SP:FB CYC:199  C I  - N
ED8D  48        PHA                             A:B8 X:FF Y:FF P:A5 SP:FA CYC:208  C I  - N
ED8E  A0 BB     LDY #$BB                        A:B8 X:FF Y:FF P:A5 SP:F9 CYC:217  C I  - N
ED90  68        PLA                             A:B8 X:FF Y:BB P:A5 SP:F9 CYC:223  C I  - N
ED91  28        PLP                             A:B8 X:FF Y:BB P:A5 SP:FA CYC:235  C I  - N
ED92  20 DA FA  JSR $FADA                       A:B8 X:FF Y:BB P:A5 SP:FB CYC:247  C I  - N
FADA  70 0A     BVS $FAE6                       A:B8 X:FF Y:BB P:A5 SP:F9 CYC:265  C I  - N
FADC  F0 08     BEQ $FAE6                       A:B8 X:FF Y:BB P:A5 SP:F9 CYC:271  C I  - N
FADE  10 06     BPL $FAE6                       A:B8 X:FF Y:BB P:A5 SP:F9 CYC:277  C I  - N
FAE0  90 04     BCC $FAE6                       A:B8 X:FF Y:BB P:A5 SP:F9 CYC:283  C I  - N
FAE2  C9 B8     CMP #$B8                        A:B8 X:FF Y:BB P:A5 SP:F9 CYC:289  C I  - N
FAE4  F0 02     BEQ $FAE8                       A:B8 X:FF Y:BB P:27 SP:F9 CYC:295  CZI  -  
FAE8  60        RTS                             A:B8 X:FF Y:BB P:27 SP:F9 CYC:304  CZI  -  
ED95  AD 47 06  LDA $0647 = 38                  A:B8 X:FF Y:BB P:27 SP:FB CYC:322  CZI  -  
ED98  C9 38     CMP #$38                        A:38 X:FF Y:BB P:25 SP:FB CYC:334  C I  -  
ED9A  F0 02     BEQ $ED9E                       A:38 X:FF Y:BB P:27 SP:FB CYC:340  CZI  -  
ED9E  A0 BC     LDY #$BC                        A:38 X:FF Y:BB P:27 SP:FB CYC:  8  CZI  -  
EDA0  A2 FF     LDX #$FF                        A:38 X:FF Y:BC P:A5 SP:FB CYC: 14  C I  - N
EDA2  A9 EB     LDA #$EB                        A:38 X:FF Y:BC P:A5 SP:FB CYC: 20  C I  - N
EDA4  8D 47 06  STA $0647 = 38                  A:EB X:FF Y:BC P:A5 SP:FB CYC: 26  C I  - N
EDA7  20 B1 FA  JSR $FAB1                       A:EB X:FF Y:BC P:A5 SP:FB CYC: 38  C I  - N
FAB1  24 01     BIT $01 = FF                    A:EB X:FF Y:BC P:A5 SP:F9 CYC: 56  C I  - N
FAB3  18        CLC                             A:EB X:FF Y:BC P:E5 SP:F9 CYC: 65  C I  -VN
FAB4  A9 40     LDA #$40                        A:EB X:FF Y:BC P:E4 SP:F9 CYC: 71    I  -VN
FAB6  60        RTS                             A:40 X:FF Y:BC P:64 SP:F9 CYC: 77    I  -V 
EDAA  FF 48 05 *ISB $0548,X @ 0647 = EB         A:40 X:FF Y:BC P:64 SP:FB CYC: 95    I  -V 
EDAD  EA        NOP                             A:53 X:FF Y:BC P:24 SP:FB CYC:116    I  -  
EDAE  EA        NOP                             A:53 X:FF Y:BC P:24 SP:FB CYC:122    I  -  
EDAF  EA        NOP                             A:53 X:FF Y:BC P:24 SP:FB CYC:128    I  -  
EDB0  EA        NOP                             A:53 X:FF Y:BC P:24 SP:FB CYC:134    I  -  
EDB1  20 B7 FA  JSR $FAB7                       A:53 X:FF Y:BC P:24 SP:FB CYC:140    I  -  
FAB7  70 2D     BVS $FAE6                       A:53 X:FF Y:BC P:24 SP:F9 CYC:158    I  -  
FAB9  B0 2B     BCS $FAE6                       A:53 X:FF Y:BC P:24 SP:F9 CYC:164    I  -  
FABB  30 29     BMI $FAE6                       A:53 X:FF Y:BC P:24 SP:F9 CYC:170    I  -  
FABD  C9 53     CMP #$53                        A:53 X:FF Y:BC P:24 SP:F9 CYC:176    I  -  
FABF  D0 25     BNE $FAE6                       A:53 X:FF Y:BC P:27 SP:F9 CYC:182  CZI  -  
FAC1  60        RTS                             A:53 X:FF Y:BC P:27 SP:F9 CYC:188  CZI  -  
EDB4  AD 47 06  LDA $0647 = EC                  A:53 X:FF Y:BC P:27 SP:FB CYC:206  CZI  -  
EDB7  C9 EC     CMP #$EC                        A:EC X:FF Y:BC P:A5 SP:FB CYC:218  C I  - N
EDB9  F0 02     BEQ $EDBD                       A:EC X:FF Y:BC P:27 SP:FB CYC:224  CZI  -  
EDBD  C8        INY                             A:EC X:FF Y:BC P:27 SP:FB CYC:233  CZI  -  
EDBE  A9 FF     LDA #$FF                        A:EC X:FF Y:BD P:A5 SP:FB CYC:239  C I  - N
EDC0  8D 47 06  STA $0647 = EC                  A:FF X:FF Y:BD P:A5 SP:FB CYC:245  C I  - N
EDC3  20 C2 FA  JSR $FAC2                       A:FF X:FF Y:BD P:A5 SP:FB CYC:257  C I  - N
FAC2  B8        CLV                             A:FF X:FF Y:BD P:A5 SP:F9 CYC:275  C I  - N
FAC3  38        SEC                             A:FF X:FF Y:BD P:A5 SP:F9 CYC:281  C I  - N
FAC4  A9 FF     LDA #$FF                        A:FF X:FF Y:BD P:A5 SP:F9 CYC:287  C I  - N
FAC6  60        RTS                             A:FF X:FF Y:BD P:A5 SP:F9 CYC:293  C I  - N
EDC6  FF 48 05 *ISB $0548,X @ 0647 = FF         A:FF X:FF Y:BD P:A5 SP:FB CYC:311  C I  - N
EDC9  EA        NOP                             A:FF X:FF Y:BD P:A5 SP:FB CYC:332  C I  - N
EDCA  EA        NOP                             A:FF X:FF Y:BD P:A5 SP:FB CYC:338  C I  - N
EDCB  EA        NOP                             A:FF X:FF Y:BD P:A5 SP:FB CYC:  3  C I  - N
EDCC  EA        NOP                             A:FF X:FF Y:BD P:A5 SP:FB CYC:  9  C I  - N
EDCD  20 C7 FA  JSR $FAC7                       A:FF X:FF Y:BD P:A5 SP:FB CYC: 15  C I  - N
FAC7  70 1D     BVS $FAE6                       A:FF X:FF Y:BD P:A5 SP:F9 CYC: 33  C I  - N
FAC9  F0 1B     BEQ $FAE6                       A:FF X:FF Y:BD P:A5 SP:F9 CYC: 39  C I  - N
FACB  10 19     BPL $FAE6                       A:FF X:FF Y:BD P:A5 SP:F9 CYC: 45  C I  - N
FACD  90 17     BCC $FAE6                       A:FF X:FF Y:BD P:A5 SP:F9 CYC: 51  C I  - N
FACF  C9 FF     CMP #$FF                        A:FF X:FF Y:BD P:A5 SP:F9 CYC: 57  C I  - N
FAD1  D0 13     BNE $FAE6                       A:FF X:FF Y:BD P:27 SP:F9 CYC: 63  CZI  -  
FAD3  60        RTS                             A:FF X:FF Y:BD P:27 SP:F9 CYC: 69  CZI  -  
EDD0  AD 47 06  LDA $0647 = 00                  A:FF X:FF Y:BD P:27 SP:FB CYC: 87  CZI  -  
EDD3  C9 00     CMP #$00                        A:00 X:FF Y:BD P:27 SP:FB CYC: 99  CZI  -  
EDD5  F0 02     BEQ $EDD9                       A:00 X:FF Y:BD P:27 SP:FB CYC:105  CZI  -  
EDD9  C8        INY                             A:00 X:FF Y:BD P:27 SP:FB CYC:114  CZI  -  
EDDA  A9 37     LDA #$37                        A:00 X:FF Y:BE P:A5 SP:FB CYC:120  C I  - N
EDDC  8D 47 06  STA $0647 = 00                  A:37 X:FF Y:BE P:25 SP:FB CYC:126  C I  -  
EDDF  20 D4 FA  JSR $FAD4                       A:37 X:FF Y:BE P:25 SP:FB CYC:138  C I  -  
FAD4  24 01     BIT $01 = FF                    A:37 X:FF Y:BE P:25 SP:F9 CYC:156  C I  -  
FAD6  38        SEC                             A:37 X:FF Y:BE P:E5 SP:F9 CYC:165  C I  -VN
FAD7  A9 F0     LDA #$F0                        A:37 X:FF Y:BE P:E5 SP:F9 CYC:171  C I  -VN
FAD9  60        RTS                             A:F0 X:FF Y:BE P:E5 SP:F9 CYC:177  C I  -VN
EDE2  FF 48 05 *ISB $0548,X @ 0647 = 37         A:F0 X:FF Y:BE P:E5 SP:FB CYC:195  C I  -VN
EDE5  EA        NOP                             A:B8 X:FF Y:BE P:A5 SP:FB CYC:216  C I  - N
EDE6  EA        NOP                             A:B8 X:FF Y:BE P:A5 SP:FB CYC:222  C I  - N
EDE7  EA        NOP                             A:B8 X:FF Y:BE P:A5 SP:FB CYC:228  C I  - N
EDE8  EA        NOP                             A:B8 X:FF Y:BE P:A5 SP:FB CYC:234  C I  - N
EDE9  20 DA FA  JSR $FADA                       A:B8 X:FF Y:BE P:A5 SP:FB CYC:240  C I  - N
FADA  70 0A     BVS $FAE6                       A:B8 X:FF Y:BE P:A5 SP:F9 CYC:258  C I  - N
FADC  F0 08     BEQ $FAE6                       A:B8 X:FF Y:BE P:A5 SP:F9 CYC:264  C I  - N
FADE  10 06     BPL $FAE6                       A:B8 X:FF Y:BE P:A5 SP:F9 CYC:270  C I  - N
FAE0  90 04     BCC $FAE6                       A:B8 X:FF Y:BE P:A5 SP:F9 CYC:276  C I  - N
FAE2  C9 B8     CMP #$B8                        A:B8 X:FF Y:BE P:A5 SP:F9 CYC:282  C I  - N
FAE4  F0 02     BEQ $FAE8                       A:B8 X:FF Y:BE P:27 SP:F9 CYC:288  CZI  -  
FAE8  60        RTS                             A:B8 X:FF Y:BE P:27 SP:F9 CYC:297  CZI  -  
EDEC  AD 47 06  LDA $0647 = 38                  A:B8 X:FF Y:BE P:27 SP:FB CYC:315  CZI  -  
EDEF  C9 38     CMP #$38                        A:38 X:FF Y:BE P:25 SP:FB CYC:327  C I  -  
EDF1  F0 02     BEQ $EDF5                       A:38 X:FF Y:BE P:27 SP:FB CYC:333  CZI  -  
EDF5  60        RTS                             A:38 X:FF Y:BE P:27 SP:FB CYC:  1  CZI  -  
C641  20 F6 ED  JSR $EDF6                       A:38 X:FF Y:BE P:27 SP:FD CYC: 19  CZI  -  
EDF6  A9 FF     LDA #$FF                        A:38 X:FF Y:BE P:27 SP:FB CYC: 37  CZI  -  
EDF8  85 01     STA $01 = FF                    A:FF X:FF Y:BE P:A5 SP:FB CYC: 43  C I  - N
EDFA  A0 BF     LDY #$BF                        A:FF X:FF Y:BE P:A5 SP:FB CYC: 52  C I  - N
EDFC  A2 02     LDX #$02                        A:FF X:FF Y:BF P:A5 SP:FB CYC: 58  C I  - N
EDFE  A9 47     LDA #$47                        A:FF X:02 Y:BF P:25 SP:FB CYC: 64  C I  -  
EE00  85 47     STA $47 = 38                    A:47 X:02 Y:BF P:25 SP:FB CYC: 70  C I  -  
EE02  A9 06     LDA #$06                        A:47 X:02 Y:BF P:25 SP:FB CYC: 79  C I  -  
EE04  85 48     STA $48 = 06                    A:06 X:02 Y:BF P:25 SP:FB CYC: 85  C I  -  
EE06  A9 A5     LDA #$A5                        A:06 X:02 Y:BF P:25 SP:FB CYC: 94  C I  -  
EE08  8D 47 06  STA $0647 = 38                  A:A5 X:02 Y:BF P:A5 SP:FB CYC:100  C I  - N
EE0B  20 7B FA  JSR $FA7B                       A:A5 X:02 Y:BF P:A5 SP:FB CYC:112  C I  - N
FA7B  24 01     BIT $01 = FF                    A:A5 X:02 Y:BF P:A5 SP:F9 CYC:130  C I  - N
FA7D  18        CLC                             A:A5 X:02 Y:BF P:E5 SP:F9 CYC:139  C I  -VN
FA7E  A9 B3     LDA #$B3                        A:A5 X:02 Y:BF P:E4 SP:F9 CYC:145    I  -VN
FA80  60        RTS                             A:B3 X:02 Y:BF P:E4 SP:F9 CYC:151    I  -VN
EE0E  03 45    *SLO ($45,X) @ 47 = 0647 = A5    A:B3 X:02 Y:BF P:E4 SP:FB CYC:169    I  -VN
EE10  EA        NOP                             A:FB X:02 Y:BF P:E5 SP:FB CYC:193  C I  -VN
EE11  EA        NOP                             A:FB X:02 Y:BF P:E5 SP:FB CYC:199  C I  -VN
EE12  EA        NOP                             A:FB X:02 Y:BF P:E5 SP:FB CYC:205  C I  -VN
EE13  EA        NOP                             A:FB X:02 Y:BF P:E5 SP:FB CYC:211  C I  -VN
EE14  20 81 FA  JSR $FA81                       A:FB X:02 Y:BF P:E5 SP:FB CYC:217  C I  -VN
FA81  50 63     BVC $FAE6                       A:FB X:02 Y:BF P:E5 SP:F9 CYC:235  C I  -VN
FA83  90 61     BCC $FAE6                       A:FB X:02 Y:BF P:E5 SP:F9 CYC:241  C I  -VN
FA85  10 5F     BPL $FAE6                       A:FB X:02 Y:BF P:E5 SP:F9 CYC:247  C I  -VN
FA87  C9 FB     CMP #$FB                        A:FB X:02 Y:BF P:E5 SP:F9 CYC:253  C I  -VN
FA89  D0 5B     BNE $FAE6                       A:FB X:02 Y:BF P:67 SP:F9 CYC:259  CZI  -V 
FA8B  60        RTS                             A:FB X:02 Y:BF P:67 SP:F9 CYC:265  CZI  -V 
EE17  AD 47 06  LDA $0647 = 4A                  A:FB X:02 Y:BF P:67 SP:FB CYC:283  CZI  -V 
EE1A  C9 4A     CMP #$4A                        A:4A X:02 Y:BF P:65 SP:FB CYC:295  C I  -V 
EE1C  F0 02     BEQ $EE20                       A:4A X:02 Y:BF P:67 SP:FB CYC:301  CZI  -V 
EE20  C8        INY                             A:4A X:02 Y:BF P:67 SP:FB CYC:310  CZI  -V 
EE21  A9 29     LDA #$29                        A:4A X:02 Y:C0 P:E5 SP:FB CYC:316  C I  -VN
EE23  8D 47 06  STA $0647 = 4A                  A:29 X:02 Y:C0 P:65 SP:FB CYC:322  C I  -V 
EE26  20 8C FA  JSR $FA8C                       A:29 X:02 Y:C0 P:65 SP:FB CYC:334  C I  -V 
FA8C  B8        CLV                             A:29 X:02 Y:C0 P:65 SP:F9 CYC: 11  C I  -V 
FA8D  18        CLC                             A:29 X:02 Y:C0 P:25 SP:F9 CYC: 17  C I  -  
FA8E  A9 C3     LDA #$C3                        A:29 X:02 Y:C0 P:24 SP:F9 CYC: 23    I  -  
FA90  60        RTS                             A:C3 X:02 Y:C0 P:A4 SP:F9 CYC: 29    I  - N
EE29  03 45    *SLO ($45,X) @ 47 = 0647 = 29    A:C3 X:02 Y:C0 P:A4 SP:FB CYC: 47    I  - N
EE2B  EA        NOP                             A:D3 X:02 Y:C0 P:A4 SP:FB CYC: 71    I  - N
EE2C  EA        NOP                             A:D3 X:02 Y:C0 P:A4 SP:FB CYC: 77    I  - N
EE2D  EA        NOP                             A:D3 X:02 Y:C0 P:A4 SP:FB CYC: 83    I  - N
EE2E  EA        NOP                             A:D3 X:02 Y:C0 P:A4 SP:FB CYC: 89    I  - N
EE2F  20 91 FA  JSR $FA91                       A:D3 X:02 Y:C0 P:A4 SP:FB CYC: 95    I  - N
FA91  70 53     BVS $FAE6                       A:D3 X:02 Y:C0 P:A4 SP:F9 CYC:113    I  - N
FA93  F0 51     BEQ $FAE6                       A:D3 X:02 Y:C0 P:A4 SP:F9 CYC:119    I  - N
FA95  10 4F     BPL $FAE6                       A:D3 X:02 Y:C0 P:A4 SP:F9 CYC:125    I  - N
FA97  B0 4D     BCS $FAE6                       A:D3 X:02 Y:C0 P:A4 SP:F9 CYC:131    I  - N
FA99  C9 D3     CMP #$D3                        A:D3 X:02 Y:C0 P:A4 SP:F9 CYC:137    I  - N
FA9B  D0 49     BNE $FAE6                       A:D3 X:02 Y:C0 P:27 SP:F9 CYC:143  CZI  -  
FA9D  60        RTS                             A:D3 X:02 Y:C0 P:27 SP:F9 CYC:149  CZI  -  
EE32  AD 47 06  LDA $0647 = 52                  A:D3 X:02 Y:C0 P:27 SP:FB CYC:167  CZI  -  
EE35  C9 52     CMP #$52                        A:52 X:02 Y:C0 P:25 SP:FB CYC:179  C I  -  
EE37  F0 02     BEQ $EE3B                       A:52 X:02 Y:C0 P:27 SP:FB CYC:185  CZI  -  
EE3B  C8        INY                             A:52 X:02 Y:C0 P:27 SP:FB CYC:194  CZI  -  
EE3C  A9 37     LDA #$37                        A:52 X:02 Y:C1 P:A5 SP:FB CYC:200  C I  - N
EE3E  8D 47 06  STA $0647 = 52                  A:37 X:02 Y:C1 P:25 SP:FB CYC:206  C I  -  
EE41  20 9E FA  JSR $FA9E                       A:37 X:02 Y:C1 P:25 SP:FB CYC:218  C I  -  
FA9E  24 01     BIT $01 = FF                    A:37 X:02 Y:C1 P:25 SP:F9 CYC:236  C I  -  
FAA0  38        SEC                             A:37 X:02 Y:C1 P:E5 SP:F9 CYC:245  C I  -VN
FAA1  A9 10     LDA #$10                        A:37 X:02 Y:C1 P:E5 SP:F9 CYC:251  C I  -VN
FAA3  60        RTS                             A:10 X:02 Y:C1 P:65 SP:F9 CYC:257  C I  -V 
EE44  03 45    *SLO ($45,X) @ 47 = 0647 = 37    A:10 X:02 Y:C1 P:65 SP:FB CYC:275  C I  -V 
EE46  EA        NOP                             A:7E X:02 Y:C1 P:64 SP:FB CYC:299    I  -V 
EE47  EA        NOP                             A:7E X:02 Y:C1 P:64 SP:FB CYC:305    I  -V 
EE48  EA        NOP                             A:7E X:02 Y:C1 P:64 SP:FB CYC:311    I  -V 
EE49  EA        NOP                             A:7E X:02 Y:C1 P:64 SP:FB CYC:317    I  -V 
EE4A  20 A4 FA  JSR $FAA4                       A:7E X:02 Y:C1 P:64 SP:FB CYC:323    I  -V 
FAA4  50 40     BVC $FAE6                       A:7E X:02 Y:C1 P:64 SP:F9 CYC:  0    I  -V 
FAA6  F0 3E     BEQ $FAE6                       A:7E X:02 Y:C1 P:64 SP:F9 CYC:  6    I  -V 
FAA8  30 3C     BMI $FAE6                       A:7E X:02 Y:C1 P:64 SP:F9 CYC: 12    I  -V 
FAAA  B0 3A     BCS $FAE6                       A:7E X:02 Y:C1 P:64 SP:F9 CYC: 18    I  -V 
FAAC  C9 7E     CMP #$7E                        A:7E X:02 Y:C1 P:64 SP:F9 CYC: 24    I  -V 
FAAE  D0 36     BNE $FAE6                       A:7E X:02 Y:C1 P:67 SP:F9 CYC: 30  CZI  -V 
FAB0  60        RTS                             A:7E X:02 Y:C1 P:67 SP:F9 CYC: 36  CZI  -V 
EE4D  AD 47 06  LDA $0647 = 6E                  A:7E X:02 Y:C1 P:67 SP:FB CYC: 54  CZI  -V 
EE50  C9 6E     CMP #$6E                        A:6E X:02 Y:C1 P:65 SP:FB CYC: 66  C I  -V 
EE52  F0 02     BEQ $EE56                       A:6E X:02 Y:C1 P:67 SP:FB CYC: 72  CZI  -V 
EE56  C8        INY                             A:6E X:02 Y:C1 P:67 SP:FB CYC: 81  CZI  -V 
EE57  A9 A5     LDA #$A5                        A:6E X:02 Y:C2 P:E5 SP:FB CYC: 87  C I  -VN
EE59  85 47     STA $47 = 47                    A:A5 X:02 Y:C2 P:E5 SP:FB CYC: 93  C I  -VN
EE5B  20 7B FA  JSR $FA7B                       A:A5 X:02 Y:C2 P:E5 SP:FB CYC:102  C I  -VN
FA7B  24 01     BIT $01 = FF                    A:A5 X:02 Y:C2 P:E5 SP:F9 CYC:120  C I  -VN
FA7D  18        CLC                             A:A5 X:02 Y:C2 P:E5 SP:F9 CYC:129  C I  -VN
FA7E  A9 B3     LDA #$B3                        A:A5 X:02 Y:C2 P:E4 SP:F9 CYC:135    I  -VN
FA80  60        RTS                             A:B3 X:02 Y:C2 P:E4 SP:F9 CYC:141    I  -VN
EE5E  07 47    *SLO $47 = A5                    A:B3 X:02 Y:C2 P:E4 SP:FB CYC:159    I  -VN
EE60  EA        NOP                             A:FB X:02 Y:C2 P:E5 SP:FB CYC:174  C I  -VN
EE61  EA        NOP                             A:FB X:02 Y:C2 P:E5 SP:FB CYC:180  C I  -VN
EE62  EA        NOP                             A:FB X:02 Y:C2 P:E5 SP:FB CYC:186  C I  -VN
EE63  EA        NOP                             A:FB X:02 Y:C2 P:E5 SP:FB CYC:192  C I  -VN
EE64  20 81 FA  JSR $FA81                       A:FB X:02 Y:C2 P:E5 SP:FB CYC:198  C I  -VN
FA81  50 63     BVC $FAE6                       A:FB X:02 Y:C2 P:E5 SP:F9 CYC:216  C I  -VN
FA83  90 61     BCC $FAE6                       A:FB X:02 Y:C2 P:E5 SP:F9 CYC:222  C I  -VN
FA85  10 5F     BPL $FAE6                       A:FB X:02 Y:C2 P:E5 SP:F9 CYC:228  C I  -VN
FA87  C9 FB     CMP #$FB                        A:FB X:02 Y:C2 P:E5 SP:F9 CYC:234  C I  -VN
FA89  D0 5B     BNE $FAE6                       A:FB X:02 Y:C2 P:67 SP:F9 CYC:240  CZI  -V 
FA8B  60        RTS                             A:FB X:02 Y:C2 P:67 SP:F9 CYC:246  CZI  -V 
EE67  A5 47     LDA $47 = 4A                    A:FB X:02 Y:C2 P:67 SP:FB CYC:264  CZI  -V 
EE69  C9 4A     CMP #$4A                        A:4A X:02 Y:C2 P:65 SP:FB CYC:273  C I  -V 
EE6B  F0 02     BEQ $EE6F                       A:4A X:02 Y:C2 P:67 SP:FB CYC:279  CZI  -V 
EE6F  C8        INY                             A:4A X:02 Y:C2 P:67 SP:FB CYC:288  CZI  -V 
EE70  A9 29     LDA #$29                        A:4A X:02 Y:C3 P:E5 SP:FB CYC:294  C I  -VN
EE72  85 47     STA $47 = 4A                    A:29 X:02 Y:C3 P:65 SP:FB CYC:300  C I  -V 
EE74  20 8C FA  JSR $FA8C                       A:29 X:02 Y:C3 P:65 SP:FB CYC:309  C I  -V 
FA8C  B8        CLV                             A:29 X:02 Y:C3 P:65 SP:F9 CYC:327  C I  -V 
FA8D  18        CLC                             A:29 X:02 Y:C3 P:25 SP:F9 CYC:333  C I  -  
FA8E  A9 C3     LDA #$C3                        A:29 X:02 Y:C3 P:24 SP:F9 CYC:339    I  -  
FA90  60        RTS                             A:C3 X:02 Y:C3 P:A4 SP:F9 CYC:  4    I  - N
EE77  07 47    *SLO $47 = 29                    A:C3 X:02 Y:C3 P:A4 SP:FB CYC: 22    I  - N
EE79  EA        NOP                             A:D3 X:02 Y:C3 P:A4 SP:FB CYC: 37    I  - N
EE7A  EA        NOP                             A:D3 X:02 Y:C3 P:A4 SP:FB CYC: 43    I  - N
EE7B  EA        NOP                             A:D3 X:02 Y:C3 P:A4 SP:FB CYC: 49    I  - N
EE7C  EA        NOP                             A:D3 X:02 Y:C3 P:A4 SP:FB CYC: 55    I  - N
EE7D  20 91 FA  JSR $FA91                       A:D3 X:02 Y:C3 P:A4 SP:FB CYC: 61    I  - N
FA91  70 53     BVS $FAE6                       A:D3 X:02 Y:C3 P:A4 SP:F9 CYC: 79    I  - N
FA93  F0 51     BEQ $FAE6                       A:D3 X:02 Y:C3 P:A4 SP:F9 CYC: 85    I  - N
FA95  10 4F     BPL $FAE6                       A:D3 X:02 Y:C3 P:A4 SP:F9 CYC: 91    I  - N
FA97  B0 4D     BCS $FAE6                       A:D3 X:02 Y:C3 P:A4 SP:F9 CYC: 97    I  - N
FA99  C9 D3     CMP #$D3                        A:D3 X:02 Y:C3 P:A4 SP:F9 CYC:103    I  - N
FA9B  D0 49     BNE $FAE6                       A:D3 X:02 Y:C3 P:27 SP:F9 CYC:109  CZI  -  
FA9D  60        RTS                             A:D3 X:02 Y:C3 P:27 SP:F9 CYC:115  CZI  -  
EE80  A5 47     LDA $47 = 52                    A:D3 X:02 Y:C3 P:27 SP:FB CYC:133  CZI  -  
EE82  C9 52     CMP #$52                        A:52 X:02 Y:C3 P:25 SP:FB CYC:142  C I  -  
EE84  F0 02     BEQ $EE88                       A:52 X:02 Y:C3 P:27 SP:FB CYC:148  CZI  -  
EE88  C8        INY                             A:52 X:02 Y:C3 P:27 SP:FB CYC:157  CZI  -  
EE89  A9 37     LDA #$37                        A:52 X:02 Y:C4 P:A5 SP:FB CYC:163  C I  - N
EE8B  85 47     STA $47 = 52                    A:37 X:02 Y:C4 P:25 SP:FB CYC:169  C I  -  
EE8D  20 9E FA  JSR $FA9E                       A:37 X:02 Y:C4 P:25 SP:FB CYC:178  C I  -  
FA9E  24 01     BIT $01 = FF                    A:37 X:02 Y:C4 P:25 SP:F9 CYC:196  C I  -  
FAA0  38        SEC                             A:37 X:02 Y:C4 P:E5 SP:F9 CYC:205  C I  -VN
FAA1  A9 10     LDA #$10                        A:37 X:02 Y:C4 P:E5 SP:F9 CYC:211  C I  -VN
FAA3  60        RTS                             A:10 X:02 Y:C4 P:65 SP:F9 CYC:217  C I  -V 
EE90  07 47    *SLO $47 = 37                    A:10 X:02 Y:C4 P:65 SP:FB CYC:235  C I  -V 
EE92  EA        NOP                             A:7E X:02 Y:C4 P:64 SP:FB CYC:250    I  -V 
EE93  EA        NOP                             A:7E X:02 Y:C4 P:64 SP:FB CYC:256    I  -V 
EE94  EA        NOP                             A:7E X:02 Y:C4 P:64 SP:FB CYC:262    I  -V 
EE95  EA        NOP                             A:7E X:02 Y:C4 P:64 SP:FB CYC:268    I  -V 
EE96  20 A4 FA  JSR $FAA4                       A:7E X:02 Y:C4 P:64 SP:FB CYC:274    I  -V 
FAA4  50 40     BVC $FAE6                       A:7E X:02 Y:C4 P:64 SP:F9 CYC:292    I  -V 
FAA6  F0 3E     BEQ $FAE6                       A:7E X:02 Y:C4 P:64 SP:F9 CYC:298    I  -V 
FAA8  30 3C     BMI $FAE6                       A:7E X:02 Y:C4 P:64 SP:F9 CYC:304    I  -V 
FAAA  B0 3A     BCS $FAE6                       A:7E X:02 Y:C4 P:64 SP:F9 CYC:310    I  -V 
FAAC  C9 7E     CMP #$7E                        A:7E X:02 Y:C4 P:64 SP:F9 CYC:316    I  -V 
FAAE  D0 36     BNE $FAE6                       A:7E X:02 Y:C4 P:67 SP:F9 CYC:322  CZI  -V 
FAB0  60        RTS                             A:7E X:02 Y:C4 P:67 SP:F9 CYC:328  CZI  -V 
EE99  A5 47     LDA $47 = 6E                    A:7E X:02 Y:C4 P:67 SP:FB CYC:  5  CZI  -V 
EE9B  C9 6E     CMP #$6E                        A:6E X:02 Y:C4 P:65 SP:FB CYC: 14  C I  -V 
EE9D  F0 02     BEQ $EEA1                       A:6E X:02 Y:C4 P:67 SP:FB CYC: 20  CZI  -V 
EEA1  C8        INY                             A:6E X:02 Y:C4 P:67 SP:FB CYC: 29  CZI  -V 
EEA2  A9 A5     LDA #$A5                        A:6E X:02 Y:C5 P:E5 SP:FB CYC: 35  C I  -VN
EEA4  8D 47 06  STA $0647 = 6E                  A:A5 X:02 Y:C5 P:E5 SP:FB CYC: 41  C I  -VN
EEA7  20 7B FA  JSR $FA7B                       A:A5 X:02 Y:C5 P:E5 SP:FB CYC: 53  C I  -VN
FA7B  24 01     BIT $01 = FF                    A:A5 X:02 Y:C5 P:E5 SP:F9 CYC: 71  C I  -VN
FA7D  18        CLC                             A:A5 X:02 Y:C5 P:E5 SP:F9 CYC: 80  C I  -VN
FA7E  A9 B3     LDA #$B3                        A:A5 X:02 Y:C5 P:E4 SP:F9 CYC: 86    I  -VN
FA80  60        RTS                             A:B3 X:02 Y:C5 P:E4 SP:F9 CYC: 92    I  -VN
EEAA  0F 47 06 *SLO $0647 = A5                  A:B3 X:02 Y:C5 P:E4 SP:FB CYC:110    I  -VN
EEAD  EA        NOP                             A:FB X:02 Y:C5 P:E5 SP:FB CYC:128  C I  -VN
EEAE  EA        NOP                             A:FB X:02 Y:C5 P:E5 SP:FB CYC:134  C I  -VN
EEAF  EA        NOP                             A:FB X:02 Y:C5 P:E5 SP:FB CYC:140  C I  -VN
EEB0  EA        NOP                             A:FB X:02 Y:C5 P:E5 SP:FB CYC:146  C I  -VN
EEB1  20 81 FA  JSR $FA81                       A:FB X:02 Y:C5 P:E5 SP:FB CYC:152  C I  -VN
FA81  50 63     BVC $FAE6                       A:FB X:02 Y:C5 P:E5 SP:F9 CYC:170  C I  -VN
FA83  90 61     BCC $FAE6                       A:FB X:02 Y:C5 P:E5 SP:F9 CYC:176  C I  -VN
FA85  10 5F     BPL $FAE6                       A:FB X:02 Y:C5 P:E5 SP:F9 CYC:182  C I  -VN
FA87  C9 FB     CMP #$FB                        A:FB X:02 Y:C5 P:E5 SP:F9 CYC:188  C I  -VN
FA89  D0 5B     BNE $FAE6                       A:FB X:02 Y:C5 P:67 SP:F9 CYC:194  CZI  -V 
FA8B  60        RTS                             A:FB X:02 Y:C5 P:67 SP:F9 CYC:200  CZI  -V 
EEB4  AD 47 06  LDA $0647 = 4A                  A:FB X:02 Y:C5 P:67 SP:FB CYC:218  CZI  -V 
EEB7  C9 4A     CMP #$4A                        A:4A X:02 Y:C5 P:65 SP:FB CYC:230  C I  -V 
EEB9  F0 02     BEQ $EEBD                       A:4A X:02 Y:C5 P:67 SP:FB CYC:236  CZI  -V 
EEBD  C8        INY                             A:4A X:02 Y:C5 P:67 SP:FB CYC:245  CZI  -V 
EEBE  A9 29     LDA #$29                        A:4A X:02 Y:C6 P:E5 SP:FB CYC:251  C I  -VN
EEC0  8D 47 06  STA $0647 = 4A                  A:29 X:02 Y:C6 P:65 SP:FB CYC:257  C I  -V 
EEC3  20 8C FA  JSR $FA8C                       A:29 X:02 Y:C6 P:65 SP:FB CYC:269  C I  -V 
FA8C  B8        CLV                             A:29 X:02 Y:C6 P:65 SP:F9 CYC:287  C I  -V 
FA8D  18        CLC                             A:29 X:02 Y:C6 P:25 SP:F9 CYC:293  C I  -  
FA8E  A9 C3     LDA #$C3                        A:29 X:02 Y:C6 P:24 SP:F9 CYC:299    I  -  
FA90  60        RTS                             A:C3 X:02 Y:C6 P:A4 SP:F9 CYC:305    I  - N
EEC6  0F 47 06 *SLO $0647 = 29                  A:C3 X:02 Y:C6 P:A4 SP:FB CYC:323    I  - N
EEC9  EA        NOP                             A:D3 X:02 Y:C6 P:A4 SP:FB CYC:  0    I  - N
EECA  EA        NOP                             A:D3 X:02 Y:C6 P:A4 SP:FB CYC:  6    I  - N
EECB  EA        NOP                             A:D3 X:02 Y:C6 P:A4 SP:FB CYC: 12    I  - N
EECC  EA        NOP                             A:D3 X:02 Y:C6 P:A4 SP:FB CYC: 18    I  - N
EECD  20 91 FA  JSR $FA91                       A:D3 X:02 Y:C6 P:A4 SP:FB CYC: 24    I  - N
FA91  70 53     BVS $FAE6                       A:D3 X:02 Y:C6 P:A4 SP:F9 CYC: 42    I  - N
FA93  F0 51     BEQ $FAE6                       A:D3 X:02 Y:C6 P:A4 SP:F9 CYC: 48    I  - N
FA95  10 4F     BPL $FAE6                       A:D3 X:02 Y:C6 P:A4 SP:F9 CYC: 54    I  - N
FA97  B0 4D     BCS $FAE6                       A:D3 X:02 Y:C6 P:A4 SP:F9 CYC: 60    I  - N
FA99  C9 D3     CMP #$D3                        A:D3 X:02 Y:C6 P:A4 SP:F9 CYC: 66    I  - N
FA9B  D0 49     BNE $FAE6                       A:D3 X:02 Y:C6 P:27 SP:F9 CYC: 72  CZI  -  
FA9D  60        RTS                             A:D3 X:02 Y:C6 P:27 SP:F9 CYC: 78  CZI  -  
EED0  AD 47 06  LDA $0647 = 52                  A:D3 X:02 Y:C6 P:27 SP:FB CYC: 96  CZI  -  
EED3  C9 52     CMP #$52                        A:52 X:02 Y:C6 P:25 SP:FB CYC:108  C I  -  
EED5  F0 02     BEQ $EED9                       A:52 X:02 Y:C6 P:27 SP:FB CYC:114  CZI  -  
EED9  C8        INY                             A:52 X:02 Y:C6 P:27 SP:FB CYC:123  CZI  -  
EEDA  A9 37     LDA #$37                        A:52 X:02 Y:C7 P:A5 SP:FB CYC:129  C I  - N
EEDC  8D 47 06  STA $0647 = 52                  A:37 X:02 Y:C7 P:25 SP:FB CYC:135  C I  -  
EEDF  20 9E FA  JSR $FA9E                       A:37 X:02 Y:C7 P:25 SP:FB CYC:147  C I  -  
FA9E  24 01     BIT $01 = FF                    A:37 X:02 Y:C7 P:25 SP:F9 CYC:165  C I  -  
FAA0  38        SEC                             A:37 X:02 Y:C7 P:E5 SP:F9 CYC:174  C I  -VN
FAA1  A9 10     LDA #$10                        A:37 X:02 Y:C7 P:E5 SP:F9 CYC:180  C I  -VN
FAA3  60        RTS                             A:10 X:02 Y:C7 P:65 SP:F9 CYC:186  C I  -V 
EEE2  0F 47 06 *SLO $0647 = 37                  A:10 X:02 Y:C7 P:65 SP:FB CYC:204  C I  -V 
EEE5  EA        NOP                             A:7E X:02 Y:C7 P:64 SP:FB CYC:222    I  -V 
EEE6  EA        NOP                             A:7E X:02 Y:C7 P:64 SP:FB CYC:228    I  -V 
EEE7  EA        NOP                             A:7E X:02 Y:C7 P:64 SP:FB CYC:234    I  -V 
EEE8  EA        NOP                             A:7E X:02 Y:C7 P:64 SP:FB CYC:240    I  -V 
EEE9  20 A4 FA  JSR $FAA4                       A:7E X:02 Y:C7 P:64 SP:FB CYC:246    I  -V 
FAA4  50 40     BVC $FAE6                       A:7E X:02 Y:C7 P:64 SP:F9 CYC:264    I  -V 
FAA6  F0 3E     BEQ $FAE6                       A:7E X:02 Y:C7 P:64 SP:F9 CYC:270    I  -V 
FAA8  30 3C     BMI $FAE6                       A:7E X:02 Y:C7 P:64 SP:F9 CYC:276    I  -V 
FAAA  B0 3A     BCS $FAE6                       A:7E X:02 Y:C7 P:64 SP:F9 CYC:282    I  -V 
FAAC  C9 7E     CMP #$7E                        A:7E X:02 Y:C7 P:64 SP:F9 CYC:288    I  -V 
FAAE  D0 36     BNE $FAE6                       A:7E X:02 Y:C7 P:67 SP:F9 CYC:294  CZI  -V 
FAB0  60        RTS                             A:7E X:02 Y:C7 P:67 SP:F9 CYC:300  CZI  -V 
EEEC  AD 47 06  LDA $0647 = 6E                  A:7E X:02 Y:C7 P:67 SP:FB CYC:318  CZI  -V 
EEEF  C9 6E     CMP #$6E                        A:6E X:02 Y:C7 P:65 SP:FB CYC:330  C I  -V 
EEF1  F0 02     BEQ $EEF5                       A:6E X:02 Y:C7 P:67 SP:FB CYC:336  CZI  -V 
EEF5  A9 A5     LDA #$A5                        A:6E X:02 Y:C7 P:67 SP:FB CYC:  4  CZI  -V 
EEF7  8D 47 06  STA $0647 = 6E                  A:A5 X:02 Y:C7 P:E5 SP:FB CYC: 10  C I  -VN
EEFA  A9 48     LDA #$48                        A:A5 X:02 Y:C7 P:E5 SP:FB CYC: 22  C I  -VN
EEFC  85 45     STA $45 = 48                    A:48 X:02 Y:C7 P:65 SP:FB CYC: 28  C I  -V 
EEFE  A9 05     LDA #$05                        A:48 X:02 Y:C7 P:65 SP:FB CYC: 37  C I  -V 
EF00  85 46     STA $46 = 05                    A:05 X:02 Y:C7 P:65 SP:FB CYC: 43  C I  -V 
EF02  A0 FF     LDY #$FF                        A:05 X:02 Y:C7 P:65 SP:FB CYC: 52  C I  -V 
EF04  20 7B FA  JSR $FA7B                       A:05 X:02 Y:FF P:E5 SP:FB CYC: 58  C I  -VN
FA7B  24 01     BIT $01 = FF                    A:05 X:02 Y:FF P:E5 SP:F9 CYC: 76  C I  -VN
FA7D  18        CLC                             A:05 X:02 Y:FF P:E5 SP:F9 CYC: 85  C I  -VN
FA7E  A9 B3     LDA #$B3                        A:05 X:02 Y:FF P:E4 SP:F9 CYC: 91    I  -VN
FA80  60        RTS                             A:B3 X:02 Y:FF P:E4 SP:F9 CYC: 97    I  -VN
EF07  13 45    *SLO ($45),Y = 0548 @ 0647 = A5  A:B3 X:02 Y:FF P:E4 SP:FB CYC:115    I  -VN
EF09  EA        NOP                             A:FB X:02 Y:FF P:E5 SP:FB CYC:139  C I  -VN
EF0A  EA        NOP                             A:FB X:02 Y:FF P:E5 SP:FB CYC:145  C I  -VN
EF0B  08        PHP                             A:FB X:02 Y:FF P:E5 SP:FB CYC:151  C I  -VN
EF0C  48        PHA                             A:FB X:02 Y:FF P:E5 SP:FA CYC:160  C I  -VN
EF0D  A0 C8     LDY #$C8                        A:FB X:02 Y:FF P:E5 SP:F9 CYC:169  C I  -VN
EF0F  68        PLA                             A:FB X:02 Y:C8 P:E5 SP:F9 CYC:175  C I  -VN
EF10  28        PLP                             A:FB X:02 Y:C8 P:E5 SP:FA CYC:187  C I  -VN
EF11  20 81 FA  JSR $FA81                       A:FB X:02 Y:C8 P:E5 SP:FB CYC:199  C I  -VN
FA81  50 63     BVC $FAE6                       A:FB X:02 Y:C8 P:E5 SP:F9 CYC:217  C I  -VN
FA83  90 61     BCC $FAE6                       A:FB X:02 Y:C8 P:E5 SP:F9 CYC:223  C I  -VN
FA85  10 5F     BPL $FAE6                       A:FB X:02 Y:C8 P:E5 SP:F9 CYC:229  C I  -VN
FA87  C9 FB     CMP #$FB                        A:FB X:02 Y:C8 P:E5 SP:F9 CYC:235  C I  -VN
FA89  D0 5B     BNE $FAE6                       A:FB X:02 Y:C8 P:67 SP:F9 CYC:241  CZI  -V 
FA8B  60        RTS                             A:FB X:02 Y:C8 P:67 SP:F9 CYC:247  CZI  -V 
EF14  AD 47 06  LDA $0647 = 4A                  A:FB X:02 Y:C8 P:67 SP:FB CYC:265  CZI  -V 
EF17  C9 4A     CMP #$4A                        A:4A X:02 Y:C8 P:65 SP:FB CYC:277  C I  -V 
EF19  F0 02     BEQ $EF1D                       A:4A X:02 Y:C8 P:67 SP:FB CYC:283  CZI  -V 
EF1D  A0 FF     LDY #$FF                        A:4A X:02 Y:C8 P:67 SP:FB CYC:292  CZI  -V 
EF1F  A9 29     LDA #$29                        A:4A X:02 Y:FF P:E5 SP:FB CYC:298  C I  -VN
EF21  8D 47 06  STA $0647 = 4A                  A:29 X:02 Y:FF P:65 SP:FB CYC:304  C I  -V 
EF24  20 8C FA  JSR $FA8C                       A:29 X:02 Y:FF P:65 SP:FB CYC:316  C I  -V 
FA8C  B8        CLV                             A:29 X:02 Y:FF P:65 SP:F9 CYC:334  C I  -V 
FA8D  18        CLC                             A:29 X:02 Y:FF P:25 SP:F9 CYC:340  C I  -  
FA8E  A9 C3     LDA #$C3                        A:29 X:02 Y:FF P:24 SP:F9 CYC:  5    I  -  
FA90  60        RTS                             A:C3 X:02 Y:FF P:A4 SP:F9 CYC: 11    I  - N
EF27  13 45    *SLO ($45),Y = 0548 @ 0647 = 29  A:C3 X:02 Y:FF P:A4 SP:FB CYC: 29    I  - N
EF29  EA        NOP                             A:D3 X:02 Y:FF P:A4 SP:FB CYC: 53    I  - N
EF2A  EA        NOP                             A:D3 X:02 Y:FF P:A4 SP:FB CYC: 59    I  - N
EF2B  08        PHP                             A:D3 X:02 Y:FF P:A4 SP:FB CYC: 65    I  - N
EF2C  48        PHA                             A:D3 X:02 Y:FF P:A4 SP:FA CYC: 74    I  - N
EF2D  A0 C9     LDY #$C9                        A:D3 X:02 Y:FF P:A4 SP:F9 CYC: 83    I  - N
EF2F  68        PLA                             A:D3 X:02 Y:C9 P:A4 SP:F9 CYC: 89    I  - N
EF30  28        PLP                             A:D3 X:02 Y:C9 P:A4 SP:FA CYC:101    I  - N
EF31  20 91 FA  JSR $FA91                       A:D3 X:02 Y:C9 P:A4 SP:FB CYC:113    I  - N
FA91  70 53     BVS $FAE6                       A:D3 X:02 Y:C9 P:A4 SP:F9 CYC:131    I  - N
FA93  F0 51     BEQ $FAE6                       A:D3 X:02 Y:C9 P:A4 SP:F9 CYC:137    I  - N
FA95  10 4F     BPL $FAE6                       A:D3 X:02 Y:C9 P:A4 SP:F9 CYC:143    I  - N
FA97  B0 4D     BCS $FAE6                       A:D3 X:02 Y:C9 P:A4 SP:F9 CYC:149    I  - N
FA99  C9 D3     CMP #$D3                        A:D3 X:02 Y:C9 P:A4 SP:F9 CYC:155    I  - N
FA9B  D0 49     BNE $FAE6                       A:D3 X:02 Y:C9 P:27 SP:F9 CYC:161  CZI  -  
FA9D  60        RTS                             A:D3 X:02 Y:C9 P:27 SP:F9 CYC:167  CZI  -  
EF34  AD 47 06  LDA $0647 = 52                  A:D3 X:02 Y:C9 P:27 SP:FB CYC:185  CZI  -  
EF37  C9 52     CMP #$52                        A:52 X:02 Y:C9 P:25 SP:FB CYC:197  C I  -  
EF39  F0 02     BEQ $EF3D                       A:52 X:02 Y:C9 P:27 SP:FB CYC:203  CZI  -  
EF3D  A0 FF     LDY #$FF                        A:52 X:02 Y:C9 P:27 SP:FB CYC:212  CZI  -  
EF3F  A9 37     LDA #$37                        A:52 X:02 Y:FF P:A5 SP:FB CYC:218  C I  - N
EF41  8D 47 06  STA $0647 = 52                  A:37 X:02 Y:FF P:25 SP:FB CYC:224  C I  -  
EF44  20 9E FA  JSR $FA9E                       A:37 X:02 Y:FF P:25 SP:FB CYC:236  C I  -  
FA9E  24 01     BIT $01 = FF                    A:37 X:02 Y:FF P:25 SP:F9 CYC:254  C I  -  
FAA0  38        SEC                             A:37 X:02 Y:FF P:E5 SP:F9 CYC:263  C I  -VN
FAA1  A9 10     LDA #$10                        A:37 X:02 Y:FF P:E5 SP:F9 CYC:269  C I  -VN
FAA3  60        RTS                             A:10 X:02 Y:FF P:65 SP:F9 CYC:275  C I  -V 
EF47  13 45    *SLO ($45),Y = 0548 @ 0647 = 37  A:10 X:02 Y:FF P:65 SP:FB CYC:293  C I  -V 
EF49  EA        NOP                             A:7E X:02 Y:FF P:64 SP:FB CYC:317    I  -V 
EF4A  EA        NOP                             A:7E X:02 Y:FF P:64 SP:FB CYC:323    I  -V 
EF4B  08        PHP                             A:7E X:02 Y:FF P:64 SP:FB CYC:329    I  -V 
EF4C  48        PHA                             A:7E X:02 Y:FF P:64 SP:FA CYC:338    I  -V 
EF4D  A0 CA     LDY #$CA                        A:7E X:02 Y:FF P:64 SP:F9 CYC:  6    I  -V 
EF4F  68        PLA                             A:7E X:02 Y:CA P:E4 SP:F9 CYC: 12    I  -VN
EF50  28        PLP                             A:7E X:02 Y:CA P:64 SP:FA CYC: 24    I  -V 
EF51  20 A4 FA  JSR $FAA4                       A:7E X:02 Y:CA P:64 SP:FB CYC: 36    I  -V 
FAA4  50 40     BVC $FAE6                       A:7E X:02 Y:CA P:64 SP:F9 CYC: 54    I  -V 
FAA6  F0 3E     BEQ $FAE6                       A:7E X:02 Y:CA P:64 SP:F9 CYC: 60    I  -V 
FAA8  30 3C     BMI $FAE6                       A:7E X:02 Y:CA P:64 SP:F9 CYC: 66    I  -V 
FAAA  B0 3A     BCS $FAE6                       A:7E X:02 Y:CA P:64 SP:F9 CYC: 72    I  -V 
FAAC  C9 7E     CMP #$7E                        A:7E X:02 Y:CA P:64 SP:F9 CYC: 78    I  -V 
FAAE  D0 36     BNE $FAE6                       A:7E X:02 Y:CA P:67 SP:F9 CYC: 84  CZI  -V 
FAB0  60        RTS                             A:7E X:02 Y:CA P:67 SP:F9 CYC: 90  CZI  -V 
EF54  AD 47 06  LDA $0647 = 6E                  A:7E X:02 Y:CA P:67 SP:FB CYC:108  CZI  -V 
EF57  C9 6E     CMP #$6E                        A:6E X:02 Y:CA P:65 SP:FB CYC:120  C I  -V 
EF59  F0 02     BEQ $EF5D                       A:6E X:02 Y:CA P:67 SP:FB CYC:126  CZI  -V 
EF5D  A0 CB     LDY #$CB                        A:6E X:02 Y:CA P:67 SP:FB CYC:135  CZI  -V 
EF5F  A2 FF     LDX #$FF                        A:6E X:02 Y:CB P:E5 SP:FB CYC:141  C I  -VN
EF61  A9 A5     LDA #$A5                        A:6E X:FF Y:CB P:E5 SP:FB CYC:147  C I  -VN
EF63  85 47     STA $47 = 6E                    A:A5 X:FF Y:CB P:E5 SP:FB CYC:153  C I  -VN
EF65  20 7B FA  JSR $FA7B                       A:A5 X:FF Y:CB P:E5 SP:FB CYC:162  C I  -VN
FA7B  24 01     BIT $01 = FF                    A:A5 X:FF Y:CB P:E5 SP:F9 CYC:180  C I  -VN
FA7D  18        CLC                             A:A5 X:FF Y:CB P:E5 SP:F9 CYC:189  C I  -VN
FA7E  A9 B3     LDA #$B3                        A:A5 X:FF Y:CB P:E4 SP:F9 CYC:195    I  -VN
FA80  60        RTS                             A:B3 X:FF Y:CB P:E4 SP:F9 CYC:201    I  -VN
EF68  17 48    *SLO $48,X @ 47 = A5             A:B3 X:FF Y:CB P:E4 SP:FB CYC:219    I  -VN
EF6A  EA        NOP                             A:FB X:FF Y:CB P:E5 SP:FB CYC:237  C I  -VN
EF6B  EA        NOP                             A:FB X:FF Y:CB P:E5 SP:FB CYC:243  C I  -VN
EF6C  EA        NOP                             A:FB X:FF Y:CB P:E5 SP:FB CYC:249  C I  -VN
EF6D  EA        NOP                             A:FB X:FF Y:CB P:E5 SP:FB CYC:255  C I  -VN
EF6E  20 81 FA  JSR $FA81                       A:FB X:FF Y:CB P:E5 SP:FB CYC:261  C I  -VN
FA81  50 63     BVC $FAE6                       A:FB X:FF Y:CB P:E5 SP:F9 CYC:279  C I  -VN
FA83  90 61     BCC $FAE6                       A:FB X:FF Y:CB P:E5 SP:F9 CYC:285  C I  -VN
FA85  10 5F     BPL $FAE6                       A:FB X:FF Y:CB P:E5 SP:F9 CYC:291  C I  -VN
FA87  C9 FB     CMP #$FB                        A:FB X:FF Y:CB P:E5 SP:F9 CYC:297  C I  -VN
FA89  D0 5B     BNE $FAE6                       A:FB X:FF Y:CB P:67 SP:F9 CYC:303  CZI  -V 
FA8B  60        RTS                             A:FB X:FF Y:CB P:67 SP:F9 CYC:309  CZI  -V 
EF71  A5 47     LDA $47 = 4A                    A:FB X:FF Y:CB P:67 SP:FB CYC:327  CZI  -V 
EF73  C9 4A     CMP #$4A                        A:4A X:FF Y:CB P:65 SP:FB CYC:336  C I  -V 
EF75  F0 02     BEQ $EF79                       A:4A X:FF Y:CB P:67 SP:FB CYC:  1  CZI  -V 
EF79  C8        INY                             A:4A X:FF Y:CB P:67 SP:FB CYC: 10  CZI  -V 
EF7A  A9 29     LDA #$29                        A:4A X:FF Y:CC P:E5 SP:FB CYC: 16  C I  -VN
EF7C  85 47     STA $47 = 4A                    A:29 X:FF Y:CC P:65 SP:FB CYC: 22  C I  -V 
EF7E  20 8C FA  JSR $FA8C                       A:29 X:FF Y:CC P:65 SP:FB CYC: 31  C I  -V 
FA8C  B8        CLV                             A:29 X:FF Y:CC P:65 SP:F9 CYC: 49  C I  -V 
FA8D  18        CLC                             A:29 X:FF Y:CC P:25 SP:F9 CYC: 55  C I  -  
FA8E  A9 C3     LDA #$C3                        A:29 X:FF Y:CC P:24 SP:F9 CYC: 61    I  -  
FA90  60        RTS                             A:C3 X:FF Y:CC P:A4 SP:F9 CYC: 67    I  - N
EF81  17 48    *SLO $48,X @ 47 = 29             A:C3 X:FF Y:CC P:A4 SP:FB CYC: 85    I  - N
EF83  EA        NOP                             A:D3 X:FF Y:CC P:A4 SP:FB CYC:103    I  - N
EF84  EA        NOP                             A:D3 X:FF Y:CC P:A4 SP:FB CYC:109    I  - N
EF85  EA        NOP                             A:D3 X:FF Y:CC P:A4 SP:FB CYC:115    I  - N
EF86  EA        NOP                             A:D3 X:FF Y:CC P:A4 SP:FB CYC:121    I  - N
EF87  20 91 FA  JSR $FA91                       A:D3 X:FF Y:CC P:A4 SP:FB CYC:127    I  - N
FA91  70 53     BVS $FAE6                       A:D3 X:FF Y:CC P:A4 SP:F9 CYC:145    I  - N
FA93  F0 51     BEQ $FAE6                       A:D3 X:FF Y:CC P:A4 SP:F9 CYC:151    I  - N
FA95  10 4F     BPL $FAE6                       A:D3 X:FF Y:CC P:A4 SP:F9 CYC:157    I  - N
FA97  B0 4D     BCS $FAE6                       A:D3 X:FF Y:CC P:A4 SP:F9 CYC:163    I  - N
FA99  C9 D3     CMP #$D3                        A:D3 X:FF Y:CC P:A4 SP:F9 CYC:169    I  - N
FA9B  D0 49     BNE $FAE6                       A:D3 X:FF Y:CC P:27 SP:F9 CYC:175  CZI  -  
FA9D  60        RTS                             A:D3 X:FF Y:CC P:27 SP:F9 CYC:181  CZI  -  
EF8A  A5 47     LDA $47 = 52                    A:D3 X:FF Y:CC P:27 SP:FB CYC:199  CZI  -  
EF8C  C9 52     CMP #$52                        A:52 X:FF Y:CC P:25 SP:FB CYC:208  C I  -  
EF8E  F0 02     BEQ $EF92                       A:52 X:FF Y:CC P:27 SP:FB CYC:214  CZI  -  
EF92  C8        INY                             A:52 X:FF Y:CC P:27 SP:FB CYC:223  CZI  -  
EF93  A9 37     LDA #$37                        A:52 X:FF Y:CD P:A5 SP:FB CYC:229  C I  - N
EF95  85 47     STA $47 = 52                    A:37 X:FF Y:CD P:25 SP:FB CYC:235  C I  -  
EF97  20 9E FA  JSR $FA9E                       A:37 X:FF Y:CD P:25 SP:FB CYC:244  C I  -  
FA9E  24 01     BIT $01 = FF                    A:37 X:FF Y:CD P:25 SP:F9 CYC:262  C I  -  
FAA0  38        SEC                             A:37 X:FF Y:CD P:E5 SP:F9 CYC:271  C I  -VN
FAA1  A9 10     LDA #$10                        A:37 X:FF Y:CD P:E5 SP:F9 CYC:277  C I  -VN
FAA3  60        RTS                             A:10 X:FF Y:CD P:65 SP:F9 CYC:283  C I  -V 
EF9A  17 48    *SLO $48,X @ 47 = 37             A:10 X:FF Y:CD P:65 SP:FB CYC:301  C I  -V 
EF9C  EA        NOP                             A:7E X:FF Y:CD P:64 SP:FB CYC:319    I  -V 
EF9D  EA        NOP                             A:7E X:FF Y:CD P:64 SP:FB CYC:325    I  -V 
EF9E  EA        NOP                             A:7E X:FF Y:CD P:64 SP:FB CYC:331    I  -V 
EF9F  EA        NOP                             A:7E X:FF Y:CD P:64 SP:FB CYC:337    I  -V 
EFA0  20 A4 FA  JSR $FAA4                       A:7E X:FF Y:CD P:64 SP:FB CYC:  2    I  -V 
FAA4  50 40     BVC $FAE6                       A:7E X:FF Y:CD P:64 SP:F9 CYC: 20    I  -V 
FAA6  F0 3E     BEQ $FAE6                       A:7E X:FF Y:CD P:64 SP:F9 CYC: 26    I  -V 
FAA8  30 3C     BMI $FAE6                       A:7E X:FF Y:CD P:64 SP:F9 CYC: 32    I  -V 
FAAA  B0 3A     BCS $FAE6                       A:7E X:FF Y:CD P:64 SP:F9 CYC: 38    I  -V 
FAAC  C9 7E     CMP #$7E                        A:7E X:FF Y:CD P:64 SP:F9 CYC: 44    I  -V 
FAAE  D0 36     BNE $FAE6                       A:7E X:FF Y:CD P:67 SP:F9 CYC: 50  CZI  -V 
FAB0  60        RTS                             A:7E X:FF Y:CD P:67 SP:F9 CYC: 56  CZI  -V 
EFA3  A5 47     LDA $47 = 6E                    A:7E X:FF Y:CD P:67 SP:FB CYC: 74  CZI  -V 
EFA5  C9 6E     CMP #$6E                        A:6E X:FF Y:CD P:65 SP:FB CYC: 83  C I  -V 
EFA7  F0 02     BEQ $EFAB                       A:6E X:FF Y:CD P:67 SP:FB CYC: 89  CZI  -V 
EFAB  A9 A5     LDA #$A5                        A:6E X:FF Y:CD P:67 SP:FB CYC: 98  CZI  -V 
EFAD  8D 47 06  STA $0647 = 6E                  A:A5 X:FF Y:CD P:E5 SP:FB CYC:104  C I  -VN
EFB0  A0 FF     LDY #$FF                        A:A5 X:FF Y:CD P:E5 SP:FB CYC:116  C I  -VN
EFB2  20 7B FA  JSR $FA7B                       A:A5 X:FF Y:FF P:E5 SP:FB CYC:122  C I  -VN
FA7B  24 01     BIT $01 = FF                    A:A5 X:FF Y:FF P:E5 SP:F9 CYC:140  C I  -VN
FA7D  18        CLC                             A:A5 X:FF Y:FF P:E5 SP:F9 CYC:149  C I  -VN
FA7E  A9 B3     LDA #$B3                        A:A5 X:FF Y:FF P:E4 SP:F9 CYC:155    I  -VN
FA80  60        RTS                             A:B3 X:FF Y:FF P:E4 SP:F9 CYC:161    I  -VN
EFB5  1B 48 05 *SLO $0548,Y @ 0647 = A5         A:B3 X:FF Y:FF P:E4 SP:FB CYC:179    I  -VN
EFB8  EA        NOP                             A:FB X:FF Y:FF P:E5 SP:FB CYC:200  C I  -VN
EFB9  EA        NOP                             A:FB X:FF Y:FF P:E5 SP:FB CYC:206  C I  -VN
EFBA  08        PHP                             A:FB X:FF Y:FF P:E5 SP:FB CYC:212  C I  -VN
EFBB  48        PHA                             A:FB X:FF Y:FF P:E5 SP:FA CYC:221  C I  -VN
EFBC  A0 CE     LDY #$CE                        A:FB X:FF Y:FF P:E5 SP:F9 CYC:230  C I  -VN
EFBE  68        PLA                             A:FB X:FF Y:CE P:E5 SP:F9 CYC:236  C I  -VN
EFBF  28        PLP                             A:FB X:FF Y:CE P:E5 SP:FA CYC:248  C I  -VN
EFC0  20 81 FA  JSR $FA81                       A:FB X:FF Y:CE P:E5 SP:FB CYC:260  C I  -VN
FA81  50 63     BVC $FAE6                       A:FB X:FF Y:CE P:E5 SP:F9 CYC:278  C I  -VN
FA83  90 61     BCC $FAE6                       A:FB X:FF Y:CE P:E5 SP:F9 CYC:284  C I  -VN
FA85  10 5F     BPL $FAE6                       A:FB X:FF Y:CE P:E5 SP:F9 CYC:290  C I  -VN
FA87  C9 FB     CMP #$FB                        A:FB X:FF Y:CE P:E5 SP:F9 CYC:296  C I  -VN
FA89  D0 5B     BNE $FAE6                       A:FB X:FF Y:CE P:67 SP:F9 CYC:302  CZI  -V 
FA8B  60        RTS                             A:FB X:FF Y:CE P:67 SP:F9 CYC:308  CZI  -V 
EFC3  AD 47 06  LDA $0647 = 4A                  A:FB X:FF Y:CE P:67 SP:FB CYC:326  CZI  -V 
EFC6  C9 4A     CMP #$4A                        A:4A X:FF Y:CE P:65 SP:FB CYC:338  C I  -V 
EFC8  F0 02     BEQ $EFCC                       A:4A X:FF Y:CE P:67 SP:FB CYC:  3  CZI  -V 
EFCC  A0 FF     LDY #$FF                        A:4A X:FF Y:CE P:67 SP:FB CYC: 12  CZI  -V 
EFCE  A9 29     LDA #$29                        A:4A X:FF Y:FF P:E5 SP:FB CYC: 18  C I  -VN
EFD0  8D 47 06  STA $0647 = 4A                  A:29 X:FF Y:FF P:65 SP:FB CYC: 24  C I  -V 
EFD3  20 8C FA  JSR $FA8C                       A:29 X:FF Y:FF P:65 SP:FB CYC: 36  C I  -V 
FA8C  B8        CLV                             A:29 X:FF Y:FF P:65 SP:F9 CYC: 54  C I  -V 
FA8D  18        CLC                             A:29 X:FF Y:FF P:25 SP:F9 CYC: 60  C I  -  
FA8E  A9 C3     LDA #$C3                        A:29 X:FF Y:FF P:24 SP:F9 CYC: 66    I  -  
FA90  60        RTS                             A:C3 X:FF Y:FF P:A4 SP:F9 CYC: 72    I  - N
EFD6  1B 48 05 *SLO $0548,Y @ 0647 = 29         A:C3 X:FF Y:FF P:A4 SP:FB CYC: 90    I  - N
EFD9  EA        NOP                             A:D3 X:FF Y:FF P:A4 SP:FB CYC:111    I  - N
EFDA  EA        NOP                             A:D3 X:FF Y:FF P:A4 SP:FB CYC:117    I  - N
EFDB  08        PHP                             A:D3 X:FF Y:FF P:A4 SP:FB CYC:123    I  - N
EFDC  48        PHA                             A:D3 X:FF Y:FF P:A4 SP:FA CYC:132    I  - N
EFDD  A0 CF     LDY #$CF                        A:D3 X:FF Y:FF P:A4 SP:F9 CYC:141    I  - N
EFDF  68        PLA                             A:D3 X:FF Y:CF P:A4 SP:F9 CYC:147    I  - N
EFE0  28        PLP                             A:D3 X:FF Y:CF P:A4 SP:FA CYC:159    I  - N
EFE1  20 91 FA  JSR $FA91                       A:D3 X:FF Y:CF P:A4 SP:FB CYC:171    I  - N
FA91  70 53     BVS $FAE6                       A:D3 X:FF Y:CF P:A4 SP:F9 CYC:189    I  - N
FA93  F0 51     BEQ $FAE6                       A:D3 X:FF Y:CF P:A4 SP:F9 CYC:195    I  - N
FA95  10 4F     BPL $FAE6                       A:D3 X:FF Y:CF P:A4 SP:F9 CYC:201    I  - N
FA97  B0 4D     BCS $FAE6                       A:D3 X:FF Y:CF P:A4 SP:F9 CYC:207    I  - N
FA99  C9 D3     CMP #$D3                        A:D3 X:FF Y:CF P:A4 SP:F9 CYC:213    I  - N
FA9B  D0 49     BNE $FAE6                       A:D3 X:FF Y:CF P:27 SP:F9 CYC:219  CZI  -  
FA9D  60        RTS                             A:D3 X:FF Y:CF P:27 SP:F9 CYC:225  CZI  -  
EFE4  AD 47 06  LDA $0647 = 52                  A:D3 X:FF Y:CF P:27 SP:FB CYC:243  CZI  -  
EFE7  C9 52     CMP #$52                        A:52 X:FF Y:CF P:25 SP:FB CYC:255  C I  -  
EFE9  F0 02     BEQ $EFED                       A:52 X:FF Y:CF P:27 SP:FB CYC:261  CZI  -  
EFED  A0 FF     LDY #$FF                        A:52 X:FF Y:CF P:27 SP:FB CYC:270  CZI  -  
EFEF  A9 37     LDA #$37                        A:52 X:FF Y:FF P:A5 SP:FB CYC:276  C I  - N
EFF1  8D 47 06  STA $0647 = 52                  A:37 X:FF Y:FF P:25 SP:FB CYC:282  C I  -  
EFF4  20 9E FA  JSR $FA9E                       A:37 X:FF Y:FF P:25 SP:FB CYC:294  C I  -  
FA9E  24 01     BIT $01 = FF                    A:37 X:FF Y:FF P:25 SP:F9 CYC:312  C I  -  
FAA0  38        SEC                             A:37 X:FF Y:FF P:E5 SP:F9 CYC:321  C I  -VN
FAA1  A9 10     LDA #$10                        A:37 X:FF Y:FF P:E5 SP:F9 CYC:327  C I  -VN
FAA3  60        RTS                             A:10 X:FF Y:FF P:65 SP:F9 CYC:333  C I  -V 
EFF7  1B 48 05 *SLO $0548,Y @ 0647 = 37         A:10 X:FF Y:FF P:65 SP:FB CYC: 10  C I  -V 
EFFA  EA        NOP                             A:7E X:FF Y:FF P:64 SP:FB CYC: 31    I  -V 
EFFB  EA        NOP                             A:7E X:FF Y:FF P:64 SP:FB CYC: 37    I  -V 
EFFC  08        PHP                             A:7E X:FF Y:FF P:64 SP:FB CYC: 43    I  -V 
EFFD  48        PHA                             A:7E X:FF Y:FF P:64 SP:FA CYC: 52    I  -V 
EFFE  A0 D0     LDY #$D0                        A:7E X:FF Y:FF P:64 SP:F9 CYC: 61    I  -V 
F000  68        PLA                             A:7E X:FF Y:D0 P:E4 SP:F9 CYC: 67    I  -VN
F001  28        PLP                             A:7E X:FF Y:D0 P:64 SP:FA CYC: 79    I  -V 
F002  20 A4 FA  JSR $FAA4                       A:7E X:FF Y:D0 P:64 SP:FB CYC: 91    I  -V 
FAA4  50 40     BVC $FAE6                       A:7E X:FF Y:D0 P:64 SP:F9 CYC:109    I  -V 
FAA6  F0 3E     BEQ $FAE6                       A:7E X:FF Y:D0 P:64 SP:F9 CYC:115    I  -V 
FAA8  30 3C     BMI $FAE6                       A:7E X:FF Y:D0 P:64 SP:F9 CYC:121    I  -V 
FAAA  B0 3A     BCS $FAE6                       A:7E X:FF Y:D0 P:64 SP:F9 CYC:127    I  -V 
FAAC  C9 7E     CMP #$7E                        A:7E X:FF Y:D0 P:64 SP:F9 CYC:133    I  -V 
FAAE  D0 36     BNE $FAE6                       A:7E X:FF Y:D0 P:67 SP:F9 CYC:139  CZI  -V 
FAB0  60        RTS                             A:7E X:FF Y:D0 P:67 SP:F9 CYC:145  CZI  -V 
F005  AD 47 06  LDA $0647 = 6E                  A:7E X:FF Y:D0 P:67 SP:FB CYC:163  CZI  -V 
F008  C9 6E     CMP #$6E                        A:6E X:FF Y:D0 P:65 SP:FB CYC:175  C I  -V 
F00A  F0 02     BEQ $F00E                       A:6E X:FF Y:D0 P:67 SP:FB CYC:181  CZI  -V 
F00E  A0 D1     LDY #$D1                        A:6E X:FF Y:D0 P:67 SP:FB CYC:190  CZI  -V 
F010  A2 FF     LDX #$FF                        A:6E X:FF Y:D1 P:E5 SP:FB CYC:196  C I  -VN
F012  A9 A5     LDA #$A5                        A:6E X:FF Y:D1 P:E5 SP:FB CYC:202  C I  -VN
F014  8D 47 06  STA $0647 = 6E                  A:A5 X:FF Y:D1 P:E5 SP:FB CYC:208  C I  -VN
F017  20 7B FA  JSR $FA7B                       A:A5 X:FF Y:D1 P:E5 SP:FB CYC:220  C I  -VN
FA7B  24 01     BIT $01 = FF                    A:A5 X:FF Y:D1 P:E5 SP:F9 CYC:238  C I  -VN
FA7D  18        CLC                             A:A5 X:FF Y:D1 P:E5 SP:F9 CYC:247  C I  -VN
FA7E  A9 B3     LDA #$B3                        A:A5 X:FF Y:D1 P:E4 SP:F9 CYC:253    I  -VN
FA80  60        RTS                             A:B3 X:FF Y:D1 P:E4 SP:F9 CYC:259    I  -VN
F01A  1F 48 05 *SLO $0548,X @ 0647 = A5         A:B3 X:FF Y:D1 P:E4 SP:FB CYC:277    I  -VN
F01D  EA        NOP                             A:FB X:FF Y:D1 P:E5 SP:FB CYC:298  C I  -VN
F01E  EA        NOP                             A:FB X:FF Y:D1 P:E5 SP:FB CYC:304  C I  -VN
F01F  EA        NOP                             A:FB X:FF Y:D1 P:E5 SP:FB CYC:310  C I  -VN
F020  EA        NOP                             A:FB X:FF Y:D1 P:E5 SP:FB CYC:316  C I  -VN
F021  20 81 FA  JSR $FA81                       A:FB X:FF Y:D1 P:E5 SP:FB CYC:322  C I  -VN
FA81  50 63     BVC $FAE6                       A:FB X:FF Y:D1 P:E5 SP:F9 CYC:340  C I  -VN
FA83  90 61     BCC $FAE6                       A:FB X:FF Y:D1 P:E5 SP:F9 CYC:  5  C I  -VN
FA85  10 5F     BPL $FAE6                       A:FB X:FF Y:D1 P:E5 SP:F9 CYC: 11  C I  -VN
FA87  C9 FB     CMP #$FB                        A:FB X:FF Y:D1 P:E5 SP:F9 CYC: 17  C I  -VN
FA89  D0 5B     BNE $FAE6                       A:FB X:FF Y:D1 P:67 SP:F9 CYC: 23  CZI  -V 
FA8B  60        RTS                             A:FB X:FF Y:D1 P:67 SP:F9 CYC: 29  CZI  -V 
F024  AD 47 06  LDA $0647 = 4A                  A:FB X:FF Y:D1 P:67 SP:FB CYC: 47  CZI  -V 
F027  C9 4A     CMP #$4A                        A:4A X:FF Y:D1 P:65 SP:FB CYC: 59  C I  -V 
F029  F0 02     BEQ $F02D                       A:4A X:FF Y:D1 P:67 SP:FB CYC: 65  CZI  -V 
F02D  C8        INY                             A:4A X:FF Y:D1 P:67 SP:FB CYC: 74  CZI  -V 
F02E  A9 29     LDA #$29                        A:4A X:FF Y:D2 P:E5 SP:FB CYC: 80  C I  -VN
F030  8D 47 06  STA $0647 = 4A                  A:29 X:FF Y:D2 P:65 SP:FB CYC: 86  C I  -V 
F033  20 8C FA  JSR $FA8C                       A:29 X:FF Y:D2 P:65 SP:FB CYC: 98  C I  -V 
FA8C  B8        CLV                             A:29 X:FF Y:D2 P:65 SP:F9 CYC:116  C I  -V 
FA8D  18        CLC                             A:29 X:FF Y:D2 P:25 SP:F9 CYC:122  C I  -  
FA8E  A9 C3     LDA #$C3                        A:29 X:FF Y:D2 P:24 SP:F9 CYC:128    I  -  
FA90  60        RTS                             A:C3 X:FF Y:D2 P:A4 SP:F9 CYC:134    I  - N
F036  1F 48 05 *SLO $0548,X @ 0647 = 29         A:C3 X:FF Y:D2 P:A4 SP:FB CYC:152    I  - N
F039  EA        NOP                             A:D3 X:FF Y:D2 P:A4 SP:FB CYC:173    I  - N
F03A  EA        NOP                             A:D3 X:FF Y:D2 P:A4 SP:FB CYC:179    I  - N
F03B  EA        NOP                             A:D3 X:FF Y:D2 P:A4 SP:FB CYC:185    I  - N
F03C  EA        NOP                             A:D3 X:FF Y:D2 P:A4 SP:FB CYC:191    I  - N
F03D  20 91 FA  JSR $FA91                       A:D3 X:FF Y:D2 P:A4 SP:FB CYC:197    I  - N
FA91  70 53     BVS $FAE6                       A:D3 X:FF Y:D2 P:A4 SP:F9 CYC:215    I  - N
FA93  F0 51     BEQ $FAE6                       A:D3 X:FF Y:D2 P:A4 SP:F9 CYC:221    I  - N
FA95  10 4F     BPL $FAE6                       A:D3 X:FF Y:D2 P:A4 SP:F9 CYC:227    I  - N
FA97  B0 4D     BCS $FAE6                       A:D3 X:FF Y:D2 P:A4 SP:F9 CYC:233    I  - N
FA99  C9 D3     CMP #$D3                        A:D3 X:FF Y:D2 P:A4 SP:F9 CYC:239    I  - N
FA9B  D0 49     BNE $FAE6                       A:D3 X:FF Y:D2 P:27 SP:F9 CYC:245  CZI  -  
FA9D  60        RTS                             A:D3 X:FF Y:D2 P:27 SP:F9 CYC:251  CZI  -  
F040  AD 47 06  LDA $0647 = 52                  A:D3 X:FF Y:D2 P:27 SP:FB CYC:269  CZI  -  
F043  C9 52     CMP #$52                        A:52 X:FF Y:D2 P:25 SP:FB CYC:281  C I  -  
F045  F0 02     BEQ $F049                       A:52 X:FF Y:D2 P:27 SP:FB CYC:287  CZI  -  
F049  C8        INY                             A:52 X:FF Y:D2 P:27 SP:FB CYC:296  CZI  -  
F04A  A9 37     LDA #$37                        A:52 X:FF Y:D3 P:A5 SP:FB CYC:302  C I  - N
F04C  8D 47 06  STA $0647 = 52                  A:37 X:FF Y:D3 P:25 SP:FB CYC:308  C I  -  
F04F  20 9E FA  JSR $FA9E                       A:37 X:FF Y:D3 P:25 SP:FB CYC:320  C I  -  
FA9E  24 01     BIT $01 = FF                    A:37 X:FF Y:D3 P:25 SP:F9 CYC:338  C I  -  
FAA0  38        SEC                             A:37 X:FF Y:D3 P:E5 SP:F9 CYC:  6  C I  -VN
FAA1  A9 10     LDA #$10                        A:37 X:FF Y:D3 P:E5 SP:F9 CYC: 12  C I  -VN
FAA3  60        RTS                             A:10 X:FF Y:D3 P:65 SP:F9 CYC: 18  C I  -V 
F052  1F 48 05 *SLO $0548,X @ 0647 = 37         A:10 X:FF Y:D3 P:65 SP:FB CYC: 36  C I  -V 
F055  EA        NOP                             A:7E X:FF Y:D3 P:64 SP:FB CYC: 57    I  -V 
F056  EA        NOP                             A:7E X:FF Y:D3 P:64 SP:FB CYC: 63    I  -V 
F057  EA        NOP                             A:7E X:FF Y:D3 P:64 SP:FB CYC: 69    I  -V 
F058  EA        NOP                             A:7E X:FF Y:D3 P:64 SP:FB CYC: 75    I  -V 
F059  20 A4 FA  JSR $FAA4                       A:7E X:FF Y:D3 P:64 SP:FB CYC: 81    I  -V 
FAA4  50 40     BVC $FAE6                       A:7E X:FF Y:D3 P:64 SP:F9 CYC: 99    I  -V 
FAA6  F0 3E     BEQ $FAE6                       A:7E X:FF Y:D3 P:64 SP:F9 CYC:105    I  -V 
FAA8  30 3C     BMI $FAE6                       A:7E X:FF Y:D3 P:64 SP:F9 CYC:111    I  -V 
FAAA  B0 3A     BCS $FAE6                       A:7E X:FF Y:D3 P:64 SP:F9 CYC:117    I  -V 
FAAC  C9 7E     CMP #$7E                        A:7E X:FF Y:D3 P:64 SP:F9 CYC:123    I  -V 
FAAE  D0 36     BNE $FAE6                       A:7E X:FF Y:D3 P:67 SP:F9 CYC:129  CZI  -V 
FAB0  60        RTS                             A:7E X:FF Y:D3 P:67 SP:F9 CYC:135  CZI  -V 
F05C  AD 47 06  LDA $0647 = 6E                  A:7E X:FF Y:D3 P:67 SP:FB CYC:153  CZI  -V 
F05F  C9 6E     CMP #$6E                        A:6E X:FF Y:D3 P:65 SP:FB CYC:165  C I  -V 
F061  F0 02     BEQ $F065                       A:6E X:FF Y:D3 P:67 SP:FB CYC:171  CZI  -V 
F065  60        RTS                             A:6E X:FF Y:D3 P:67 SP:FB CYC:180  CZI  -V 
C644  20 66 F0  JSR $F066                       A:6E X:FF Y:D3 P:67 SP:FD CYC:198  CZI  -V 
F066  A9 FF     LDA #$FF                        A:6E X:FF Y:D3 P:67 SP:FB CYC:216  CZI  -V 
F068  85 01     STA $01 = FF                    A:FF X:FF Y:D3 P:E5 SP:FB CYC:222  C I  -VN
F06A  A0 D4     LDY #$D4                        A:FF X:FF Y:D3 P:E5 SP:FB CYC:231  C I  -VN
F06C  A2 02     LDX #$02                        A:FF X:FF Y:D4 P:E5 SP:FB CYC:237  C I  -VN
F06E  A9 47     LDA #$47                        A:FF X:02 Y:D4 P:65 SP:FB CYC:243  C I  -V 
F070  85 47     STA $47 = 6E                    A:47 X:02 Y:D4 P:65 SP:FB CYC:249  C I  -V 
F072  A9 06     LDA #$06                        A:47 X:02 Y:D4 P:65 SP:FB CYC:258  C I  -V 
F074  85 48     STA $48 = 06                    A:06 X:02 Y:D4 P:65 SP:FB CYC:264  C I  -V 
F076  A9 A5     LDA #$A5                        A:06 X:02 Y:D4 P:65 SP:FB CYC:273  C I  -V 
F078  8D 47 06  STA $0647 = 6E                  A:A5 X:02 Y:D4 P:E5 SP:FB CYC:279  C I  -VN
F07B  20 53 FB  JSR $FB53                       A:A5 X:02 Y:D4 P:E5 SP:FB CYC:291  C I  -VN
FB53  24 01     BIT $01 = FF                    A:A5 X:02 Y:D4 P:E5 SP:F9 CYC:309  C I  -VN
FB55  18        CLC                             A:A5 X:02 Y:D4 P:E5 SP:F9 CYC:318  C I  -VN
FB56  A9 B3     LDA #$B3                        A:A5 X:02 Y:D4 P:E4 SP:F9 CYC:324    I  -VN
FB58  60        RTS                             A:B3 X:02 Y:D4 P:E4 SP:F9 CYC:330    I  -VN
F07E  23 45    *RLA ($45,X) @ 47 = 0647 = A5    A:B3 X:02 Y:D4 P:E4 SP:FB CYC:  7    I  -VN
F080  EA        NOP                             A:02 X:02 Y:D4 P:65 SP:FB CYC: 31  C I  -V 
F081  EA        NOP                             A:02 X:02 Y:D4 P:65 SP:FB CYC: 37  C I  -V 
F082  EA        NOP                             A:02 X:02 Y:D4 P:65 SP:FB CYC: 43  C I  -V 
F083  EA        NOP                             A:02 X:02 Y:D4 P:65 SP:FB CYC: 49  C I  -V 
F084  20 59 FB  JSR $FB59                       A:02 X:02 Y:D4 P:65 SP:FB CYC: 55  C I  -V 
FB59  50 1A     BVC $FB75                       A:02 X:02 Y:D4 P:65 SP:F9 CYC: 73  C I  -V 
FB5B  90 18     BCC $FB75                       A:02 X:02 Y:D4 P:65 SP:F9 CYC: 79  C I  -V 
FB5D  30 16     BMI $FB75                       A:02 X:02 Y:D4 P:65 SP:F9 CYC: 85  C I  -V 
FB5F  C9 02     CMP #$02                        A:02 X:02 Y:D4 P:65 SP:F9 CYC: 91  C I  -V 
FB61  D0 12     BNE $FB75                       A:02 X:02 Y:D4 P:67 SP:F9 CYC: 97  CZI  -V 
FB63  60        RTS                             A:02 X:02 Y:D4 P:67 SP:F9 CYC:103  CZI  -V 
F087  AD 47 06  LDA $0647 = 4A                  A:02 X:02 Y:D4 P:67 SP:FB CYC:121  CZI  -V 
F08A  C9 4A     CMP #$4A                        A:4A X:02 Y:D4 P:65 SP:FB CYC:133  C I  -V 
F08C  F0 02     BEQ $F090                       A:4A X:02 Y:D4 P:67 SP:FB CYC:139  CZI  -V 
F090  C8        INY                             A:4A X:02 Y:D4 P:67 SP:FB CYC:148  CZI  -V 
F091  A9 29     LDA #$29                        A:4A X:02 Y:D5 P:E5 SP:FB CYC:154  C I  -VN
F093  8D 47 06  STA $0647 = 4A                  A:29 X:02 Y:D5 P:65 SP:FB CYC:160  C I  -V 
F096  20 64 FB  JSR $FB64                       A:29 X:02 Y:D5 P:65 SP:FB CYC:172  C I  -V 
FB64  B8        CLV                             A:29 X:02 Y:D5 P:65 SP:F9 CYC:190  C I  -V 
FB65  18        CLC                             A:29 X:02 Y:D5 P:25 SP:F9 CYC:196  C I  -  
FB66  A9 42     LDA #$42                        A:29 X:02 Y:D5 P:24 SP:F9 CYC:202    I  -  
FB68  60        RTS                             A:42 X:02 Y:D5 P:24 SP:F9 CYC:208    I  -  
F099  23 45    *RLA ($45,X) @ 47 = 0647 = 29    A:42 X:02 Y:D5 P:24 SP:FB CYC:226    I  -  
F09B  EA        NOP                             A:42 X:02 Y:D5 P:24 SP:FB CYC:250    I  -  
F09C  EA        NOP                             A:42 X:02 Y:D5 P:24 SP:FB CYC:256    I  -  
F09D  EA        NOP                             A:42 X:02 Y:D5 P:24 SP:FB CYC:262    I  -  
F09E  EA        NOP                             A:42 X:02 Y:D5 P:24 SP:FB CYC:268    I  -  
F09F  20 69 FB  JSR $FB69                       A:42 X:02 Y:D5 P:24 SP:FB CYC:274    I  -  
FB69  70 0A     BVS $FB75                       A:42 X:02 Y:D5 P:24 SP:F9 CYC:292    I  -  
FB6B  F0 08     BEQ $FB75                       A:42 X:02 Y:D5 P:24 SP:F9 CYC:298    I  -  
FB6D  30 06     BMI $FB75                       A:42 X:02 Y:D5 P:24 SP:F9 CYC:304    I  -  
FB6F  B0 04     BCS $FB75                       A:42 X:02 Y:D5 P:24 SP:F9 CYC:310    I  -  
FB71  C9 42     CMP #$42                        A:42 X:02 Y:D5 P:24 SP:F9 CYC:316    I  -  
FB73  F0 02     BEQ $FB77                       A:42 X:02 Y:D5 P:27 SP:F9 CYC:322  CZI  -  
FB77  60        RTS                             A:42 X:02 Y:D5 P:27 SP:F9 CYC:331  CZI  -  
F0A2  AD 47 06  LDA $0647 = 52                  A:42 X:02 Y:D5 P:27 SP:FB CYC:  8  CZI  -  
F0A5  C9 52     CMP #$52                        A:52 X:02 Y:D5 P:25 SP:FB CYC: 20  C I  -  
F0A7  F0 02     BEQ $F0AB                       A:52 X:02 Y:D5 P:27 SP:FB CYC: 26  CZI  -  
F0AB  C8        INY                             A:52 X:02 Y:D5 P:27 SP:FB CYC: 35  CZI  -  
F0AC  A9 37     LDA #$37                        A:52 X:02 Y:D6 P:A5 SP:FB CYC: 41  C I  - N
F0AE  8D 47 06  STA $0647 = 52                  A:37 X:02 Y:D6 P:25 SP:FB CYC: 47  C I  -  
F0B1  20 68 FA  JSR $FA68                       A:37 X:02 Y:D6 P:25 SP:FB CYC: 59  C I  -  
FA68  24 01     BIT $01 = FF                    A:37 X:02 Y:D6 P:25 SP:F9 CYC: 77  C I  -  
FA6A  38        SEC                             A:37 X:02 Y:D6 P:E5 SP:F9 CYC: 86  C I  -VN
FA6B  A9 75     LDA #$75                        A:37 X:02 Y:D6 P:E5 SP:F9 CYC: 92  C I  -VN
FA6D  60        RTS                             A:75 X:02 Y:D6 P:65 SP:F9 CYC: 98  C I  -V 
F0B4  23 45    *RLA ($45,X) @ 47 = 0647 = 37    A:75 X:02 Y:D6 P:65 SP:FB CYC:116  C I  -V 
F0B6  EA        NOP                             A:65 X:02 Y:D6 P:64 SP:FB CYC:140    I  -V 
F0B7  EA        NOP                             A:65 X:02 Y:D6 P:64 SP:FB CYC:146    I  -V 
F0B8  EA        NOP                             A:65 X:02 Y:D6 P:64 SP:FB CYC:152    I  -V 
F0B9  EA        NOP                             A:65 X:02 Y:D6 P:64 SP:FB CYC:158    I  -V 
F0BA  20 6E FA  JSR $FA6E                       A:65 X:02 Y:D6 P:64 SP:FB CYC:164    I  -V 
FA6E  50 76     BVC $FAE6                       A:65 X:02 Y:D6 P:64 SP:F9 CYC:182    I  -V 
FA70  F0 74     BEQ $FAE6                       A:65 X:02 Y:D6 P:64 SP:F9 CYC:188    I  -V 
FA72  30 72     BMI $FAE6                       A:65 X:02 Y:D6 P:64 SP:F9 CYC:194    I  -V 
FA74  B0 70     BCS $FAE6                       A:65 X:02 Y:D6 P:64 SP:F9 CYC:200    I  -V 
FA76  C9 65     CMP #$65                        A:65 X:02 Y:D6 P:64 SP:F9 CYC:206    I  -V 
FA78  D0 6C     BNE $FAE6                       A:65 X:02 Y:D6 P:67 SP:F9 CYC:212  CZI  -V 
FA7A  60        RTS                             A:65 X:02 Y:D6 P:67 SP:F9 CYC:218  CZI  -V 
F0BD  AD 47 06  LDA $0647 = 6F                  A:65 X:02 Y:D6 P:67 SP:FB CYC:236  CZI  -V 
F0C0  C9 6F     CMP #$6F                        A:6F X:02 Y:D6 P:65 SP:FB CYC:248  C I  -V 
F0C2  F0 02     BEQ $F0C6                       A:6F X:02 Y:D6 P:67 SP:FB CYC:254  CZI  -V 
F0C6  C8        INY                             A:6F X:02 Y:D6 P:67 SP:FB CYC:263  CZI  -V 
F0C7  A9 A5     LDA #$A5                        A:6F X:02 Y:D7 P:E5 SP:FB CYC:269  C I  -VN
F0C9  85 47     STA $47 = 47                    A:A5 X:02 Y:D7 P:E5 SP:FB CYC:275  C I  -VN
F0CB  20 53 FB  JSR $FB53                       A:A5 X:02 Y:D7 P:E5 SP:FB CYC:284  C I  -VN
FB53  24 01     BIT $01 = FF                    A:A5 X:02 Y:D7 P:E5 SP:F9 CYC:302  C I  -VN
FB55  18        CLC                             A:A5 X:02 Y:D7 P:E5 SP:F9 CYC:311  C I  -VN
FB56  A9 B3     LDA #$B3                        A:A5 X:02 Y:D7 P:E4 SP:F9 CYC:317    I  -VN
FB58  60        RTS                             A:B3 X:02 Y:D7 P:E4 SP:F9 CYC:323    I  -VN
F0CE  27 47    *RLA $47 = A5                    A:B3 X:02 Y:D7 P:E4 SP:FB CYC:  0    I  -VN
F0D0  EA        NOP                             A:02 X:02 Y:D7 P:65 SP:FB CYC: 15  C I  -V 
F0D1  EA        NOP                             A:02 X:02 Y:D7 P:65 SP:FB CYC: 21  C I  -V 
F0D2  EA        NOP                             A:02 X:02 Y:D7 P:65 SP:FB CYC: 27  C I  -V 
F0D3  EA        NOP                             A:02 X:02 Y:D7 P:65 SP:FB CYC: 33  C I  -V 
F0D4  20 59 FB  JSR $FB59                       A:02 X:02 Y:D7 P:65 SP:FB CYC: 39  C I  -V 
FB59  50 1A     BVC $FB75                       A:02 X:02 Y:D7 P:65 SP:F9 CYC: 57  C I  -V 
FB5B  90 18     BCC $FB75                       A:02 X:02 Y:D7 P:65 SP:F9 CYC: 63  C I  -V 
FB5D  30 16     BMI $FB75                       A:02 X:02 Y:D7 P:65 SP:F9 CYC: 69  C I  -V 
FB5F  C9 02     CMP #$02                        A:02 X:02 Y:D7 P:65 SP:F9 CYC: 75  C I  -V 
FB61  D0 12     BNE $FB75                       A:02 X:02 Y:D7 P:67 SP:F9 CYC: 81  CZI  -V 
FB63  60        RTS                             A:02 X:02 Y:D7 P:67 SP:F9 CYC: 87  CZI  -V 
F0D7  A5 47     LDA $47 = 4A                    A:02 X:02 Y:D7 P:67 SP:FB CYC:105  CZI  -V 
F0D9  C9 4A     CMP #$4A                        A:4A X:02 Y:D7 P:65 SP:FB CYC:114  C I  -V 
F0DB  F0 02     BEQ $F0DF                       A:4A X:02 Y:D7 P:67 SP:FB CYC:120  CZI  -V 
F0DF  C8        INY                             A:4A X:02 Y:D7 P:67 SP:FB CYC:129  CZI  -V 
F0E0  A9 29     LDA #$29                        A:4A X:02 Y:D8 P:E5 SP:FB CYC:135  C I  -VN
F0E2  85 47     STA $47 = 4A                    A:29 X:02 Y:D8 P:65 SP:FB CYC:141  C I  -V 
F0E4  20 64 FB  JSR $FB64                       A:29 X:02 Y:D8 P:65 SP:FB CYC:150  C I  -V 
FB64  B8        CLV                             A:29 X:02 Y:D8 P:65 SP:F9 CYC:168  C I  -V 
FB65  18        CLC                             A:29 X:02 Y:D8 P:25 SP:F9 CYC:174  C I  -  
FB66  A9 42     LDA #$42                        A:29 X:02 Y:D8 P:24 SP:F9 CYC:180    I  -  
FB68  60        RTS                             A:42 X:02 Y:D8 P:24 SP:F9 CYC:186    I  -  
F0E7  27 47    *RLA $47 = 29                    A:42 X:02 Y:D8 P:24 SP:FB CYC:204    I  -  
F0E9  EA        NOP                             A:42 X:02 Y:D8 P:24 SP:FB CYC:219    I  -  
F0EA  EA        NOP                             A:42 X:02 Y:D8 P:24 SP:FB CYC:225    I  -  
F0EB  EA        NOP                             A:42 X:02 Y:D8 P:24 SP:FB CYC:231    I  -  
F0EC  EA        NOP                             A:42 X:02 Y:D8 P:24 SP:FB CYC:237    I  -  
F0ED  20 69 FB  JSR $FB69                       A:42 X:02 Y:D8 P:24 SP:FB CYC:243    I  -  
FB69  70 0A     BVS $FB75                       A:42 X:02 Y:D8 P:24 SP:F9 CYC:261    I  -  
FB6B  F0 08     BEQ $FB75                       A:42 X:02 Y:D8 P:24 SP:F9 CYC:267    I  -  
FB6D  30 06     BMI $FB75                       A:42 X:02 Y:D8 P:24 SP:F9 CYC:273    I  -  
FB6F  B0 04     BCS $FB75                       A:42 X:02 Y:D8 P:24 SP:F9 CYC:279    I  -  
FB71  C9 42     CMP #$42                        A:42 X:02 Y:D8 P:24 SP:F9 CYC:285    I  -  
FB73  F0 02     BEQ $FB77                       A:42 X:02 Y:D8 P:27 SP:F9 CYC:291  CZI  -  
FB77  60        RTS                             A:42 X:02 Y:D8 P:27 SP:F9 CYC:300  CZI  -  
F0F0  A5 47     LDA $47 = 52                    A:42 X:02 Y:D8 P:27 SP:FB CYC:318  CZI  -  
F0F2  C9 52     CMP #$52                        A:52 X:02 Y:D8 P:25 SP:FB CYC:327  C I  -  
F0F4  F0 02     BEQ $F0F8                       A:52 X:02 Y:D8 P:27 SP:FB CYC:333  CZI  -  
F0F8  C8        INY                             A:52 X:02 Y:D8 P:27 SP:FB CYC:  1  CZI  -  
F0F9  A9 37     LDA #$37                        A:52 X:02 Y:D9 P:A5 SP:FB CYC:  7  C I  - N
F0FB  85 47     STA $47 = 52                    A:37 X:02 Y:D9 P:25 SP:FB CYC: 13  C I  -  
F0FD  20 68 FA  JSR $FA68                       A:37 X:02 Y:D9 P:25 SP:FB CYC: 22  C I  -  
FA68  24 01     BIT $01 = FF                    A:37 X:02 Y:D9 P:25 SP:F9 CYC: 40  C I  -  
FA6A  38        SEC                             A:37 X:02 Y:D9 P:E5 SP:F9 CYC: 49  C I  -VN
FA6B  A9 75     LDA #$75                        A:37 X:02 Y:D9 P:E5 SP:F9 CYC: 55  C I  -VN
FA6D  60        RTS                             A:75 X:02 Y:D9 P:65 SP:F9 CYC: 61  C I  -V 
F100  27 47    *RLA $47 = 37                    A:75 X:02 Y:D9 P:65 SP:FB CYC: 79  C I  -V 
F102  EA        NOP                             A:65 X:02 Y:D9 P:64 SP:FB CYC: 94    I  -V 
F103  EA        NOP                             A:65 X:02 Y:D9 P:64 SP:FB CYC:100    I  -V 
F104  EA        NOP                             A:65 X:02 Y:D9 P:64 SP:FB CYC:106    I  -V 
F105  EA        NOP                             A:65 X:02 Y:D9 P:64 SP:FB CYC:112    I  -V 
F106  20 6E FA  JSR $FA6E                       A:65 X:02 Y:D9 P:64 SP:FB CYC:118    I  -V 
FA6E  50 76     BVC $FAE6                       A:65 X:02 Y:D9 P:64 SP:F9 CYC:136    I  -V 
FA70  F0 74     BEQ $FAE6                       A:65 X:02 Y:D9 P:64 SP:F9 CYC:142    I  -V 
FA72  30 72     BMI $FAE6                       A:65 X:02 Y:D9 P:64 SP:F9 CYC:148    I  -V 
FA74  B0 70     BCS $FAE6                       A:65 X:02 Y:D9 P:64 SP:F9 CYC:154    I  -V 
FA76  C9 65     CMP #$65                        A:65 X:02 Y:D9 P:64 SP:F9 CYC:160    I  -V 
FA78  D0 6C     BNE $FAE6                       A:65 X:02 Y:D9 P:67 SP:F9 CYC:166  CZI  -V 
FA7A  60        RTS                             A:65 X:02 Y:D9 P:67 SP:F9 CYC:172  CZI  -V 
F109  A5 47     LDA $47 = 6F                    A:65 X:02 Y:D9 P:67 SP:FB CYC:190  CZI  -V 
F10B  C9 6F     CMP #$6F                        A:6F X:02 Y:D9 P:65 SP:FB CYC:199  C I  -V 
F10D  F0 02     BEQ $F111                       A:6F X:02 Y:D9 P:67 SP:FB CYC:205  CZI  -V 
F111  C8        INY                             A:6F X:02 Y:D9 P:67 SP:FB CYC:214  CZI  -V 
F112  A9 A5     LDA #$A5                        A:6F X:02 Y:DA P:E5 SP:FB CYC:220  C I  -VN
F114  8D 47 06  STA $0647 = 6F                  A:A5 X:02 Y:DA P:E5 SP:FB CYC:226  C I  -VN
F117  20 53 FB  JSR $FB53                       A:A5 X:02 Y:DA P:E5 SP:FB CYC:238  C I  -VN
FB53  24 01     BIT $01 = FF                    A:A5 X:02 Y:DA P:E5 SP:F9 CYC:256  C I  -VN
FB55  18        CLC                             A:A5 X:02 Y:DA P:E5 SP:F9 CYC:265  C I  -VN
FB56  A9 B3     LDA #$B3                        A:A5 X:02 Y:DA P:E4 SP:F9 CYC:271    I  -VN
FB58  60        RTS                             A:B3 X:02 Y:DA P:E4 SP:F9 CYC:277    I  -VN
F11A  2F 47 06 *RLA $0647 = A5                  A:B3 X:02 Y:DA P:E4 SP:FB CYC:295    I  -VN
F11D  EA        NOP                             A:02 X:02 Y:DA P:65 SP:FB CYC:313  C I  -V 
F11E  EA        NOP                             A:02 X:02 Y:DA P:65 SP:FB CYC:319  C I  -V 
F11F  EA        NOP                             A:02 X:02 Y:DA P:65 SP:FB CYC:325  C I  -V 
F120  EA        NOP                             A:02 X:02 Y:DA P:65 SP:FB CYC:331  C I  -V 
F121  20 59 FB  JSR $FB59                       A:02 X:02 Y:DA P:65 SP:FB CYC:337  C I  -V 
FB59  50 1A     BVC $FB75                       A:02 X:02 Y:DA P:65 SP:F9 CYC: 14  C I  -V 
FB5B  90 18     BCC $FB75                       A:02 X:02 Y:DA P:65 SP:F9 CYC: 20  C I  -V 
FB5D  30 16     BMI $FB75                       A:02 X:02 Y:DA P:65 SP:F9 CYC: 26  C I  -V 
FB5F  C9 02     CMP #$02                        A:02 X:02 Y:DA P:65 SP:F9 CYC: 32  C I  -V 
FB61  D0 12     BNE $FB75                       A:02 X:02 Y:DA P:67 SP:F9 CYC: 38  CZI  -V 
FB63  60        RTS                             A:02 X:02 Y:DA P:67 SP:F9 CYC: 44  CZI  -V 
F124  AD 47 06  LDA $0647 = 4A                  A:02 X:02 Y:DA P:67 SP:FB CYC: 62  CZI  -V 
F127  C9 4A     CMP #$4A                        A:4A X:02 Y:DA P:65 SP:FB CYC: 74  C I  -V 
F129  F0 02     BEQ $F12D                       A:4A X:02 Y:DA P:67 SP:FB CYC: 80  CZI  -V 
F12D  C8        INY                             A:4A X:02 Y:DA P:67 SP:FB CYC: 89  CZI  -V 
F12E  A9 29     LDA #$29                        A:4A X:02 Y:DB P:E5 SP:FB CYC: 95  C I  -VN
F130  8D 47 06  STA $0647 = 4A                  A:29 X:02 Y:DB P:65 SP:FB CYC:101  C I  -V 
F133  20 64 FB  JSR $FB64                       A:29 X:02 Y:DB P:65 SP:FB CYC:113  C I  -V 
FB64  B8        CLV                             A:29 X:02 Y:DB P:65 SP:F9 CYC:131  C I  -V 
FB65  18        CLC                             A:29 X:02 Y:DB P:25 SP:F9 CYC:137  C I  -  
FB66  A9 42     LDA #$42                        A:29 X:02 Y:DB P:24 SP:F9 CYC:143    I  -  
FB68  60        RTS                             A:42 X:02 Y:DB P:24 SP:F9 CYC:149    I  -  
F136  2F 47 06 *RLA $0647 = 29                  A:42 X:02 Y:DB P:24 SP:FB CYC:167    I  -  
F139  EA        NOP                             A:42 X:02 Y:DB P:24 SP:FB CYC:185    I  -  
F13A  EA        NOP                             A:42 X:02 Y:DB P:24 SP:FB CYC:191    I  -  
F13B  EA        NOP                             A:42 X:02 Y:DB P:24 SP:FB CYC:197    I  -  
F13C  EA        NOP                             A:42 X:02 Y:DB P:24 SP:FB CYC:203    I  -  
F13D  20 69 FB  JSR $FB69                       A:42 X:02 Y:DB P:24 SP:FB CYC:209    I  -  
FB69  70 0A     BVS $FB75                       A:42 X:02 Y:DB P:24 SP:F9 CYC:227    I  -  
FB6B  F0 08     BEQ $FB75                       A:42 X:02 Y:DB P:24 SP:F9 CYC:233    I  -  
FB6D  30 06     BMI $FB75                       A:42 X:02 Y:DB P:24 SP:F9 CYC:239    I  -  
FB6F  B0 04     BCS $FB75                       A:42 X:02 Y:DB P:24 SP:F9 CYC:245    I  -  
FB71  C9 42     CMP #$42                        A:42 X:02 Y:DB P:24 SP:F9 CYC:251    I  -  
FB73  F0 02     BEQ $FB77                       A:42 X:02 Y:DB P:27 SP:F9 CYC:257  CZI  -  
FB77  60        RTS                             A:42 X:02 Y:DB P:27 SP:F9 CYC:266  CZI  -  
F140  AD 47 06  LDA $0647 = 52                  A:42 X:02 Y:DB P:27 SP:FB CYC:284  CZI  -  
F143  C9 52     CMP #$52                        A:52 X:02 Y:DB P:25 SP:FB CYC:296  C I  -  
F145  F0 02     BEQ $F149                       A:52 X:02 Y:DB P:27 SP:FB CYC:302  CZI  -  
F149  C8        INY                             A:52 X:02 Y:DB P:27 SP:FB CYC:311  CZI  -  
F14A  A9 37     LDA #$37                        A:52 X:02 Y:DC P:A5 SP:FB CYC:317  C I  - N
F14C  8D 47 06  STA $0647 = 52                  A:37 X:02 Y:DC P:25 SP:FB CYC:323  C I  -  
F14F  20 68 FA  JSR $FA68                       A:37 X:02 Y:DC P:25 SP:FB CYC:335  C I  -  
FA68  24 01     BIT $01 = FF                    A:37 X:02 Y:DC P:25 SP:F9 CYC: 12  C I  -  
FA6A  38        SEC                             A:37 X:02 Y:DC P:E5 SP:F9 CYC: 21  C I  -VN
FA6B  A9 75     LDA #$75                        A:37 X:02 Y:DC P:E5 SP:F9 CYC: 27  C I  -VN
FA6D  60        RTS                             A:75 X:02 Y:DC P:65 SP:F9 CYC: 33  C I  -V 
F152  2F 47 06 *RLA $0647 = 37                  A:75 X:02 Y:DC P:65 SP:FB CYC: 51  C I  -V 
F155  EA        NOP                             A:65 X:02 Y:DC P:64 SP:FB CYC: 69    I  -V 
F156  EA        NOP                             A:65 X:02 Y:DC P:64 SP:FB CYC: 75    I  -V 
F157  EA        NOP                             A:65 X:02 Y:DC P:64 SP:FB CYC: 81    I  -V 
F158  EA        NOP                             A:65 X:02 Y:DC P:64 SP:FB CYC: 87    I  -V 
F159  20 6E FA  JSR $FA6E                       A:65 X:02 Y:DC P:64 SP:FB CYC: 93    I  -V 
FA6E  50 76     BVC $FAE6                       A:65 X:02 Y:DC P:64 SP:F9 CYC:111    I  -V 
FA70  F0 74     BEQ $FAE6                       A:65 X:02 Y:DC P:64 SP:F9 CYC:117    I  -V 
FA72  30 72     BMI $FAE6                       A:65 X:02 Y:DC P:64 SP:F9 CYC:123    I  -V 
FA74  B0 70     BCS $FAE6                       A:65 X:02 Y:DC P:64 SP:F9 CYC:129    I  -V 
FA76  C9 65     CMP #$65                        A:65 X:02 Y:DC P:64 SP:F9 CYC:135    I  -V 
FA78  D0 6C     BNE $FAE6                       A:65 X:02 Y:DC P:67 SP:F9 CYC:141  CZI  -V 
FA7A  60        RTS                             A:65 X:02 Y:DC P:67 SP:F9 CYC:147  CZI  -V 
F15C  AD 47 06  LDA $0647 = 6F                  A:65 X:02 Y:DC P:67 SP:FB CYC:165  CZI  -V 
F15F  C9 6F     CMP #$6F                        A:6F X:02 Y:DC P:65 SP:FB CYC:177  C I  -V 
F161  F0 02     BEQ $F165                       A:6F X:02 Y:DC P:67 SP:FB CYC:183  CZI  -V 
F165  A9 A5     LDA #$A5                        A:6F X:02 Y:DC P:67 SP:FB CYC:192  CZI  -V 
F167  8D 47 06  STA $0647 = 6F                  A:A5 X:02 Y:DC P:E5 SP:FB CYC:198  C I  -VN
F16A  A9 48     LDA #$48                        A:A5 X:02 Y:DC P:E5 SP:FB CYC:210  C I  -VN
F16C  85 45     STA $45 = 48                    A:48 X:02 Y:DC P:65 SP:FB CYC:216  C I  -V 
F16E  A9 05     LDA #$05                        A:48 X:02 Y:DC P:65 SP:FB CYC:225  C I  -V 
F170  85 46     STA $46 = 05                    A:05 X:02 Y:DC P:65 SP:FB CYC:231  C I  -V 
F172  A0 FF     LDY #$FF                        A:05 X:02 Y:DC P:65 SP:FB CYC:240  C I  -V 
F174  20 53 FB  JSR $FB53                       A:05 X:02 Y:FF P:E5 SP:FB CYC:246  C I  -VN
FB53  24 01     BIT $01 = FF                    A:05 X:02 Y:FF P:E5 SP:F9 CYC:264  C I  -VN
FB55  18        CLC                             A:05 X:02 Y:FF P:E5 SP:F9 CYC:273  C I  -VN
FB56  A9 B3     LDA #$B3                        A:05 X:02 Y:FF P:E4 SP:F9 CYC:279    I  -VN
FB58  60        RTS                             A:B3 X:02 Y:FF P:E4 SP:F9 CYC:285    I  -VN
F177  33 45    *RLA ($45),Y = 0548 @ 0647 = A5  A:B3 X:02 Y:FF P:E4 SP:FB CYC:303    I  -VN
F179  EA        NOP                             A:02 X:02 Y:FF P:65 SP:FB CYC:327  C I  -V 
F17A  EA        NOP                             A:02 X:02 Y:FF P:65 SP:FB CYC:333  C I  -V 
F17B  08        PHP                             A:02 X:02 Y:FF P:65 SP:FB CYC:339  C I  -V 
F17C  48        PHA                             A:02 X:02 Y:FF P:65 SP:FA CYC:  7  C I  -V 
F17D  A0 DD     LDY #$DD                        A:02 X:02 Y:FF P:65 SP:F9 CYC: 16  C I  -V 
F17F  68        PLA                             A:02 X:02 Y:DD P:E5 SP:F9 CYC: 22  C I  -VN
F180  28        PLP                             A:02 X:02 Y:DD P:65 SP:FA CYC: 34  C I  -V 
F181  20 59 FB  JSR $FB59                       A:02 X:02 Y:DD P:65 SP:FB CYC: 46  C I  -V 
FB59  50 1A     BVC $FB75                       A:02 X:02 Y:DD P:65 SP:F9 CYC: 64  C I  -V 
FB5B  90 18     BCC $FB75                       A:02 X:02 Y:DD P:65 SP:F9 CYC: 70  C I  -V 
FB5D  30 16     BMI $FB75                       A:02 X:02 Y:DD P:65 SP:F9 CYC: 76  C I  -V 
FB5F  C9 02     CMP #$02                        A:02 X:02 Y:DD P:65 SP:F9 CYC: 82  C I  -V 
FB61  D0 12     BNE $FB75                       A:02 X:02 Y:DD P:67 SP:F9 CYC: 88  CZI  -V 
FB63  60        RTS                             A:02 X:02 Y:DD P:67 SP:F9 CYC: 94  CZI  -V 
F184  AD 47 06  LDA $0647 = 4A                  A:02 X:02 Y:DD P:67 SP:FB CYC:112  CZI  -V 
F187  C9 4A     CMP #$4A                        A:4A X:02 Y:DD P:65 SP:FB CYC:124  C I  -V 
F189  F0 02     BEQ $F18D                       A:4A X:02 Y:DD P:67 SP:FB CYC:130  CZI  -V 
F18D  A0 FF     LDY #$FF                        A:4A X:02 Y:DD P:67 SP:FB CYC:139  CZI  -V 
F18F  A9 29     LDA #$29                        A:4A X:02 Y:FF P:E5 SP:FB CYC:145  C I  -VN
F191  8D 47 06  STA $0647 = 4A                  A:29 X:02 Y:FF P:65 SP:FB CYC:151  C I  -V 
F194  20 64 FB  JSR $FB64                       A:29 X:02 Y:FF P:65 SP:FB CYC:163  C I  -V 
FB64  B8        CLV                             A:29 X:02 Y:FF P:65 SP:F9 CYC:181  C I  -V 
FB65  18        CLC                             A:29 X:02 Y:FF P:25 SP:F9 CYC:187  C I  -  
FB66  A9 42     LDA #$42                        A:29 X:02 Y:FF P:24 SP:F9 CYC:193    I  -  
FB68  60        RTS                             A:42 X:02 Y:FF P:24 SP:F9 CYC:199    I  -  
F197  33 45    *RLA ($45),Y = 0548 @ 0647 = 29  A:42 X:02 Y:FF P:24 SP:FB CYC:217    I  -  
F199  EA        NOP                             A:42 X:02 Y:FF P:24 SP:FB CYC:241    I  -  
F19A  EA        NOP                             A:42 X:02 Y:FF P:24 SP:FB CYC:247    I  -  
F19B  08        PHP                             A:42 X:02 Y:FF P:24 SP:FB CYC:253    I  -  
F19C  48        PHA                             A:42 X:02 Y:FF P:24 SP:FA CYC:262    I  -  
F19D  A0 DE     LDY #$DE                        A:42 X:02 Y:FF P:24 SP:F9 CYC:271    I  -  
F19F  68        PLA                             A:42 X:02 Y:DE P:A4 SP:F9 CYC:277    I  - N
F1A0  28        PLP                             A:42 X:02 Y:DE P:24 SP:FA CYC:289    I  -  
F1A1  20 69 FB  JSR $FB69                       A:42 X:02 Y:DE P:24 SP:FB CYC:301    I  -  
FB69  70 0A     BVS $FB75                       A:42 X:02 Y:DE P:24 SP:F9 CYC:319    I  -  
FB6B  F0 08     BEQ $FB75                       A:42 X:02 Y:DE P:24 SP:F9 CYC:325    I  -  
FB6D  30 06     BMI $FB75                       A:42 X:02 Y:DE P:24 SP:F9 CYC:331    I  -  
FB6F  B0 04     BCS $FB75                       A:42 X:02 Y:DE P:24 SP:F9 CYC:337    I  -  
FB71  C9 42     CMP #$42                        A:42 X:02 Y:DE P:24 SP:F9 CYC:  2    I  -  
FB73  F0 02     BEQ $FB77                       A:42 X:02 Y:DE P:27 SP:F9 CYC:  8  CZI  -  
FB77  60        RTS                             A:42 X:02 Y:DE P:27 SP:F9 CYC: 17  CZI  -  
F1A4  AD 47 06  LDA $0647 = 52                  A:42 X:02 Y:DE P:27 SP:FB CYC: 35  CZI  -  
F1A7  C9 52     CMP #$52                        A:52 X:02 Y:DE P:25 SP:FB CYC: 47  C I  -  
F1A9  F0 02     BEQ $F1AD                       A:52 X:02 Y:DE P:27 SP:FB CYC: 53  CZI  -  
F1AD  A0 FF     LDY #$FF                        A:52 X:02 Y:DE P:27 SP:FB CYC: 62  CZI  -  
F1AF  A9 37     LDA #$37                        A:52 X:02 Y:FF P:A5 SP:FB CYC: 68  C I  - N
F1B1  8D 47 06  STA $0647 = 52                  A:37 X:02 Y:FF P:25 SP:FB CYC: 74  C I  -  
F1B4  20 68 FA  JSR $FA68                       A:37 X:02 Y:FF P:25 SP:FB CYC: 86  C I  -  
FA68  24 01     BIT $01 = FF                    A:37 X:02 Y:FF P:25 SP:F9 CYC:104  C I  -  
FA6A  38        SEC                             A:37 X:02 Y:FF P:E5 SP:F9 CYC:113  C I  -VN
FA6B  A9 75     LDA #$75                        A:37 X:02 Y:FF P:E5 SP:F9 CYC:119  C I  -VN
FA6D  60        RTS                             A:75 X:02 Y:FF P:65 SP:F9 CYC:125  C I  -V 
F1B7  33 45    *RLA ($45),Y = 0548 @ 0647 = 37  A:75 X:02 Y:FF P:65 SP:FB CYC:143  C I  -V 
F1B9  EA        NOP                             A:65 X:02 Y:FF P:64 SP:FB CYC:167    I  -V 
F1BA  EA        NOP                             A:65 X:02 Y:FF P:64 SP:FB CYC:173    I  -V 
F1BB  08        PHP                             A:65 X:02 Y:FF P:64 SP:FB CYC:179    I  -V 
F1BC  48        PHA                             A:65 X:02 Y:FF P:64 SP:FA CYC:188    I  -V 
F1BD  A0 DF     LDY #$DF                        A:65 X:02 Y:FF P:64 SP:F9 CYC:197    I  -V 
F1BF  68        PLA                             A:65 X:02 Y:DF P:E4 SP:F9 CYC:203    I  -VN
F1C0  28        PLP                             A:65 X:02 Y:DF P:64 SP:FA CYC:215    I  -V 
F1C1  20 6E FA  JSR $FA6E                       A:65 X:02 Y:DF P:64 SP:FB CYC:227    I  -V 
FA6E  50 76     BVC $FAE6                       A:65 X:02 Y:DF P:64 SP:F9 CYC:245    I  -V 
FA70  F0 74     BEQ $FAE6                       A:65 X:02 Y:DF P:64 SP:F9 CYC:251    I  -V 
FA72  30 72     BMI $FAE6                       A:65 X:02 Y:DF P:64 SP:F9 CYC:257    I  -V 
FA74  B0 70     BCS $FAE6                       A:65 X:02 Y:DF P:64 SP:F9 CYC:263    I  -V 
FA76  C9 65     CMP #$65                        A:65 X:02 Y:DF P:64 SP:F9 CYC:269    I  -V 
FA78  D0 6C     BNE $FAE6                       A:65 X:02 Y:DF P:67 SP:F9 CYC:275  CZI  -V 
FA7A  60        RTS                             A:65 X:02 Y:DF P:67 SP:F9 CYC:281  CZI  -V 
F1C4  AD 47 06  LDA $0647 = 6F                  A:65 X:02 Y:DF P:67 SP:FB CYC:299  CZI  -V 
F1C7  C9 6F     CMP #$6F                        A:6F X:02 Y:DF P:65 SP:FB CYC:311  C I  -V 
F1C9  F0 02     BEQ $F1CD                       A:6F X:02 Y:DF P:67 SP:FB CYC:317  CZI  -V 
F1CD  A0 E0     LDY #$E0                        A:6F X:02 Y:DF P:67 SP:FB CYC:326  CZI  -V 
F1CF  A2 FF     LDX #$FF                        A:6F X:02 Y:E0 P:E5 SP:FB CYC:332  C I  -VN
F1D1  A9 A5     LDA #$A5                        A:6F X:FF Y:E0 P:E5 SP:FB CYC:338  C I  -VN
F1D3  85 47     STA $47 = 6F                    A:A5 X:FF Y:E0 P:E5 SP:FB CYC:  3  C I  -VN
F1D5  20 53 FB  JSR $FB53                       A:A5 X:FF Y:E0 P:E5 SP:FB CYC: 12  C I  -VN
FB53  24 01     BIT $01 = FF                    A:A5 X:FF Y:E0 P:E5 SP:F9 CYC: 30  C I  -VN
FB55  18        CLC                             A:A5 X:FF Y:E0 P:E5 SP:F9 CYC: 39  C I  -VN
FB56  A9 B3     LDA #$B3                        A:A5 X:FF Y:E0 P:E4 SP:F9 CYC: 45    I  -VN
FB58  60        RTS                             A:B3 X:FF Y:E0 P:E4 SP:F9 CYC: 51    I  -VN
F1D8  37 48    *RLA $48,X @ 47 = A5             A:B3 X:FF Y:E0 P:E4 SP:FB CYC: 69    I  -VN
F1DA  EA        NOP                             A:02 X:FF Y:E0 P:65 SP:FB CYC: 87  C I  -V 
F1DB  EA        NOP                             A:02 X:FF Y:E0 P:65 SP:FB CYC: 93  C I  -V 
F1DC  EA        NOP                             A:02 X:FF Y:E0 P:65 SP:FB CYC: 99  C I  -V 
F1DD  EA        NOP                             A:02 X:FF Y:E0 P:65 SP:FB CYC:105  C I  -V 
F1DE  20 59 FB  JSR $FB59                       A:02 X:FF Y:E0 P:65 SP:FB CYC:111  C I  -V 
FB59  50 1A     BVC $FB75                       A:02 X:FF Y:E0 P:65 SP:F9 CYC:129  C I  -V 
FB5B  90 18     BCC $FB75                       A:02 X:FF Y:E0 P:65 SP:F9 CYC:135  C I  -V 
FB5D  30 16     BMI $FB75                       A:02 X:FF Y:E0 P:65 SP:F9 CYC:141  C I  -V 
FB5F  C9 02     CMP #$02                        A:02 X:FF Y:E0 P:65 SP:F9 CYC:147  C I  -V 
FB61  D0 12     BNE $FB75                       A:02 X:FF Y:E0 P:67 SP:F9 CYC:153  CZI  -V 
FB63  60        RTS                             A:02 X:FF Y:E0 P:67 SP:F9 CYC:159  CZI  -V 
F1E1  A5 47     LDA $47 = 4A                    A:02 X:FF Y:E0 P:67 SP:FB CYC:177  CZI  -V 
F1E3  C9 4A     CMP #$4A                        A:4A X:FF Y:E0 P:65 SP:FB CYC:186  C I  -V 
F1E5  F0 02     BEQ $F1E9                       A:4A X:FF Y:E0 P:67 SP:FB CYC:192  CZI  -V 
F1E9  C8        INY                             A:4A X:FF Y:E0 P:67 SP:FB CYC:201  CZI  -V 
F1EA  A9 29     LDA #$29                        A:4A X:FF Y:E1 P:E5 SP:FB CYC:207  C I  -VN
F1EC  85 47     STA $47 = 4A                    A:29 X:FF Y:E1 P:65 SP:FB CYC:213  C I  -V 
F1EE  20 64 FB  JSR $FB64                       A:29 X:FF Y:E1 P:65 SP:FB CYC:222  C I  -V 
FB64  B8        CLV                             A:29 X:FF Y:E1 P:65 SP:F9 CYC:240  C I  -V 
FB65  18        CLC                             A:29 X:FF Y:E1 P:25 SP:F9 CYC:246  C I  -  
FB66  A9 42     LDA #$42                        A:29 X:FF Y:E1 P:24 SP:F9 CYC:252    I  -  
FB68  60        RTS                             A:42 X:FF Y:E1 P:24 SP:F9 CYC:258    I  -  
F1F1  37 48    *RLA $48,X @ 47 = 29             A:42 X:FF Y:E1 P:24 SP:FB CYC:276    I  -  
F1F3  EA        NOP                             A:42 X:FF Y:E1 P:24 SP:FB CYC:294    I  -  
F1F4  EA        NOP                             A:42 X:FF Y:E1 P:24 SP:FB CYC:300    I  -  
F1F5  EA        NOP                             A:42 X:FF Y:E1 P:24 SP:FB CYC:306    I  -  
F1F6  EA        NOP                             A:42 X:FF Y:E1 P:24 SP:FB CYC:312    I  -  
F1F7  20 69 FB  JSR $FB69                       A:42 X:FF Y:E1 P:24 SP:FB CYC:318    I  -  
FB69  70 0A     BVS $FB75                       A:42 X:FF Y:E1 P:24 SP:F9 CYC:336    I  -  
FB6B  F0 08     BEQ $FB75                       A:42 X:FF Y:E1 P:24 SP:F9 CYC:  1    I  -  
FB6D  30 06     BMI $FB75                       A:42 X:FF Y:E1 P:24 SP:F9 CYC:  7    I  -  
FB6F  B0 04     BCS $FB75                       A:42 X:FF Y:E1 P:24 SP:F9 CYC: 13    I  -  
FB71  C9 42     CMP #$42                        A:42 X:FF Y:E1 P:24 SP:F9 CYC: 19    I  -  
FB73  F0 02     BEQ $FB77                       A:42 X:FF Y:E1 P:27 SP:F9 CYC: 25  CZI  -  
FB77  60        RTS                             A:42 X:FF Y:E1 P:27 SP:F9 CYC: 34  CZI  -  
F1FA  A5 47     LDA $47 = 52                    A:42 X:FF Y:E1 P:27 SP:FB CYC: 52  CZI  -  
F1FC  C9 52     CMP #$52                        A:52 X:FF Y:E1 P:25 SP:FB CYC: 61  C I  -  
F1FE  F0 02     BEQ $F202                       A:52 X:FF Y:E1 P:27 SP:FB CYC: 67  CZI  -  
F202  C8        INY                             A:52 X:FF Y:E1 P:27 SP:FB CYC: 76  CZI  -  
F203  A9 37     LDA #$37                        A:52 X:FF Y:E2 P:A5 SP:FB CYC: 82  C I  - N
F205  85 47     STA $47 = 52                    A:37 X:FF Y:E2 P:25 SP:FB CYC: 88  C I  -  
F207  20 68 FA  JSR $FA68                       A:37 X:FF Y:E2 P:25 SP:FB CYC: 97  C I  -  
FA68  24 01     BIT $01 = FF                    A:37 X:FF Y:E2 P:25 SP:F9 CYC:115  C I  -  
FA6A  38        SEC                             A:37 X:FF Y:E2 P:E5 SP:F9 CYC:124  C I  -VN
FA6B  A9 75     LDA #$75                        A:37 X:FF Y:E2 P:E5 SP:F9 CYC:130  C I  -VN
FA6D  60        RTS                             A:75 X:FF Y:E2 P:65 SP:F9 CYC:136  C I  -V 
F20A  37 48    *RLA $48,X @ 47 = 37             A:75 X:FF Y:E2 P:65 SP:FB CYC:154  C I  -V 
F20C  EA        NOP                             A:65 X:FF Y:E2 P:64 SP:FB CYC:172    I  -V 
F20D  EA        NOP                             A:65 X:FF Y:E2 P:64 SP:FB CYC:178    I  -V 
F20E  EA        NOP                             A:65 X:FF Y:E2 P:64 SP:FB CYC:184    I  -V 
F20F  EA        NOP                             A:65 X:FF Y:E2 P:64 SP:FB CYC:190    I  -V 
F210  20 6E FA  JSR $FA6E                       A:65 X:FF Y:E2 P:64 SP:FB CYC:196    I  -V 
FA6E  50 76     BVC $FAE6                       A:65 X:FF Y:E2 P:64 SP:F9 CYC:214    I  -V 
FA70  F0 74     BEQ $FAE6                       A:65 X:FF Y:E2 P:64 SP:F9 CYC:220    I  -V 
FA72  30 72     BMI $FAE6                       A:65 X:FF Y:E2 P:64 SP:F9 CYC:226    I  -V 
FA74  B0 70     BCS $FAE6                       A:65 X:FF Y:E2 P:64 SP:F9 CYC:232    I  -V 
FA76  C9 65     CMP #$65                        A:65 X:FF Y:E2 P:64 SP:F9 CYC:238    I  -V 
FA78  D0 6C     BNE $FAE6                       A:65 X:FF Y:E2 P:67 SP:F9 CYC:244  CZI  -V 
FA7A  60        RTS                             A:65 X:FF Y:E2 P:67 SP:F9 CYC:250  CZI  -V 
F213  A5 47     LDA $47 = 6F                    A:65 X:FF Y:E2 P:67 SP:FB CYC:268  CZI  -V 
F215  C9 6F     CMP #$6F                        A:6F X:FF Y:E2 P:65 SP:FB CYC:277  C I  -V 
F217  F0 02     BEQ $F21B                       A:6F X:FF Y:E2 P:67 SP:FB CYC:283  CZI  -V 
F21B  A9 A5     LDA #$A5                        A:6F X:FF Y:E2 P:67 SP:FB CYC:292  CZI  -V 
F21D  8D 47 06  STA $0647 = 6F                  A:A5 X:FF Y:E2 P:E5 SP:FB CYC:298  C I  -VN
F220  A0 FF     LDY #$FF                        A:A5 X:FF Y:E2 P:E5 SP:FB CYC:310  C I  -VN
F222  20 53 FB  JSR $FB53                       A:A5 X:FF Y:FF P:E5 SP:FB CYC:316  C I  -VN
FB53  24 01     BIT $01 = FF                    A:A5 X:FF Y:FF P:E5 SP:F9 CYC:334  C I  -VN
FB55  18        CLC                             A:A5 X:FF Y:FF P:E5 SP:F9 CYC:  2  C I  -VN
FB56  A9 B3     LDA #$B3                        A:A5 X:FF Y:FF P:E4 SP:F9 CYC:  8    I  -VN
FB58  60        RTS                             A:B3 X:FF Y:FF P:E4 SP:F9 CYC: 14    I  -VN
F225  3B 48 05 *RLA $0548,Y @ 0647 = A5         A:B3 X:FF Y:FF P:E4 SP:FB CYC: 32    I  -VN
F228  EA        NOP                             A:02 X:FF Y:FF P:65 SP:FB CYC: 53  C I  -V 
F229  EA        NOP                             A:02 X:FF Y:FF P:65 SP:FB CYC: 59  C I  -V 
F22A  08        PHP                             A:02 X:FF Y:FF P:65 SP:FB CYC: 65  C I  -V 
F22B  48        PHA                             A:02 X:FF Y:FF P:65 SP:FA CYC: 74  C I  -V 
F22C  A0 E3     LDY #$E3                        A:02 X:FF Y:FF P:65 SP:F9 CYC: 83  C I  -V 
F22E  68        PLA                             A:02 X:FF Y:E3 P:E5 SP:F9 CYC: 89  C I  -VN
F22F  28        PLP                             A:02 X:FF Y:E3 P:65 SP:FA CYC:101  C I  -V 
F230  20 59 FB  JSR $FB59                       A:02 X:FF Y:E3 P:65 SP:FB CYC:113  C I  -V 
FB59  50 1A     BVC $FB75                       A:02 X:FF Y:E3 P:65 SP:F9 CYC:131  C I  -V 
FB5B  90 18     BCC $FB75                       A:02 X:FF Y:E3 P:65 SP:F9 CYC:137  C I  -V 
FB5D  30 16     BMI $FB75                       A:02 X:FF Y:E3 P:65 SP:F9 CYC:143  C I  -V 
FB5F  C9 02     CMP #$02                        A:02 X:FF Y:E3 P:65 SP:F9 CYC:149  C I  -V 
FB61  D0 12     BNE $FB75                       A:02 X:FF Y:E3 P:67 SP:F9 CYC:155  CZI  -V 
FB63  60        RTS                             A:02 X:FF Y:E3 P:67 SP:F9 CYC:161  CZI  -V 
F233  AD 47 06  LDA $0647 = 4A                  A:02 X:FF Y:E3 P:67 SP:FB CYC:179  CZI  -V 
F236  C9 4A     CMP #$4A                        A:4A X:FF Y:E3 P:65 SP:FB CYC:191  C I  -V 
F238  F0 02     BEQ $F23C                       A:4A X:FF Y:E3 P:67 SP:FB CYC:197  CZI  -V 
F23C  A0 FF     LDY #$FF                        A:4A X:FF Y:E3 P:67 SP:FB CYC:206  CZI  -V 
F23E  A9 29     LDA #$29                        A:4A X:FF Y:FF P:E5 SP:FB CYC:212  C I  -VN
F240  8D 47 06  STA $0647 = 4A                  A:29 X:FF Y:FF P:65 SP:FB CYC:218  C I  -V 
F243  20 64 FB  JSR $FB64                       A:29 X:FF Y:FF P:65 SP:FB CYC:230  C I  -V 
FB64  B8        CLV                             A:29 X:FF Y:FF P:65 SP:F9 CYC:248  C I  -V 
FB65  18        CLC                             A:29 X:FF Y:FF P:25 SP:F9 CYC:254  C I  -  
FB66  A9 42     LDA #$42                        A:29 X:FF Y:FF P:24 SP:F9 CYC:260    I  -  
FB68  60        RTS                             A:42 X:FF Y:FF P:24 SP:F9 CYC:266    I  -  
F246  3B 48 05 *RLA $0548,Y @ 0647 = 29         A:42 X:FF Y:FF P:24 SP:FB CYC:284    I  -  
F249  EA        NOP                             A:42 X:FF Y:FF P:24 SP:FB CYC:305    I  -  
F24A  EA        NOP                             A:42 X:FF Y:FF P:24 SP:FB CYC:311    I  -  
F24B  08        PHP                             A:42 X:FF Y:FF P:24 SP:FB CYC:317    I  -  
F24C  48        PHA                             A:42 X:FF Y:FF P:24 SP:FA CYC:326    I  -  
F24D  A0 E4     LDY #$E4                        A:42 X:FF Y:FF P:24 SP:F9 CYC:335    I  -  
F24F  68        PLA                             A:42 X:FF Y:E4 P:A4 SP:F9 CYC:  0    I  - N
F250  28        PLP                             A:42 X:FF Y:E4 P:24 SP:FA CYC: 12    I  -  
F251  20 69 FB  JSR $FB69                       A:42 X:FF Y:E4 P:24 SP:FB CYC: 24    I  -  
FB69  70 0A     BVS $FB75                       A:42 X:FF Y:E4 P:24 SP:F9 CYC: 42    I  -  
FB6B  F0 08     BEQ $FB75                       A:42 X:FF Y:E4 P:24 SP:F9 CYC: 48    I  -  
FB6D  30 06     BMI $FB75                       A:42 X:FF Y:E4 P:24 SP:F9 CYC: 54    I  -  
FB6F  B0 04     BCS $FB75                       A:42 X:FF Y:E4 P:24 SP:F9 CYC: 60    I  -  
FB71  C9 42     CMP #$42                        A:42 X:FF Y:E4 P:24 SP:F9 CYC: 66    I  -  
FB73  F0 02     BEQ $FB77                       A:42 X:FF Y:E4 P:27 SP:F9 CYC: 72  CZI  -  
FB77  60        RTS                             A:42 X:FF Y:E4 P:27 SP:F9 CYC: 81  CZI  -  
F254  AD 47 06  LDA $0647 = 52                  A:42 X:FF Y:E4 P:27 SP:FB CYC: 99  CZI  -  
F257  C9 52     CMP #$52                        A:52 X:FF Y:E4 P:25 SP:FB CYC:111  C I  -  
F259  F0 02     BEQ $F25D                       A:52 X:FF Y:E4 P:27 SP:FB CYC:117  CZI  -  
F25D  A0 FF     LDY #$FF                        A:52 X:FF Y:E4 P:27 SP:FB CYC:126  CZI  -  
F25F  A9 37     LDA #$37                        A:52 X:FF Y:FF P:A5 SP:FB CYC:132  C I  - N
F261  8D 47 06  STA $0647 = 52                  A:37 X:FF Y:FF P:25 SP:FB CYC:138  C I  -  
F264  20 68 FA  JSR $FA68                       A:37 X:FF Y:FF P:25 SP:FB CYC:150  C I  -  
FA68  24 01     BIT $01 = FF                    A:37 X:FF Y:FF P:25 SP:F9 CYC:168  C I  -  
FA6A  38        SEC                             A:37 X:FF Y:FF P:E5 SP:F9 CYC:177  C I  -VN
FA6B  A9 75     LDA #$75                        A:37 X:FF Y:FF P:E5 SP:F9 CYC:183  C I  -VN
FA6D  60        RTS                             A:75 X:FF Y:FF P:65 SP:F9 CYC:189  C I  -V 
F267  3B 48 05 *RLA $0548,Y @ 0647 = 37         A:75 X:FF Y:FF P:65 SP:FB CYC:207  C I  -V 
F26A  EA        NOP                             A:65 X:FF Y:FF P:64 SP:FB CYC:228    I  -V 
F26B  EA        NOP                             A:65 X:FF Y:FF P:64 SP:FB CYC:234    I  -V 
F26C  08        PHP                             A:65 X:FF Y:FF P:64 SP:FB CYC:240    I  -V 
F26D  48        PHA                             A:65 X:FF Y:FF P:64 SP:FA CYC:249    I  -V 
F26E  A0 E5     LDY #$E5                        A:65 X:FF Y:FF P:64 SP:F9 CYC:258    I  -V 
F270  68        PLA                             A:65 X:FF Y:E5 P:E4 SP:F9 CYC:264    I  -VN
F271  28        PLP                             A:65 X:FF Y:E5 P:64 SP:FA CYC:276    I  -V 
F272  20 6E FA  JSR $FA6E                       A:65 X:FF Y:E5 P:64 SP:FB CYC:288    I  -V 
FA6E  50 76     BVC $FAE6                       A:65 X:FF Y:E5 P:64 SP:F9 CYC:306    I  -V 
FA70  F0 74     BEQ $FAE6                       A:65 X:FF Y:E5 P:64 SP:F9 CYC:312    I  -V 
FA72  30 72     BMI $FAE6                       A:65 X:FF Y:E5 P:64 SP:F9 CYC:318    I  -V 
FA74  B0 70     BCS $FAE6                       A:65 X:FF Y:E5 P:64 SP:F9 CYC:324    I  -V 
FA76  C9 65     CMP #$65                        A:65 X:FF Y:E5 P:64 SP:F9 CYC:330    I  -V 
FA78  D0 6C     BNE $FAE6                       A:65 X:FF Y:E5 P:67 SP:F9 CYC:336  CZI  -V 
FA7A  60        RTS                             A:65 X:FF Y:E5 P:67 SP:F9 CYC:  1  CZI  -V 
F275  AD 47 06  LDA $0647 = 6F                  A:65 X:FF Y:E5 P:67 SP:FB CYC: 19  CZI  -V 
F278  C9 6F     CMP #$6F                        A:6F X:FF Y:E5 P:65 SP:FB CYC: 31  C I  -V 
F27A  F0 02     BEQ $F27E                       A:6F X:FF Y:E5 P:67 SP:FB CYC: 37  CZI  -V 
F27E  A0 E6     LDY #$E6                        A:6F X:FF Y:E5 P:67 SP:FB CYC: 46  CZI  -V 
F280  A2 FF     LDX #$FF                        A:6F X:FF Y:E6 P:E5 SP:FB CYC: 52  C I  -VN
F282  A9 A5     LDA #$A5                        A:6F X:FF Y:E6 P:E5 SP:FB CYC: 58  C I  -VN
F284  8D 47 06  STA $0647 = 6F                  A:A5 X:FF Y:E6 P:E5 SP:FB CYC: 64  C I  -VN
F287  20 53 FB  JSR $FB53                       A:A5 X:FF Y:E6 P:E5 SP:FB CYC: 76  C I  -VN
FB53  24 01     BIT $01 = FF                    A:A5 X:FF Y:E6 P:E5 SP:F9 CYC: 94  C I  -VN
FB55  18        CLC                             A:A5 X:FF Y:E6 P:E5 SP:F9 CYC:103  C I  -VN
FB56  A9 B3     LDA #$B3                        A:A5 X:FF Y:E6 P:E4 SP:F9 CYC:109    I  -VN
FB58  60        RTS                             A:B3 X:FF Y:E6 P:E4 SP:F9 CYC:115    I  -VN
F28A  3F 48 05 *RLA $0548,X @ 0647 = A5         A:B3 X:FF Y:E6 P:E4 SP:FB CYC:133    I  -VN
F28D  EA        NOP                             A:02 X:FF Y:E6 P:65 SP:FB CYC:154  C I  -V 
F28E  EA        NOP                             A:02 X:FF Y:E6 P:65 SP:FB CYC:160  C I  -V 
F28F  EA        NOP                             A:02 X:FF Y:E6 P:65 SP:FB CYC:166  C I  -V 
F290  EA        NOP                             A:02 X:FF Y:E6 P:65 SP:FB CYC:172  C I  -V 
F291  20 59 FB  JSR $FB59                       A:02 X:FF Y:E6 P:65 SP:FB CYC:178  C I  -V 
FB59  50 1A     BVC $FB75                       A:02 X:FF Y:E6 P:65 SP:F9 CYC:196  C I  -V 
FB5B  90 18     BCC $FB75                       A:02 X:FF Y:E6 P:65 SP:F9 CYC:202  C I  -V 
FB5D  30 16     BMI $FB75                       A:02 X:FF Y:E6 P:65 SP:F9 CYC:208  C I  -V 
FB5F  C9 02     CMP #$02                        A:02 X:FF Y:E6 P:65 SP:F9 CYC:214  C I  -V 
FB61  D0 12     BNE $FB75                       A:02 X:FF Y:E6 P:67 SP:F9 CYC:220  CZI  -V 
FB63  60        RTS                             A:02 X:FF Y:E6 P:67 SP:F9 CYC:226  CZI  -V 
F294  AD 47 06  LDA $0647 = 4A                  A:02 X:FF Y:E6 P:67 SP:FB CYC:244  CZI  -V 
F297  C9 4A     CMP #$4A                        A:4A X:FF Y:E6 P:65 SP:FB CYC:256  C I  -V 
F299  F0 02     BEQ $F29D                       A:4A X:FF Y:E6 P:67 SP:FB CYC:262  CZI  -V 
F29D  C8        INY                             A:4A X:FF Y:E6 P:67 SP:FB CYC:271  CZI  -V 
F29E  A9 29     LDA #$29                        A:4A X:FF Y:E7 P:E5 SP:FB CYC:277  C I  -VN
F2A0  8D 47 06  STA $0647 = 4A                  A:29 X:FF Y:E7 P:65 SP:FB CYC:283  C I  -V 
F2A3  20 64 FB  JSR $FB64                       A:29 X:FF Y:E7 P:65 SP:FB CYC:295  C I  -V 
FB64  B8        CLV                             A:29 X:FF Y:E7 P:65 SP:F9 CYC:313  C I  -V 
FB65  18        CLC                             A:29 X:FF Y:E7 P:25 SP:F9 CYC:319  C I  -  
FB66  A9 42     LDA #$42                        A:29 X:FF Y:E7 P:24 SP:F9 CYC:325    I  -  
FB68  60        RTS                             A:42 X:FF Y:E7 P:24 SP:F9 CYC:331    I  -  
F2A6  3F 48 05 *RLA $0548,X @ 0647 = 29         A:42 X:FF Y:E7 P:24 SP:FB CYC:  8    I  -  
F2A9  EA        NOP                             A:42 X:FF Y:E7 P:24 SP:FB CYC: 29    I  -  
F2AA  EA        NOP                             A:42 X:FF Y:E7 P:24 SP:FB CYC: 35    I  -  
F2AB  EA        NOP                             A:42 X:FF Y:E7 P:24 SP:FB CYC: 41    I  -  
F2AC  EA        NOP                             A:42 X:FF Y:E7 P:24 SP:FB CYC: 47    I  -  
F2AD  20 69 FB  JSR $FB69                       A:42 X:FF Y:E7 P:24 SP:FB CYC: 53    I  -  
FB69  70 0A     BVS $FB75                       A:42 X:FF Y:E7 P:24 SP:F9 CYC: 71    I  -  
FB6B  F0 08     BEQ $FB75                       A:42 X:FF Y:E7 P:24 SP:F9 CYC: 77    I  -  
FB6D  30 06     BMI $FB75                       A:42 X:FF Y:E7 P:24 SP:F9 CYC: 83    I  -  
FB6F  B0 04     BCS $FB75                       A:42 X:FF Y:E7 P:24 SP:F9 CYC: 89    I  -  
FB71  C9 42     CMP #$42                        A:42 X:FF Y:E7 P:24 SP:F9 CYC: 95    I  -  
FB73  F0 02     BEQ $FB77                       A:42 X:FF Y:E7 P:27 SP:F9 CYC:101  CZI  -  
FB77  60        RTS                             A:42 X:FF Y:E7 P:27 SP:F9 CYC:110  CZI  -  
F2B0  AD 47 06  LDA $0647 = 52                  A:42 X:FF Y:E7 P:27 SP:FB CYC:128  CZI  -  
F2B3  C9 52     CMP #$52                        A:52 X:FF Y:E7 P:25 SP:FB CYC:140  C I  -  
F2B5  F0 02     BEQ $F2B9                       A:52 X:FF Y:E7 P:27 SP:FB CYC:146  CZI  -  
F2B9  C8        INY                             A:52 X:FF Y:E7 P:27 SP:FB CYC:155  CZI  -  
F2BA  A9 37     LDA #$37                        A:52 X:FF Y:E8 P:A5 SP:FB CYC:161  C I  - N
F2BC  8D 47 06  STA $0647 = 52                  A:37 X:FF Y:E8 P:25 SP:FB CYC:167  C I  -  
F2BF  20 68 FA  JSR $FA68                       A:37 X:FF Y:E8 P:25 SP:FB CYC:179  C I  -  
FA68  24 01     BIT $01 = FF                    A:37 X:FF Y:E8 P:25 SP:F9 CYC:197  C I  -  
FA6A  38        SEC                             A:37 X:FF Y:E8 P:E5 SP:F9 CYC:206  C I  -VN
FA6B  A9 75     LDA #$75                        A:37 X:FF Y:E8 P:E5 SP:F9 CYC:212  C I  -VN
FA6D  60        RTS                             A:75 X:FF Y:E8 P:65 SP:F9 CYC:218  C I  -V 
F2C2  3F 48 05 *RLA $0548,X @ 0647 = 37         A:75 X:FF Y:E8 P:65 SP:FB CYC:236  C I  -V 
F2C5  EA        NOP                             A:65 X:FF Y:E8 P:64 SP:FB CYC:257    I  -V 
F2C6  EA        NOP                             A:65 X:FF Y:E8 P:64 SP:FB CYC:263    I  -V 
F2C7  EA        NOP                             A:65 X:FF Y:E8 P:64 SP:FB CYC:269    I  -V 
F2C8  EA        NOP                             A:65 X:FF Y:E8 P:64 SP:FB CYC:275    I  -V 
F2C9  20 6E FA  JSR $FA6E                       A:65 X:FF Y:E8 P:64 SP:FB CYC:281    I  -V 
FA6E  50 76     BVC $FAE6                       A:65 X:FF Y:E8 P:64 SP:F9 CYC:299    I  -V 
FA70  F0 74     BEQ $FAE6                       A:65 X:FF Y:E8 P:64 SP:F9 CYC:305    I  -V 
FA72  30 72     BMI $FAE6                       A:65 X:FF Y:E8 P:64 SP:F9 CYC:311    I  -V 
FA74  B0 70     BCS $FAE6                       A:65 X:FF Y:E8 P:64 SP:F9 CYC:317    I  -V 
FA76  C9 65     CMP #$65                        A:65 X:FF Y:E8 P:64 SP:F9 CYC:323    I  -V 
FA78  D0 6C     BNE $FAE6                       A:65 X:FF Y:E8 P:67 SP:F9 CYC:329  CZI  -V 
FA7A  60        RTS                             A:65 X:FF Y:E8 P:67 SP:F9 CYC:335  CZI  -V 
F2CC  AD 47 06  LDA $0647 = 6F                  A:65 X:FF Y:E8 P:67 SP:FB CYC: 12  CZI  -V 
F2CF  C9 6F     CMP #$6F                        A:6F X:FF Y:E8 P:65 SP:FB CYC: 24  C I  -V 
F2D1  F0 02     BEQ $F2D5                       A:6F X:FF Y:E8 P:67 SP:FB CYC: 30  CZI  -V 
F2D5  60        RTS                             A:6F X:FF Y:E8 P:67 SP:FB CYC: 39  CZI  -V 
C647  20 D6 F2  JSR $F2D6                       A:6F X:FF Y:E8 P:67 SP:FD CYC: 57  CZI  -V 
F2D6  A9 FF     LDA #$FF                        A:6F X:FF Y:E8 P:67 SP:FB CYC: 75  CZI  -V 
F2D8  85 01     STA $01 = FF                    A:FF X:FF Y:E8 P:E5 SP:FB CYC: 81  C I  -VN
F2DA  A0 E9     LDY #$E9                        A:FF X:FF Y:E8 P:E5 SP:FB CYC: 90  C I  -VN
F2DC  A2 02     LDX #$02                        A:FF X:FF Y:E9 P:E5 SP:FB CYC: 96  C I  -VN
F2DE  A9 47     LDA #$47                        A:FF X:02 Y:E9 P:65 SP:FB CYC:102  C I  -V 
F2E0  85 47     STA $47 = 6F                    A:47 X:02 Y:E9 P:65 SP:FB CYC:108  C I  -V 
F2E2  A9 06     LDA #$06                        A:47 X:02 Y:E9 P:65 SP:FB CYC:117  C I  -V 
F2E4  85 48     STA $48 = 06                    A:06 X:02 Y:E9 P:65 SP:FB CYC:123  C I  -V 
F2E6  A9 A5     LDA #$A5                        A:06 X:02 Y:E9 P:65 SP:FB CYC:132  C I  -V 
F2E8  8D 47 06  STA $0647 = 6F                  A:A5 X:02 Y:E9 P:E5 SP:FB CYC:138  C I  -VN
F2EB  20 1D FB  JSR $FB1D                       A:A5 X:02 Y:E9 P:E5 SP:FB CYC:150  C I  -VN
FB1D  24 01     BIT $01 = FF                    A:A5 X:02 Y:E9 P:E5 SP:F9 CYC:168  C I  -VN
FB1F  18        CLC                             A:A5 X:02 Y:E9 P:E5 SP:F9 CYC:177  C I  -VN
FB20  A9 B3     LDA #$B3                        A:A5 X:02 Y:E9 P:E4 SP:F9 CYC:183    I  -VN
FB22  60        RTS                             A:B3 X:02 Y:E9 P:E4 SP:F9 CYC:189    I  -VN
F2EE  43 45    *SRE ($45,X) @ 47 = 0647 = A5    A:B3 X:02 Y:E9 P:E4 SP:FB CYC:207    I  -VN
F2F0  EA        NOP                             A:E1 X:02 Y:E9 P:E5 SP:FB CYC:231  C I  -VN
F2F1  EA        NOP                             A:E1 X:02 Y:E9 P:E5 SP:FB CYC:237  C I  -VN
F2F2  EA        NOP                             A:E1 X:02 Y:E9 P:E5 SP:FB CYC:243  C I  -VN
F2F3  EA        NOP                             A:E1 X:02 Y:E9 P:E5 SP:FB CYC:249  C I  -VN
F2F4  20 23 FB  JSR $FB23                       A:E1 X:02 Y:E9 P:E5 SP:FB CYC:255  C I  -VN
FB23  50 50     BVC $FB75                       A:E1 X:02 Y:E9 P:E5 SP:F9 CYC:273  C I  -VN
FB25  90 4E     BCC $FB75                       A:E1 X:02 Y:E9 P:E5 SP:F9 CYC:279  C I  -VN
FB27  10 4C     BPL $FB75                       A:E1 X:02 Y:E9 P:E5 SP:F9 CYC:285  C I  -VN
FB29  C9 E1     CMP #$E1                        A:E1 X:02 Y:E9 P:E5 SP:F9 CYC:291  C I  -VN
FB2B  D0 48     BNE $FB75                       A:E1 X:02 Y:E9 P:67 SP:F9 CYC:297  CZI  -V 
FB2D  60        RTS                             A:E1 X:02 Y:E9 P:67 SP:F9 CYC:303  CZI  -V 
F2F7  AD 47 06  LDA $0647 = 52                  A:E1 X:02 Y:E9 P:67 SP:FB CYC:321  CZI  -V 
F2FA  C9 52     CMP #$52                        A:52 X:02 Y:E9 P:65 SP:FB CYC:333  C I  -V 
F2FC  F0 02     BEQ $F300                       A:52 X:02 Y:E9 P:67 SP:FB CYC:339  CZI  -V 
F300  C8        INY                             A:52 X:02 Y:E9 P:67 SP:FB CYC: 10  CZI  -V 
F301  A9 29     LDA #$29                        A:52 X:02 Y:EA P:E5 SP:FB CYC: 16  C I  -VN
F303  8D 47 06  STA $0647 = 52                  A:29 X:02 Y:EA P:65 SP:FB CYC: 22  C I  -V 
F306  20 2E FB  JSR $FB2E                       A:29 X:02 Y:EA P:65 SP:FB CYC: 34  C I  -V 
FB2E  B8        CLV                             A:29 X:02 Y:EA P:65 SP:F9 CYC: 52  C I  -V 
FB2F  18        CLC                             A:29 X:02 Y:EA P:25 SP:F9 CYC: 58  C I  -  
FB30  A9 42     LDA #$42                        A:29 X:02 Y:EA P:24 SP:F9 CYC: 64    I  -  
FB32  60        RTS                             A:42 X:02 Y:EA P:24 SP:F9 CYC: 70    I  -  
F309  43 45    *SRE ($45,X) @ 47 = 0647 = 29    A:42 X:02 Y:EA P:24 SP:FB CYC: 88    I  -  
F30B  EA        NOP                             A:56 X:02 Y:EA P:25 SP:FB CYC:112  C I  -  
F30C  EA        NOP                             A:56 X:02 Y:EA P:25 SP:FB CYC:118  C I  -  
F30D  EA        NOP                             A:56 X:02 Y:EA P:25 SP:FB CYC:124  C I  -  
F30E  EA        NOP                             A:56 X:02 Y:EA P:25 SP:FB CYC:130  C I  -  
F30F  20 33 FB  JSR $FB33                       A:56 X:02 Y:EA P:25 SP:FB CYC:136  C I  -  
FB33  70 40     BVS $FB75                       A:56 X:02 Y:EA P:25 SP:F9 CYC:154  C I  -  
FB35  F0 3E     BEQ $FB75                       A:56 X:02 Y:EA P:25 SP:F9 CYC:160  C I  -  
FB37  30 3C     BMI $FB75                       A:56 X:02 Y:EA P:25 SP:F9 CYC:166  C I  -  
FB39  90 3A     BCC $FB75                       A:56 X:02 Y:EA P:25 SP:F9 CYC:172  C I  -  
FB3B  C9 56     CMP #$56                        A:56 X:02 Y:EA P:25 SP:F9 CYC:178  C I  -  
FB3D  D0 36     BNE $FB75                       A:56 X:02 Y:EA P:27 SP:F9 CYC:184  CZI  -  
FB3F  60        RTS                             A:56 X:02 Y:EA P:27 SP:F9 CYC:190  CZI  -  
F312  AD 47 06  LDA $0647 = 14                  A:56 X:02 Y:EA P:27 SP:FB CYC:208  CZI  -  
F315  C9 14     CMP #$14                        A:14 X:02 Y:EA P:25 SP:FB CYC:220  C I  -  
F317  F0 02     BEQ $F31B                       A:14 X:02 Y:EA P:27 SP:FB CYC:226  CZI  -  
F31B  C8        INY                             A:14 X:02 Y:EA P:27 SP:FB CYC:235  CZI  -  
F31C  A9 37     LDA #$37                        A:14 X:02 Y:EB P:A5 SP:FB CYC:241  C I  - N
F31E  8D 47 06  STA $0647 = 14                  A:37 X:02 Y:EB P:25 SP:FB CYC:247  C I  -  
F321  20 40 FB  JSR $FB40                       A:37 X:02 Y:EB P:25 SP:FB CYC:259  C I  -  
FB40  24 01     BIT $01 = FF                    A:37 X:02 Y:EB P:25 SP:F9 CYC:277  C I  -  
FB42  38        SEC                             A:37 X:02 Y:EB P:E5 SP:F9 CYC:286  C I  -VN
FB43  A9 75     LDA #$75                        A:37 X:02 Y:EB P:E5 SP:F9 CYC:292  C I  -VN
FB45  60        RTS                             A:75 X:02 Y:EB P:65 SP:F9 CYC:298  C I  -V 
F324  43 45    *SRE ($45,X) @ 47 = 0647 = 37    A:75 X:02 Y:EB P:65 SP:FB CYC:316  C I  -V 
F326  EA        NOP                             A:6E X:02 Y:EB P:65 SP:FB CYC:340  C I  -V 
F327  EA        NOP                             A:6E X:02 Y:EB P:65 SP:FB CYC:  5  C I  -V 
F328  EA        NOP                             A:6E X:02 Y:EB P:65 SP:FB CYC: 11  C I  -V 
F329  EA        NOP                             A:6E X:02 Y:EB P:65 SP:FB CYC: 17  C I  -V 
F32A  20 46 FB  JSR $FB46                       A:6E X:02 Y:EB P:65 SP:FB CYC: 23  C I  -V 
FB46  50 2D     BVC $FB75                       A:6E X:02 Y:EB P:65 SP:F9 CYC: 41  C I  -V 
FB48  F0 2B     BEQ $FB75                       A:6E X:02 Y:EB P:65 SP:F9 CYC: 47  C I  -V 
FB4A  30 29     BMI $FB75                       A:6E X:02 Y:EB P:65 SP:F9 CYC: 53  C I  -V 
FB4C  90 27     BCC $FB75                       A:6E X:02 Y:EB P:65 SP:F9 CYC: 59  C I  -V 
FB4E  C9 6E     CMP #$6E                        A:6E X:02 Y:EB P:65 SP:F9 CYC: 65  C I  -V 
FB50  D0 23     BNE $FB75                       A:6E X:02 Y:EB P:67 SP:F9 CYC: 71  CZI  -V 
FB52  60        RTS                             A:6E X:02 Y:EB P:67 SP:F9 CYC: 77  CZI  -V 
F32D  AD 47 06  LDA $0647 = 1B                  A:6E X:02 Y:EB P:67 SP:FB CYC: 95  CZI  -V 
F330  C9 1B     CMP #$1B                        A:1B X:02 Y:EB P:65 SP:FB CYC:107  C I  -V 
F332  F0 02     BEQ $F336                       A:1B X:02 Y:EB P:67 SP:FB CYC:113  CZI  -V 
F336  C8        INY                             A:1B X:02 Y:EB P:67 SP:FB CYC:122  CZI  -V 
F337  A9 A5     LDA #$A5                        A:1B X:02 Y:EC P:E5 SP:FB CYC:128  C I  -VN
F339  85 47     STA $47 = 47                    A:A5 X:02 Y:EC P:E5 SP:FB CYC:134  C I  -VN
F33B  20 1D FB  JSR $FB1D                       A:A5 X:02 Y:EC P:E5 SP:FB CYC:143  C I  -VN
FB1D  24 01     BIT $01 = FF                    A:A5 X:02 Y:EC P:E5 SP:F9 CYC:161  C I  -VN
FB1F  18        CLC                             A:A5 X:02 Y:EC P:E5 SP:F9 CYC:170  C I  -VN
FB20  A9 B3     LDA #$B3                        A:A5 X:02 Y:EC P:E4 SP:F9 CYC:176    I  -VN
FB22  60        RTS                             A:B3 X:02 Y:EC P:E4 SP:F9 CYC:182    I  -VN
F33E  47 47    *SRE $47 = A5                    A:B3 X:02 Y:EC P:E4 SP:FB CYC:200    I  -VN
F340  EA        NOP                             A:E1 X:02 Y:EC P:E5 SP:FB CYC:215  C I  -VN
F341  EA        NOP                             A:E1 X:02 Y:EC P:E5 SP:FB CYC:221  C I  -VN
F342  EA        NOP                             A:E1 X:02 Y:EC P:E5 SP:FB CYC:227  C I  -VN
F343  EA        NOP                             A:E1 X:02 Y:EC P:E5 SP:FB CYC:233  C I  -VN
F344  20 23 FB  JSR $FB23                       A:E1 X:02 Y:EC P:E5 SP:FB CYC:239  C I  -VN
FB23  50 50     BVC $FB75                       A:E1 X:02 Y:EC P:E5 SP:F9 CYC:257  C I  -VN
FB25  90 4E     BCC $FB75                       A:E1 X:02 Y:EC P:E5 SP:F9 CYC:263  C I  -VN
FB27  10 4C     BPL $FB75                       A:E1 X:02 Y:EC P:E5 SP:F9 CYC:269  C I  -VN
FB29  C9 E1     CMP #$E1                        A:E1 X:02 Y:EC P:E5 SP:F9 CYC:275  C I  -VN
FB2B  D0 48     BNE $FB75                       A:E1 X:02 Y:EC P:67 SP:F9 CYC:281  CZI  -V 
FB2D  60        RTS                             A:E1 X:02 Y:EC P:67 SP:F9 CYC:287  CZI  -V 
F347  A5 47     LDA $47 = 52                    A:E1 X:02 Y:EC P:67 SP:FB CYC:305  CZI  -V 
F349  C9 52     CMP #$52                        A:52 X:02 Y:EC P:65 SP:FB CYC:314  C I  -V 
F34B  F0 02     BEQ $F34F                       A:52 X:02 Y:EC P:67 SP:FB CYC:320  CZI  -V 
F34F  C8        INY                             A:52 X:02 Y:EC P:67 SP:FB CYC:329  CZI  -V 
F350  A9 29     LDA #$29                        A:52 X:02 Y:ED P:E5 SP:FB CYC:335  C I  -VN
F352  85 47     STA $47 = 52                    A:29 X:02 Y:ED P:65 SP:FB CYC:  0  C I  -V 
F354  20 2E FB  JSR $FB2E                       A:29 X:02 Y:ED P:65 SP:FB CYC:  9  C I  -V 
FB2E  B8        CLV                             A:29 X:02 Y:ED P:65 SP:F9 CYC: 27  C I  -V 
FB2F  18        CLC                             A:29 X:02 Y:ED P:25 SP:F9 CYC: 33  C I  -  
FB30  A9 42     LDA #$42                        A:29 X:02 Y:ED P:24 SP:F9 CYC: 39    I  -  
FB32  60        RTS                             A:42 X:02 Y:ED P:24 SP:F9 CYC: 45    I  -  
F357  47 47    *SRE $47 = 29                    A:42 X:02 Y:ED P:24 SP:FB CYC: 63    I  -  
F359  EA        NOP                             A:56 X:02 Y:ED P:25 SP:FB CYC: 78  C I  -  
F35A  EA        NOP                             A:56 X:02 Y:ED P:25 SP:FB CYC: 84  C I  -  
F35B  EA        NOP                             A:56 X:02 Y:ED P:25 SP:FB CYC: 90  C I  -  
F35C  EA        NOP                             A:56 X:02 Y:ED P:25 SP:FB CYC: 96  C I  -  
F35D  20 33 FB  JSR $FB33                       A:56 X:02 Y:ED P:25 SP:FB CYC:102  C I  -  
FB33  70 40     BVS $FB75                       A:56 X:02 Y:ED P:25 SP:F9 CYC:120  C I  -  
FB35  F0 3E     BEQ $FB75                       A:56 X:02 Y:ED P:25 SP:F9 CYC:126  C I  -  
FB37  30 3C     BMI $FB75                       A:56 X:02 Y:ED P:25 SP:F9 CYC:132  C I  -  
FB39  90 3A     BCC $FB75                       A:56 X:02 Y:ED P:25 SP:F9 CYC:138  C I  -  
FB3B  C9 56     CMP #$56                        A:56 X:02 Y:ED P:25 SP:F9 CYC:144  C I  -  
FB3D  D0 36     BNE $FB75                       A:56 X:02 Y:ED P:27 SP:F9 CYC:150  CZI  -  
FB3F  60        RTS                             A:56 X:02 Y:ED P:27 SP:F9 CYC:156  CZI  -  
F360  A5 47     LDA $47 = 14                    A:56 X:02 Y:ED P:27 SP:FB CYC:174  CZI  -  
F362  C9 14     CMP #$14                        A:14 X:02 Y:ED P:25 SP:FB CYC:183  C I  -  
F364  F0 02     BEQ $F368                       A:14 X:02 Y:ED P:27 SP:FB CYC:189  CZI  -  
F368  C8        INY                             A:14 X:02 Y:ED P:27 SP:FB CYC:198  CZI  -  
F369  A9 37     LDA #$37                        A:14 X:02 Y:EE P:A5 SP:FB CYC:204  C I  - N
F36B  85 47     STA $47 = 14                    A:37 X:02 Y:EE P:25 SP:FB CYC:210  C I  -  
F36D  20 40 FB  JSR $FB40                       A:37 X:02 Y:EE P:25 SP:FB CYC:219  C I  -  
FB40  24 01     BIT $01 = FF                    A:37 X:02 Y:EE P:25 SP:F9 CYC:237  C I  -  
FB42  38        SEC                             A:37 X:02 Y:EE P:E5 SP:F9 CYC:246  C I  -VN
FB43  A9 75     LDA #$75                        A:37 X:02 Y:EE P:E5 SP:F9 CYC:252  C I  -VN
FB45  60        RTS                             A:75 X:02 Y:EE P:65 SP:F9 CYC:258  C I  -V 
F370  47 47    *SRE $47 = 37                    A:75 X:02 Y:EE P:65 SP:FB CYC:276  C I  -V 
F372  EA        NOP                             A:6E X:02 Y:EE P:65 SP:FB CYC:291  C I  -V 
F373  EA        NOP                             A:6E X:02 Y:EE P:65 SP:FB CYC:297  C I  -V 
F374  EA        NOP                             A:6E X:02 Y:EE P:65 SP:FB CYC:303  C I  -V 
F375  EA        NOP                             A:6E X:02 Y:EE P:65 SP:FB CYC:309  C I  -V 
F376  20 46 FB  JSR $FB46                       A:6E X:02 Y:EE P:65 SP:FB CYC:315  C I  -V 
FB46  50 2D     BVC $FB75                       A:6E X:02 Y:EE P:65 SP:F9 CYC:333  C I  -V 
FB48  F0 2B     BEQ $FB75                       A:6E X:02 Y:EE P:65 SP:F9 CYC:339  C I  -V 
FB4A  30 29     BMI $FB75                       A:6E X:02 Y:EE P:65 SP:F9 CYC:  4  C I  -V 
FB4C  90 27     BCC $FB75                       A:6E X:02 Y:EE P:65 SP:F9 CYC: 10  C I  -V 
FB4E  C9 6E     CMP #$6E                        A:6E X:02 Y:EE P:65 SP:F9 CYC: 16  C I  -V 
FB50  D0 23     BNE $FB75                       A:6E X:02 Y:EE P:67 SP:F9 CYC: 22  CZI  -V 
FB52  60        RTS                             A:6E X:02 Y:EE P:67 SP:F9 CYC: 28  CZI  -V 
F379  A5 47     LDA $47 = 1B                    A:6E X:02 Y:EE P:67 SP:FB CYC: 46  CZI  -V 
F37B  C9 1B     CMP #$1B                        A:1B X:02 Y:EE P:65 SP:FB CYC: 55  C I  -V 
F37D  F0 02     BEQ $F381                       A:1B X:02 Y:EE P:67 SP:FB CYC: 61  CZI  -V 
F381  C8        INY                             A:1B X:02 Y:EE P:67 SP:FB CYC: 70  CZI  -V 
F382  A9 A5     LDA #$A5                        A:1B X:02 Y:EF P:E5 SP:FB CYC: 76  C I  -VN
F384  8D 47 06  STA $0647 = 1B                  A:A5 X:02 Y:EF P:E5 SP:FB CYC: 82  C I  -VN
F387  20 1D FB  JSR $FB1D                       A:A5 X:02 Y:EF P:E5 SP:FB CYC: 94  C I  -VN
FB1D  24 01     BIT $01 = FF                    A:A5 X:02 Y:EF P:E5 SP:F9 CYC:112  C I  -VN
FB1F  18        CLC                             A:A5 X:02 Y:EF P:E5 SP:F9 CYC:121  C I  -VN
FB20  A9 B3     LDA #$B3                        A:A5 X:02 Y:EF P:E4 SP:F9 CYC:127    I  -VN
FB22  60        RTS                             A:B3 X:02 Y:EF P:E4 SP:F9 CYC:133    I  -VN
F38A  4F 47 06 *SRE $0647 = A5                  A:B3 X:02 Y:EF P:E4 SP:FB CYC:151    I  -VN
F38D  EA        NOP                             A:E1 X:02 Y:EF P:E5 SP:FB CYC:169  C I  -VN
F38E  EA        NOP                             A:E1 X:02 Y:EF P:E5 SP:FB CYC:175  C I  -VN
F38F  EA        NOP                             A:E1 X:02 Y:EF P:E5 SP:FB CYC:181  C I  -VN
F390  EA        NOP                             A:E1 X:02 Y:EF P:E5 SP:FB CYC:187  C I  -VN
F391  20 23 FB  JSR $FB23                       A:E1 X:02 Y:EF P:E5 SP:FB CYC:193  C I  -VN
FB23  50 50     BVC $FB75                       A:E1 X:02 Y:EF P:E5 SP:F9 CYC:211  C I  -VN
FB25  90 4E     BCC $FB75                       A:E1 X:02 Y:EF P:E5 SP:F9 CYC:217  C I  -VN
FB27  10 4C     BPL $FB75                       A:E1 X:02 Y:EF P:E5 SP:F9 CYC:223  C I  -VN
FB29  C9 E1     CMP #$E1                        A:E1 X:02 Y:EF P:E5 SP:F9 CYC:229  C I  -VN
FB2B  D0 48     BNE $FB75                       A:E1 X:02 Y:EF P:67 SP:F9 CYC:235  CZI  -V 
FB2D  60        RTS                             A:E1 X:02 Y:EF P:67 SP:F9 CYC:241  CZI  -V 
F394  AD 47 06  LDA $0647 = 52                  A:E1 X:02 Y:EF P:67 SP:FB CYC:259  CZI  -V 
F397  C9 52     CMP #$52                        A:52 X:02 Y:EF P:65 SP:FB CYC:271  C I  -V 
F399  F0 02     BEQ $F39D                       A:52 X:02 Y:EF P:67 SP:FB CYC:277  CZI  -V 
F39D  C8        INY                             A:52 X:02 Y:EF P:67 SP:FB CYC:286  CZI  -V 
F39E  A9 29     LDA #$29                        A:52 X:02 Y:F0 P:E5 SP:FB CYC:292  C I  -VN
F3A0  8D 47 06  STA $0647 = 52                  A:29 X:02 Y:F0 P:65 SP:FB CYC:298  C I  -V 
F3A3  20 2E FB  JSR $FB2E                       A:29 X:02 Y:F0 P:65 SP:FB CYC:310  C I  -V 
FB2E  B8        CLV                             A:29 X:02 Y:F0 P:65 SP:F9 CYC:328  C I  -V 
FB2F  18        CLC                             A:29 X:02 Y:F0 P:25 SP:F9 CYC:334  C I  -  
FB30  A9 42     LDA #$42                        A:29 X:02 Y:F0 P:24 SP:F9 CYC:340    I  -  
FB32  60        RTS                             A:42 X:02 Y:F0 P:24 SP:F9 CYC:  5    I  -  
F3A6  4F 47 06 *SRE $0647 = 29                  A:42 X:02 Y:F0 P:24 SP:FB CYC: 23    I  -  
F3A9  EA        NOP                             A:56 X:02 Y:F0 P:25 SP:FB CYC: 41  C I  -  
F3AA  EA        NOP                             A:56 X:02 Y:F0 P:25 SP:FB CYC: 47  C I  -  
F3AB  EA        NOP                             A:56 X:02 Y:F0 P:25 SP:FB CYC: 53  C I  -  
F3AC  EA        NOP                             A:56 X:02 Y:F0 P:25 SP:FB CYC: 59  C I  -  
F3AD  20 33 FB  JSR $FB33                       A:56 X:02 Y:F0 P:25 SP:FB CYC: 65  C I  -  
FB33  70 40     BVS $FB75                       A:56 X:02 Y:F0 P:25 SP:F9 CYC: 83  C I  -  
FB35  F0 3E     BEQ $FB75                       A:56 X:02 Y:F0 P:25 SP:F9 CYC: 89  C I  -  
FB37  30 3C     BMI $FB75                       A:56 X:02 Y:F0 P:25 SP:F9 CYC: 95  C I  -  
FB39  90 3A     BCC $FB75                       A:56 X:02 Y:F0 P:25 SP:F9 CYC:101  C I  -  
FB3B  C9 56     CMP #$56                        A:56 X:02 Y:F0 P:25 SP:F9 CYC:107  C I  -  
FB3D  D0 36     BNE $FB75                       A:56 X:02 Y:F0 P:27 SP:F9 CYC:113  CZI  -  
FB3F  60        RTS                             A:56 X:02 Y:F0 P:27 SP:F9 CYC:119  CZI  -  
F3B0  AD 47 06  LDA $0647 = 14                  A:56 X:02 Y:F0 P:27 SP:FB CYC:137  CZI  -  
F3B3  C9 14     CMP #$14                        A:14 X:02 Y:F0 P:25 SP:FB CYC:149  C I  -  
F3B5  F0 02     BEQ $F3B9                       A:14 X:02 Y:F0 P:27 SP:FB CYC:155  CZI  -  
F3B9  C8        INY                             A:14 X:02 Y:F0 P:27 SP:FB CYC:164  CZI  -  
F3BA  A9 37     LDA #$37                        A:14 X:02 Y:F1 P:A5 SP:FB CYC:170  C I  - N
F3BC  8D 47 06  STA $0647 = 14                  A:37 X:02 Y:F1 P:25 SP:FB CYC:176  C I  -  
F3BF  20 40 FB  JSR $FB40                       A:37 X:02 Y:F1 P:25 SP:FB CYC:188  C I  -  
FB40  24 01     BIT $01 = FF                    A:37 X:02 Y:F1 P:25 SP:F9 CYC:206  C I  -  
FB42  38        SEC                             A:37 X:02 Y:F1 P:E5 SP:F9 CYC:215  C I  -VN
FB43  A9 75     LDA #$75                        A:37 X:02 Y:F1 P:E5 SP:F9 CYC:221  C I  -VN
FB45  60        RTS                             A:75 X:02 Y:F1 P:65 SP:F9 CYC:227  C I  -V 
F3C2  4F 47 06 *SRE $0647 = 37                  A:75 X:02 Y:F1 P:65 SP:FB CYC:245  C I  -V 
F3C5  EA        NOP                             A:6E X:02 Y:F1 P:65 SP:FB CYC:263  C I  -V 
F3C6  EA        NOP                             A:6E X:02 Y:F1 P:65 SP:FB CYC:269  C I  -V 
F3C7  EA        NOP                             A:6E X:02 Y:F1 P:65 SP:FB CYC:275  C I  -V 
F3C8  EA        NOP                             A:6E X:02 Y:F1 P:65 SP:FB CYC:281  C I  -V 
F3C9  20 46 FB  JSR $FB46                       A:6E X:02 Y:F1 P:65 SP:FB CYC:287  C I  -V 
FB46  50 2D     BVC $FB75                       A:6E X:02 Y:F1 P:65 SP:F9 CYC:305  C I  -V 
FB48  F0 2B     BEQ $FB75                       A:6E X:02 Y:F1 P:65 SP:F9 CYC:311  C I  -V 
FB4A  30 29     BMI $FB75                       A:6E X:02 Y:F1 P:65 SP:F9 CYC:317  C I  -V 
FB4C  90 27     BCC $FB75                       A:6E X:02 Y:F1 P:65 SP:F9 CYC:323  C I  -V 
FB4E  C9 6E     CMP #$6E                        A:6E X:02 Y:F1 P:65 SP:F9 CYC:329  C I  -V 
FB50  D0 23     BNE $FB75                       A:6E X:02 Y:F1 P:67 SP:F9 CYC:335  CZI  -V 
FB52  60        RTS                             A:6E X:02 Y:F1 P:67 SP:F9 CYC:  0  CZI  -V 
F3CC  AD 47 06  LDA $0647 = 1B                  A:6E X:02 Y:F1 P:67 SP:FB CYC: 18  CZI  -V 
F3CF  C9 1B     CMP #$1B                        A:1B X:02 Y:F1 P:65 SP:FB CYC: 30  C I  -V 
F3D1  F0 02     BEQ $F3D5                       A:1B X:02 Y:F1 P:67 SP:FB CYC: 36  CZI  -V 
F3D5  A9 A5     LDA #$A5                        A:1B X:02 Y:F1 P:67 SP:FB CYC: 45  CZI  -V 
F3D7  8D 47 06  STA $0647 = 1B                  A:A5 X:02 Y:F1 P:E5 SP:FB CYC: 51  C I  -VN
F3DA  A9 48     LDA #$48                        A:A5 X:02 Y:F1 P:E5 SP:FB CYC: 63  C I  -VN
F3DC  85 45     STA $45 = 48                    A:48 X:02 Y:F1 P:65 SP:FB CYC: 69  C I  -V 
F3DE  A9 05     LDA #$05                        A:48 X:02 Y:F1 P:65 SP:FB CYC: 78  C I  -V 
F3E0  85 46     STA $46 = 05                    A:05 X:02 Y:F1 P:65 SP:FB CYC: 84  C I  -V 
F3E2  A0 FF     LDY #$FF                        A:05 X:02 Y:F1 P:65 SP:FB CYC: 93  C I  -V 
F3E4  20 1D FB  JSR $FB1D                       A:05 X:02 Y:FF P:E5 SP:FB CYC: 99  C I  -VN
FB1D  24 01     BIT $01 = FF                    A:05 X:02 Y:FF P:E5 SP:F9 CYC:117  C I  -VN
FB1F  18        CLC                             A:05 X:02 Y:FF P:E5 SP:F9 CYC:126  C I  -VN
FB20  A9 B3     LDA #$B3                        A:05 X:02 Y:FF P:E4 SP:F9 CYC:132    I  -VN
FB22  60        RTS                             A:B3 X:02 Y:FF P:E4 SP:F9 CYC:138    I  -VN
F3E7  53 45    *SRE ($45),Y = 0548 @ 0647 = A5  A:B3 X:02 Y:FF P:E4 SP:FB CYC:156    I  -VN
F3E9  EA        NOP                             A:E1 X:02 Y:FF P:E5 SP:FB CYC:180  C I  -VN
F3EA  EA        NOP                             A:E1 X:02 Y:FF P:E5 SP:FB CYC:186  C I  -VN
F3EB  08        PHP                             A:E1 X:02 Y:FF P:E5 SP:FB CYC:192  C I  -VN
F3EC  48        PHA                             A:E1 X:02 Y:FF P:E5 SP:FA CYC:201  C I  -VN
F3ED  A0 F2     LDY #$F2                        A:E1 X:02 Y:FF P:E5 SP:F9 CYC:210  C I  -VN
F3EF  68        PLA                             A:E1 X:02 Y:F2 P:E5 SP:F9 CYC:216  C I  -VN
F3F0  28        PLP                             A:E1 X:02 Y:F2 P:E5 SP:FA CYC:228  C I  -VN
F3F1  20 23 FB  JSR $FB23                       A:E1 X:02 Y:F2 P:E5 SP:FB CYC:240  C I  -VN
FB23  50 50     BVC $FB75                       A:E1 X:02 Y:F2 P:E5 SP:F9 CYC:258  C I  -VN
FB25  90 4E     BCC $FB75                       A:E1 X:02 Y:F2 P:E5 SP:F9 CYC:264  C I  -VN
FB27  10 4C     BPL $FB75                       A:E1 X:02 Y:F2 P:E5 SP:F9 CYC:270  C I  -VN
FB29  C9 E1     CMP #$E1                        A:E1 X:02 Y:F2 P:E5 SP:F9 CYC:276  C I  -VN
FB2B  D0 48     BNE $FB75                       A:E1 X:02 Y:F2 P:67 SP:F9 CYC:282  CZI  -V 
FB2D  60        RTS                             A:E1 X:02 Y:F2 P:67 SP:F9 CYC:288  CZI  -V 
F3F4  AD 47 06  LDA $0647 = 52                  A:E1 X:02 Y:F2 P:67 SP:FB CYC:306  CZI  -V 
F3F7  C9 52     CMP #$52                        A:52 X:02 Y:F2 P:65 SP:FB CYC:318  C I  -V 
F3F9  F0 02     BEQ $F3FD                       A:52 X:02 Y:F2 P:67 SP:FB CYC:324  CZI  -V 
F3FD  A0 FF     LDY #$FF                        A:52 X:02 Y:F2 P:67 SP:FB CYC:333  CZI  -V 
F3FF  A9 29     LDA #$29                        A:52 X:02 Y:FF P:E5 SP:FB CYC:339  C I  -VN
F401  8D 47 06  STA $0647 = 52                  A:29 X:02 Y:FF P:65 SP:FB CYC:  4  C I  -V 
F404  20 2E FB  JSR $FB2E                       A:29 X:02 Y:FF P:65 SP:FB CYC: 16  C I  -V 
FB2E  B8        CLV                             A:29 X:02 Y:FF P:65 SP:F9 CYC: 34  C I  -V 
FB2F  18        CLC                             A:29 X:02 Y:FF P:25 SP:F9 CYC: 40  C I  -  
FB30  A9 42     LDA #$42                        A:29 X:02 Y:FF P:24 SP:F9 CYC: 46    I  -  
FB32  60        RTS                             A:42 X:02 Y:FF P:24 SP:F9 CYC: 52    I  -  
F407  53 45    *SRE ($45),Y = 0548 @ 0647 = 29  A:42 X:02 Y:FF P:24 SP:FB CYC: 70    I  -  
F409  EA        NOP                             A:56 X:02 Y:FF P:25 SP:FB CYC: 94  C I  -  
F40A  EA        NOP                             A:56 X:02 Y:FF P:25 SP:FB CYC:100  C I  -  
F40B  08        PHP                             A:56 X:02 Y:FF P:25 SP:FB CYC:106  C I  -  
F40C  48        PHA                             A:56 X:02 Y:FF P:25 SP:FA CYC:115  C I  -  
F40D  A0 F3     LDY #$F3                        A:56 X:02 Y:FF P:25 SP:F9 CYC:124  C I  -  
F40F  68        PLA                             A:56 X:02 Y:F3 P:A5 SP:F9 CYC:130  C I  - N
F410  28        PLP                             A:56 X:02 Y:F3 P:25 SP:FA CYC:142  C I  -  
F411  20 33 FB  JSR $FB33                       A:56 X:02 Y:F3 P:25 SP:FB CYC:154  C I  -  
FB33  70 40     BVS $FB75                       A:56 X:02 Y:F3 P:25 SP:F9 CYC:172  C I  -  
FB35  F0 3E     BEQ $FB75                       A:56 X:02 Y:F3 P:25 SP:F9 CYC:178  C I  -  
FB37  30 3C     BMI $FB75                       A:56 X:02 Y:F3 P:25 SP:F9 CYC:184  C I  -  
FB39  90 3A     BCC $FB75                       A:56 X:02 Y:F3 P:25 SP:F9 CYC:190  C I  -  
FB3B  C9 56     CMP #$56                        A:56 X:02 Y:F3 P:25 SP:F9 CYC:196  C I  -  
FB3D  D0 36     BNE $FB75                       A:56 X:02 Y:F3 P:27 SP:F9 CYC:202  CZI  -  
FB3F  60        RTS                             A:56 X:02 Y:F3 P:27 SP:F9 CYC:208  CZI  -  
F414  AD 47 06  LDA $0647 = 14                  A:56 X:02 Y:F3 P:27 SP:FB CYC:226  CZI  -  
F417  C9 14     CMP #$14                        A:14 X:02 Y:F3 P:25 SP:FB CYC:238  C I  -  
F419  F0 02     BEQ $F41D                       A:14 X:02 Y:F3 P:27 SP:FB CYC:244  CZI  -  
F41D  A0 FF     LDY #$FF                        A:14 X:02 Y:F3 P:27 SP:FB CYC:253  CZI  -  
F41F  A9 37     LDA #$37                        A:14 X:02 Y:FF P:A5 SP:FB CYC:259  C I  - N
F421  8D 47 06  STA $0647 = 14                  A:37 X:02 Y:FF P:25 SP:FB CYC:265  C I  -  
F424  20 40 FB  JSR $FB40                       A:37 X:02 Y:FF P:25 SP:FB CYC:277  C I  -  
FB40  24 01     BIT $01 = FF                    A:37 X:02 Y:FF P:25 SP:F9 CYC:295  C I  -  
FB42  38        SEC                             A:37 X:02 Y:FF P:E5 SP:F9 CYC:304  C I  -VN
FB43  A9 75     LDA #$75                        A:37 X:02 Y:FF P:E5 SP:F9 CYC:310  C I  -VN
FB45  60        RTS                             A:75 X:02 Y:FF P:65 SP:F9 CYC:316  C I  -V 
F427  53 45    *SRE ($45),Y = 0548 @ 0647 = 37  A:75 X:02 Y:FF P:65 SP:FB CYC:334  C I  -V 
F429  EA        NOP                             A:6E X:02 Y:FF P:65 SP:FB CYC: 17  C I  -V 
F42A  EA        NOP                             A:6E X:02 Y:FF P:65 SP:FB CYC: 23  C I  -V 
F42B  08        PHP                             A:6E X:02 Y:FF P:65 SP:FB CYC: 29  C I  -V 
F42C  48        PHA                             A:6E X:02 Y:FF P:65 SP:FA CYC: 38  C I  -V 
F42D  A0 F4     LDY #$F4                        A:6E X:02 Y:FF P:65 SP:F9 CYC: 47  C I  -V 
F42F  68        PLA                             A:6E X:02 Y:F4 P:E5 SP:F9 CYC: 53  C I  -VN
F430  28        PLP                             A:6E X:02 Y:F4 P:65 SP:FA CYC: 65  C I  -V 
F431  20 46 FB  JSR $FB46                       A:6E X:02 Y:F4 P:65 SP:FB CYC: 77  C I  -V 
FB46  50 2D     BVC $FB75                       A:6E X:02 Y:F4 P:65 SP:F9 CYC: 95  C I  -V 
FB48  F0 2B     BEQ $FB75                       A:6E X:02 Y:F4 P:65 SP:F9 CYC:101  C I  -V 
FB4A  30 29     BMI $FB75                       A:6E X:02 Y:F4 P:65 SP:F9 CYC:107  C I  -V 
FB4C  90 27     BCC $FB75                       A:6E X:02 Y:F4 P:65 SP:F9 CYC:113  C I  -V 
FB4E  C9 6E     CMP #$6E                        A:6E X:02 Y:F4 P:65 SP:F9 CYC:119  C I  -V 
FB50  D0 23     BNE $FB75                       A:6E X:02 Y:F4 P:67 SP:F9 CYC:125  CZI  -V 
FB52  60        RTS                             A:6E X:02 Y:F4 P:67 SP:F9 CYC:131  CZI  -V 
F434  AD 47 06  LDA $0647 = 1B                  A:6E X:02 Y:F4 P:67 SP:FB CYC:149  CZI  -V 
F437  C9 1B     CMP #$1B                        A:1B X:02 Y:F4 P:65 SP:FB CYC:161  C I  -V 
F439  F0 02     BEQ $F43D                       A:1B X:02 Y:F4 P:67 SP:FB CYC:167  CZI  -V 
F43D  A0 F5     LDY #$F5                        A:1B X:02 Y:F4 P:67 SP:FB CYC:176  CZI  -V 
F43F  A2 FF     LDX #$FF                        A:1B X:02 Y:F5 P:E5 SP:FB CYC:182  C I  -VN
F441  A9 A5     LDA #$A5                        A:1B X:FF Y:F5 P:E5 SP:FB CYC:188  C I  -VN
F443  85 47     STA $47 = 1B                    A:A5 X:FF Y:F5 P:E5 SP:FB CYC:194  C I  -VN
F445  20 1D FB  JSR $FB1D                       A:A5 X:FF Y:F5 P:E5 SP:FB CYC:203  C I  -VN
FB1D  24 01     BIT $01 = FF                    A:A5 X:FF Y:F5 P:E5 SP:F9 CYC:221  C I  -VN
FB1F  18        CLC                             A:A5 X:FF Y:F5 P:E5 SP:F9 CYC:230  C I  -VN
FB20  A9 B3     LDA #$B3                        A:A5 X:FF Y:F5 P:E4 SP:F9 CYC:236    I  -VN
FB22  60        RTS                             A:B3 X:FF Y:F5 P:E4 SP:F9 CYC:242    I  -VN
F448  57 48    *SRE $48,X @ 47 = A5             A:B3 X:FF Y:F5 P:E4 SP:FB CYC:260    I  -VN
F44A  EA        NOP                             A:E1 X:FF Y:F5 P:E5 SP:FB CYC:278  C I  -VN
F44B  EA        NOP                             A:E1 X:FF Y:F5 P:E5 SP:FB CYC:284  C I  -VN
F44C  EA        NOP                             A:E1 X:FF Y:F5 P:E5 SP:FB CYC:290  C I  -VN
F44D  EA        NOP                             A:E1 X:FF Y:F5 P:E5 SP:FB CYC:296  C I  -VN
F44E  20 23 FB  JSR $FB23                       A:E1 X:FF Y:F5 P:E5 SP:FB CYC:302  C I  -VN
FB23  50 50     BVC $FB75                       A:E1 X:FF Y:F5 P:E5 SP:F9 CYC:320  C I  -VN
FB25  90 4E     BCC $FB75                       A:E1 X:FF Y:F5 P:E5 SP:F9 CYC:326  C I  -VN
FB27  10 4C     BPL $FB75                       A:E1 X:FF Y:F5 P:E5 SP:F9 CYC:332  C I  -VN
FB29  C9 E1     CMP #$E1                        A:E1 X:FF Y:F5 P:E5 SP:F9 CYC:338  C I  -VN
FB2B  D0 48     BNE $FB75                       A:E1 X:FF Y:F5 P:67 SP:F9 CYC:  3  CZI  -V 
FB2D  60        RTS                             A:E1 X:FF Y:F5 P:67 SP:F9 CYC:  9  CZI  -V 
F451  A5 47     LDA $47 = 52                    A:E1 X:FF Y:F5 P:67 SP:FB CYC: 27  CZI  -V 
F453  C9 52     CMP #$52                        A:52 X:FF Y:F5 P:65 SP:FB CYC: 36  C I  -V 
F455  F0 02     BEQ $F459                       A:52 X:FF Y:F5 P:67 SP:FB CYC: 42  CZI  -V 
F459  C8        INY                             A:52 X:FF Y:F5 P:67 SP:FB CYC: 51  CZI  -V 
F45A  A9 29     LDA #$29                        A:52 X:FF Y:F6 P:E5 SP:FB CYC: 57  C I  -VN
F45C  85 47     STA $47 = 52                    A:29 X:FF Y:F6 P:65 SP:FB CYC: 63  C I  -V 
F45E  20 2E FB  JSR $FB2E                       A:29 X:FF Y:F6 P:65 SP:FB CYC: 72  C I  -V 
FB2E  B8        CLV                             A:29 X:FF Y:F6 P:65 SP:F9 CYC: 90  C I  -V 
FB2F  18        CLC                             A:29 X:FF Y:F6 P:25 SP:F9 CYC: 96  C I  -  
FB30  A9 42     LDA #$42                        A:29 X:FF Y:F6 P:24 SP:F9 CYC:102    I  -  
FB32  60        RTS                             A:42 X:FF Y:F6 P:24 SP:F9 CYC:108    I  -  
F461  57 48    *SRE $48,X @ 47 = 29             A:42 X:FF Y:F6 P:24 SP:FB CYC:126    I  -  
F463  EA        NOP                             A:56 X:FF Y:F6 P:25 SP:FB CYC:144  C I  -  
F464  EA        NOP                             A:56 X:FF Y:F6 P:25 SP:FB CYC:150  C I  -  
F465  EA        NOP                             A:56 X:FF Y:F6 P:25 SP:FB CYC:156  C I  -  
F466  EA        NOP                             A:56 X:FF Y:F6 P:25 SP:FB CYC:162  C I  -  
F467  20 33 FB  JSR $FB33                       A:56 X:FF Y:F6 P:25 SP:FB CYC:168  C I  -  
FB33  70 40     BVS $FB75                       A:56 X:FF Y:F6 P:25 SP:F9 CYC:186  C I  -  
FB35  F0 3E     BEQ $FB75                       A:56 X:FF Y:F6 P:25 SP:F9 CYC:192  C I  -  
FB37  30 3C     BMI $FB75                       A:56 X:FF Y:F6 P:25 SP:F9 CYC:198  C I  -  
FB39  90 3A     BCC $FB75                       A:56 X:FF Y:F6 P:25 SP:F9 CYC:204  C I  -  
FB3B  C9 56     CMP #$56                        A:56 X:FF Y:F6 P:25 SP:F9 CYC:210  C I  -  
FB3D  D0 36     BNE $FB75                       A:56 X:FF Y:F6 P:27 SP:F9 CYC:216  CZI  -  
FB3F  60        RTS                             A:56 X:FF Y:F6 P:27 SP:F9 CYC:222  CZI  -  
F46A  A5 47     LDA $47 = 14                    A:56 X:FF Y:F6 P:27 SP:FB CYC:240  CZI  -  
F46C  C9 14     CMP #$14                        A:14 X:FF Y:F6 P:25 SP:FB CYC:249  C I  -  
F46E  F0 02     BEQ $F472                       A:14 X:FF Y:F6 P:27 SP:FB CYC:255  CZI  -  
F472  C8        INY                             A:14 X:FF Y:F6 P:27 SP:FB CYC:264  CZI  -  
F473  A9 37     LDA #$37                        A:14 X:FF Y:F7 P:A5 SP:FB CYC:270  C I  - N
F475  85 47     STA $47 = 14                    A:37 X:FF Y:F7 P:25 SP:FB CYC:276  C I  -  
F477  20 40 FB  JSR $FB40                       A:37 X:FF Y:F7 P:25 SP:FB CYC:285  C I  -  
FB40  24 01     BIT $01 = FF                    A:37 X:FF Y:F7 P:25 SP:F9 CYC:303  C I  -  
FB42  38        SEC                             A:37 X:FF Y:F7 P:E5 SP:F9 CYC:312  C I  -VN
FB43  A9 75     LDA #$75                        A:37 X:FF Y:F7 P:E5 SP:F9 CYC:318  C I  -VN
FB45  60        RTS                             A:75 X:FF Y:F7 P:65 SP:F9 CYC:324  C I  -V 
F47A  57 48    *SRE $48,X @ 47 = 37             A:75 X:FF Y:F7 P:65 SP:FB CYC:  1  C I  -V 
F47C  EA        NOP                             A:6E X:FF Y:F7 P:65 SP:FB CYC: 19  C I  -V 
F47D  EA        NOP                             A:6E X:FF Y:F7 P:65 SP:FB CYC: 25  C I  -V 
F47E  EA        NOP                             A:6E X:FF Y:F7 P:65 SP:FB CYC: 31  C I  -V 
F47F  EA        NOP                             A:6E X:FF Y:F7 P:65 SP:FB CYC: 37  C I  -V 
F480  20 46 FB  JSR $FB46                       A:6E X:FF Y:F7 P:65 SP:FB CYC: 43  C I  -V 
FB46  50 2D     BVC $FB75                       A:6E X:FF Y:F7 P:65 SP:F9 CYC: 61  C I  -V 
FB48  F0 2B     BEQ $FB75                       A:6E X:FF Y:F7 P:65 SP:F9 CYC: 67  C I  -V 
FB4A  30 29     BMI $FB75                       A:6E X:FF Y:F7 P:65 SP:F9 CYC: 73  C I  -V 
FB4C  90 27     BCC $FB75                       A:6E X:FF Y:F7 P:65 SP:F9 CYC: 79  C I  -V 
FB4E  C9 6E     CMP #$6E                        A:6E X:FF Y:F7 P:65 SP:F9 CYC: 85  C I  -V 
FB50  D0 23     BNE $FB75                       A:6E X:FF Y:F7 P:67 SP:F9 CYC: 91  CZI  -V 
FB52  60        RTS                             A:6E X:FF Y:F7 P:67 SP:F9 CYC: 97  CZI  -V 
F483  A5 47     LDA $47 = 1B                    A:6E X:FF Y:F7 P:67 SP:FB CYC:115  CZI  -V 
F485  C9 1B     CMP #$1B                        A:1B X:FF Y:F7 P:65 SP:FB CYC:124  C I  -V 
F487  F0 02     BEQ $F48B                       A:1B X:FF Y:F7 P:67 SP:FB CYC:130  CZI  -V 
F48B  A9 A5     LDA #$A5                        A:1B X:FF Y:F7 P:67 SP:FB CYC:139  CZI  -V 
F48D  8D 47 06  STA $0647 = 1B                  A:A5 X:FF Y:F7 P:E5 SP:FB CYC:145  C I  -VN
F490  A0 FF     LDY #$FF                        A:A5 X:FF Y:F7 P:E5 SP:FB CYC:157  C I  -VN
F492  20 1D FB  JSR $FB1D                       A:A5 X:FF Y:FF P:E5 SP:FB CYC:163  C I  -VN
FB1D  24 01     BIT $01 = FF                    A:A5 X:FF Y:FF P:E5 SP:F9 CYC:181  C I  -VN
FB1F  18        CLC                             A:A5 X:FF Y:FF P:E5 SP:F9 CYC:190  C I  -VN
FB20  A9 B3     LDA #$B3                        A:A5 X:FF Y:FF P:E4 SP:F9 CYC:196    I  -VN
FB22  60        RTS                             A:B3 X:FF Y:FF P:E4 SP:F9 CYC:202    I  -VN
F495  5B 48 05 *SRE $0548,Y @ 0647 = A5         A:B3 X:FF Y:FF P:E4 SP:FB CYC:220    I  -VN
F498  EA        NOP                             A:E1 X:FF Y:FF P:E5 SP:FB CYC:241  C I  -VN
F499  EA        NOP                             A:E1 X:FF Y:FF P:E5 SP:FB CYC:247  C I  -VN
F49A  08        PHP                             A:E1 X:FF Y:FF P:E5 SP:FB CYC:253  C I  -VN
F49B  48        PHA                             A:E1 X:FF Y:FF P:E5 SP:FA CYC:262  C I  -VN
F49C  A0 F8     LDY #$F8                        A:E1 X:FF Y:FF P:E5 SP:F9 CYC:271  C I  -VN
F49E  68        PLA                             A:E1 X:FF Y:F8 P:E5 SP:F9 CYC:277  C I  -VN
F49F  28        PLP                             A:E1 X:FF Y:F8 P:E5 SP:FA CYC:289  C I  -VN
F4A0  20 23 FB  JSR $FB23                       A:E1 X:FF Y:F8 P:E5 SP:FB CYC:301  C I  -VN
FB23  50 50     BVC $FB75                       A:E1 X:FF Y:F8 P:E5 SP:F9 CYC:319  C I  -VN
FB25  90 4E     BCC $FB75                       A:E1 X:FF Y:F8 P:E5 SP:F9 CYC:325  C I  -VN
FB27  10 4C     BPL $FB75                       A:E1 X:FF Y:F8 P:E5 SP:F9 CYC:331  C I  -VN
FB29  C9 E1     CMP #$E1                        A:E1 X:FF Y:F8 P:E5 SP:F9 CYC:337  C I  -VN
FB2B  D0 48     BNE $FB75                       A:E1 X:FF Y:F8 P:67 SP:F9 CYC:  2  CZI  -V 
FB2D  60        RTS                             A:E1 X:FF Y:F8 P:67 SP:F9 CYC:  8  CZI  -V 
F4A3  AD 47 06  LDA $0647 = 52                  A:E1 X:FF Y:F8 P:67 SP:FB CYC: 26  CZI  -V 
F4A6  C9 52     CMP #$52                        A:52 X:FF Y:F8 P:65 SP:FB CYC: 38  C I  -V 
F4A8  F0 02     BEQ $F4AC                       A:52 X:FF Y:F8 P:67 SP:FB CYC: 44  CZI  -V 
F4AC  A0 FF     LDY #$FF                        A:52 X:FF Y:F8 P:67 SP:FB CYC: 53  CZI  -V 
F4AE  A9 29     LDA #$29                        A:52 X:FF Y:FF P:E5 SP:FB CYC: 59  C I  -VN
F4B0  8D 47 06  STA $0647 = 52                  A:29 X:FF Y:FF P:65 SP:FB CYC: 65  C I  -V 
F4B3  20 2E FB  JSR $FB2E                       A:29 X:FF Y:FF P:65 SP:FB CYC: 77  C I  -V 
FB2E  B8        CLV                             A:29 X:FF Y:FF P:65 SP:F9 CYC: 95  C I  -V 
FB2F  18        CLC                             A:29 X:FF Y:FF P:25 SP:F9 CYC:101  C I  -  
FB30  A9 42     LDA #$42                        A:29 X:FF Y:FF P:24 SP:F9 CYC:107    I  -  
FB32  60        RTS                             A:42 X:FF Y:FF P:24 SP:F9 CYC:113    I  -  
F4B6  5B 48 05 *SRE $0548,Y @ 0647 = 29         A:42 X:FF Y:FF P:24 SP:FB CYC:131    I  -  
F4B9  EA        NOP                             A:56 X:FF Y:FF P:25 SP:FB CYC:152  C I  -  
F4BA  EA        NOP                             A:56 X:FF Y:FF P:25 SP:FB CYC:158  C I  -  
F4BB  08        PHP                             A:56 X:FF Y:FF P:25 SP:FB CYC:164  C I  -  
F4BC  48        PHA                             A:56 X:FF Y:FF P:25 SP:FA CYC:173  C I  -  
F4BD  A0 F9     LDY #$F9                        A:56 X:FF Y:FF P:25 SP:F9 CYC:182  C I  -  
F4BF  68        PLA                             A:56 X:FF Y:F9 P:A5 SP:F9 CYC:188  C I  - N
F4C0  28        PLP                             A:56 X:FF Y:F9 P:25 SP:FA CYC:200  C I  -  
F4C1  20 33 FB  JSR $FB33                       A:56 X:FF Y:F9 P:25 SP:FB CYC:212  C I  -  
FB33  70 40     BVS $FB75                       A:56 X:FF Y:F9 P:25 SP:F9 CYC:230  C I  -  
FB35  F0 3E     BEQ $FB75                       A:56 X:FF Y:F9 P:25 SP:F9 CYC:236  C I  -  
FB37  30 3C     BMI $FB75                       A:56 X:FF Y:F9 P:25 SP:F9 CYC:242  C I  -  
FB39  90 3A     BCC $FB75                       A:56 X:FF Y:F9 P:25 SP:F9 CYC:248  C I  -  
FB3B  C9 56     CMP #$56                        A:56 X:FF Y:F9 P:25 SP:F9 CYC:254  C I  -  
FB3D  D0 36     BNE $FB75                       A:56 X:FF Y:F9 P:27 SP:F9 CYC:260  CZI  -  
FB3F  60        RTS                             A:56 X:FF Y:F9 P:27 SP:F9 CYC:266  CZI  -  
F4C4  AD 47 06  LDA $0647 = 14                  A:56 X:FF Y:F9 P:27 SP:FB CYC:284  CZI  -  
F4C7  C9 14     CMP #$14                        A:14 X:FF Y:F9 P:25 SP:FB CYC:296  C I  -  
F4C9  F0 02     BEQ $F4CD                       A:14 X:FF Y:F9 P:27 SP:FB CYC:302  CZI  -  
F4CD  A0 FF     LDY #$FF                        A:14 X:FF Y:F9 P:27 SP:FB CYC:311  CZI  -  
F4CF  A9 37     LDA #$37                        A:14 X:FF Y:FF P:A5 SP:FB CYC:317  C I  - N
F4D1  8D 47 06  STA $0647 = 14                  A:37 X:FF Y:FF P:25 SP:FB CYC:323  C I  -  
F4D4  20 40 FB  JSR $FB40                       A:37 X:FF Y:FF P:25 SP:FB CYC:335  C I  -  
FB40  24 01     BIT $01 = FF                    A:37 X:FF Y:FF P:25 SP:F9 CYC: 12  C I  -  
FB42  38        SEC                             A:37 X:FF Y:FF P:E5 SP:F9 CYC: 21  C I  -VN
FB43  A9 75     LDA #$75                        A:37 X:FF Y:FF P:E5 SP:F9 CYC: 27  C I  -VN
FB45  60        RTS                             A:75 X:FF Y:FF P:65 SP:F9 CYC: 33  C I  -V 
F4D7  5B 48 05 *SRE $0548,Y @ 0647 = 37         A:75 X:FF Y:FF P:65 SP:FB CYC: 51  C I  -V 
F4DA  EA        NOP                             A:6E X:FF Y:FF P:65 SP:FB CYC: 72  C I  -V 
F4DB  EA        NOP                             A:6E X:FF Y:FF P:65 SP:FB CYC: 78  C I  -V 
F4DC  08        PHP                             A:6E X:FF Y:FF P:65 SP:FB CYC: 84  C I  -V 
F4DD  48        PHA                             A:6E X:FF Y:FF P:65 SP:FA CYC: 93  C I  -V 
F4DE  A0 FA     LDY #$FA                        A:6E X:FF Y:FF P:65 SP:F9 CYC:102  C I  -V 
F4E0  68        PLA                             A:6E X:FF Y:FA P:E5 SP:F9 CYC:108  C I  -VN
F4E1  28        PLP                             A:6E X:FF Y:FA P:65 SP:FA CYC:120  C I  -V 
F4E2  20 46 FB  JSR $FB46                       A:6E X:FF Y:FA P:65 SP:FB CYC:132  C I  -V 
FB46  50 2D     BVC $FB75                       A:6E X:FF Y:FA P:65 SP:F9 CYC:150  C I  -V 
FB48  F0 2B     BEQ $FB75                       A:6E X:FF Y:FA P:65 SP:F9 CYC:156  C I  -V 
FB4A  30 29     BMI $FB75                       A:6E X:FF Y:FA P:65 SP:F9 CYC:162  C I  -V 
FB4C  90 27     BCC $FB75                       A:6E X:FF Y:FA P:65 SP:F9 CYC:168  C I  -V 
FB4E  C9 6E     CMP #$6E                        A:6E X:FF Y:FA P:65 SP:F9 CYC:174  C I  -V 
FB50  D0 23     BNE $FB75                       A:6E X:FF Y:FA P:67 SP:F9 CYC:180  CZI  -V 
FB52  60        RTS                             A:6E X:FF Y:FA P:67 SP:F9 CYC:186  CZI  -V 
F4E5  AD 47 06  LDA $0647 = 1B                  A:6E X:FF Y:FA P:67 SP:FB CYC:204  CZI  -V 
F4E8  C9 1B     CMP #$1B                        A:1B X:FF Y:FA P:65 SP:FB CYC:216  C I  -V 
F4EA  F0 02     BEQ $F4EE                       A:1B X:FF Y:FA P:67 SP:FB CYC:222  CZI  -V 
F4EE  A0 FB     LDY #$FB                        A:1B X:FF Y:FA P:67 SP:FB CYC:231  CZI  -V 
F4F0  A2 FF     LDX #$FF                        A:1B X:FF Y:FB P:E5 SP:FB CYC:237  C I  -VN
F4F2  A9 A5     LDA #$A5                        A:1B X:FF Y:FB P:E5 SP:FB CYC:243  C I  -VN
F4F4  8D 47 06  STA $0647 = 1B                  A:A5 X:FF Y:FB P:E5 SP:FB CYC:249  C I  -VN
F4F7  20 1D FB  JSR $FB1D                       A:A5 X:FF Y:FB P:E5 SP:FB CYC:261  C I  -VN
FB1D  24 01     BIT $01 = FF                    A:A5 X:FF Y:FB P:E5 SP:F9 CYC:279  C I  -VN
FB1F  18        CLC                             A:A5 X:FF Y:FB P:E5 SP:F9 CYC:288  C I  -VN
FB20  A9 B3     LDA #$B3                        A:A5 X:FF Y:FB P:E4 SP:F9 CYC:294    I  -VN
FB22  60        RTS                             A:B3 X:FF Y:FB P:E4 SP:F9 CYC:300    I  -VN
F4FA  5F 48 05 *SRE $0548,X @ 0647 = A5         A:B3 X:FF Y:FB P:E4 SP:FB CYC:318    I  -VN
F4FD  EA        NOP                             A:E1 X:FF Y:FB P:E5 SP:FB CYC:339  C I  -VN
F4FE  EA        NOP                             A:E1 X:FF Y:FB P:E5 SP:FB CYC:  4  C I  -VN
F4FF  EA        NOP                             A:E1 X:FF Y:FB P:E5 SP:FB CYC: 10  C I  -VN
F500  EA        NOP                             A:E1 X:FF Y:FB P:E5 SP:FB CYC: 16  C I  -VN
F501  20 23 FB  JSR $FB23                       A:E1 X:FF Y:FB P:E5 SP:FB CYC: 22  C I  -VN
FB23  50 50     BVC $FB75                       A:E1 X:FF Y:FB P:E5 SP:F9 CYC: 40  C I  -VN
FB25  90 4E     BCC $FB75                       A:E1 X:FF Y:FB P:E5 SP:F9 CYC: 46  C I  -VN
FB27  10 4C     BPL $FB75                       A:E1 X:FF Y:FB P:E5 SP:F9 CYC: 52  C I  -VN
FB29  C9 E1     CMP #$E1                        A:E1 X:FF Y:FB P:E5 SP:F9 CYC: 58  C I  -VN
FB2B  D0 48     BNE $FB75                       A:E1 X:FF Y:FB P:67 SP:F9 CYC: 64  CZI  -V 
FB2D  60        RTS                             A:E1 X:FF Y:FB P:67 SP:F9 CYC: 70  CZI  -V 
F504  AD 47 06  LDA $0647 = 52                  A:E1 X:FF Y:FB P:67 SP:FB CYC: 88  CZI  -V 
F507  C9 52     CMP #$52                        A:52 X:FF Y:FB P:65 SP:FB CYC:100  C I  -V 
F509  F0 02     BEQ $F50D                       A:52 X:FF Y:FB P:67 SP:FB CYC:106  CZI  -V 
F50D  C8        INY                             A:52 X:FF Y:FB P:67 SP:FB CYC:115  CZI  -V 
F50E  A9 29     LDA #$29                        A:52 X:FF Y:FC P:E5 SP:FB CYC:121  C I  -VN
F510  8D 47 06  STA $0647 = 52                  A:29 X:FF Y:FC P:65 SP:FB CYC:127  C I  -V 
F513  20 2E FB  JSR $FB2E                       A:29 X:FF Y:FC P:65 SP:FB CYC:139  C I  -V 
FB2E  B8        CLV                             A:29 X:FF Y:FC P:65 SP:F9 CYC:157  C I  -V 
FB2F  18        CLC                             A:29 X:FF Y:FC P:25 SP:F9 CYC:163  C I  -  
FB30  A9 42     LDA #$42                        A:29 X:FF Y:FC P:24 SP:F9 CYC:169    I  -  
FB32  60        RTS                             A:42 X:FF Y:FC P:24 SP:F9 CYC:175    I  -  
F516  5F 48 05 *SRE $0548,X @ 0647 = 29         A:42 X:FF Y:FC P:24 SP:FB CYC:193    I  -  
F519  EA        NOP                             A:56 X:FF Y:FC P:25 SP:FB CYC:214  C I  -  
F51A  EA        NOP                             A:56 X:FF Y:FC P:25 SP:FB CYC:220  C I  -  
F51B  EA        NOP                             A:56 X:FF Y:FC P:25 SP:FB CYC:226  C I  -  
F51C  EA        NOP                             A:56 X:FF Y:FC P:25 SP:FB CYC:232  C I  -  
F51D  20 33 FB  JSR $FB33                       A:56 X:FF Y:FC P:25 SP:FB CYC:238  C I  -  
FB33  70 40     BVS $FB75                       A:56 X:FF Y:FC P:25 SP:F9 CYC:256  C I  -  
FB35  F0 3E     BEQ $FB75                       A:56 X:FF Y:FC P:25 SP:F9 CYC:262  C I  -  
FB37  30 3C     BMI $FB75                       A:56 X:FF Y:FC P:25 SP:F9 CYC:268  C I  -  
FB39  90 3A     BCC $FB75                       A:56 X:FF Y:FC P:25 SP:F9 CYC:274  C I  -  
FB3B  C9 56     CMP #$56                        A:56 X:FF Y:FC P:25 SP:F9 CYC:280  C I  -  
FB3D  D0 36     BNE $FB75                       A:56 X:FF Y:FC P:27 SP:F9 CYC:286  CZI  -  
FB3F  60        RTS                             A:56 X:FF Y:FC P:27 SP:F9 CYC:292  CZI  -  
F520  AD 47 06  LDA $0647 = 14                  A:56 X:FF Y:FC P:27 SP:FB CYC:310  CZI  -  
F523  C9 14     CMP #$14                        A:14 X:FF Y:FC P:25 SP:FB CYC:322  C I  -  
F525  F0 02     BEQ $F529                       A:14 X:FF Y:FC P:27 SP:FB CYC:328  CZI  -  
F529  C8        INY                             A:14 X:FF Y:FC P:27 SP:FB CYC:337  CZI  -  
F52A  A9 37     LDA #$37                        A:14 X:FF Y:FD P:A5 SP:FB CYC:  2  C I  - N
F52C  8D 47 06  STA $0647 = 14                  A:37 X:FF Y:FD P:25 SP:FB CYC:  8  C I  -  
F52F  20 40 FB  JSR $FB40                       A:37 X:FF Y:FD P:25 SP:FB CYC: 20  C I  -  
FB40  24 01     BIT $01 = FF                    A:37 X:FF Y:FD P:25 SP:F9 CYC: 38  C I  -  
FB42  38        SEC                             A:37 X:FF Y:FD P:E5 SP:F9 CYC: 47  C I  -VN
FB43  A9 75     LDA #$75                        A:37 X:FF Y:FD P:E5 SP:F9 CYC: 53  C I  -VN
FB45  60        RTS                             A:75 X:FF Y:FD P:65 SP:F9 CYC: 59  C I  -V 
F532  5F 48 05 *SRE $0548,X @ 0647 = 37         A:75 X:FF Y:FD P:65 SP:FB CYC: 77  C I  -V 
F535  EA        NOP                             A:6E X:FF Y:FD P:65 SP:FB CYC: 98  C I  -V 
F536  EA        NOP                             A:6E X:FF Y:FD P:65 SP:FB CYC:104  C I  -V 
F537  EA        NOP                             A:6E X:FF Y:FD P:65 SP:FB CYC:110  C I  -V 
F538  EA        NOP                             A:6E X:FF Y:FD P:65 SP:FB CYC:116  C I  -V 
F539  20 46 FB  JSR $FB46                       A:6E X:FF Y:FD P:65 SP:FB CYC:122  C I  -V 
FB46  50 2D     BVC $FB75                       A:6E X:FF Y:FD P:65 SP:F9 CYC:140  C I  -V 
FB48  F0 2B     BEQ $FB75                       A:6E X:FF Y:FD P:65 SP:F9 CYC:146  C I  -V 
FB4A  30 29     BMI $FB75                       A:6E X:FF Y:FD P:65 SP:F9 CYC:152  C I  -V 
FB4C  90 27     BCC $FB75                       A:6E X:FF Y:FD P:65 SP:F9 CYC:158  C I  -V 
FB4E  C9 6E     CMP #$6E                        A:6E X:FF Y:FD P:65 SP:F9 CYC:164  C I  -V 
FB50  D0 23     BNE $FB75                       A:6E X:FF Y:FD P:67 SP:F9 CYC:170  CZI  -V 
FB52  60        RTS                             A:6E X:FF Y:FD P:67 SP:F9 CYC:176  CZI  -V 
F53C  AD 47 06  LDA $0647 = 1B                  A:6E X:FF Y:FD P:67 SP:FB CYC:194  CZI  -V 
F53F  C9 1B     CMP #$1B                        A:1B X:FF Y:FD P:65 SP:FB CYC:206  C I  -V 
F541  F0 02     BEQ $F545                       A:1B X:FF Y:FD P:67 SP:FB CYC:212  CZI  -V 
F545  60        RTS                             A:1B X:FF Y:FD P:67 SP:FB CYC:221  CZI  -V 
C64A  A5 00     LDA $00 = 00                    A:1B X:FF Y:FD P:67 SP:FD CYC:239  CZI  -V 
C64C  85 11     STA $11 = 00                    A:00 X:FF Y:FD P:67 SP:FD CYC:248  CZI  -V 
C64E  A9 00     LDA #$00                        A:00 X:FF Y:FD P:67 SP:FD CYC:257  CZI  -V 
C650  85 00     STA $00 = 00                    A:00 X:FF Y:FD P:67 SP:FD CYC:263  CZI  -V 
C652  20 46 F5  JSR $F546                       A:00 X:FF Y:FD P:67 SP:FD CYC:272  CZI  -V 
F546  A9 FF     LDA #$FF                        A:00 X:FF Y:FD P:67 SP:FB CYC:290  CZI  -V 
F548  85 01     STA $01 = FF                    A:FF X:FF Y:FD P:E5 SP:FB CYC:296  C I  -VN
F54A  A0 01     LDY #$01                        A:FF X:FF Y:FD P:E5 SP:FB CYC:305  C I  -VN
F54C  A2 02     LDX #$02                        A:FF X:FF Y:01 P:65 SP:FB CYC:311  C I  -V 
F54E  A9 47     LDA #$47                        A:FF X:02 Y:01 P:65 SP:FB CYC:317  C I  -V 
F550  85 47     STA $47 = 1B                    A:47 X:02 Y:01 P:65 SP:FB CYC:323  C I  -V 
F552  A9 06     LDA #$06                        A:47 X:02 Y:01 P:65 SP:FB CYC:332  C I  -V 
F554  85 48     STA $48 = 06                    A:06 X:02 Y:01 P:65 SP:FB CYC:338  C I  -V 
F556  A9 A5     LDA #$A5                        A:06 X:02 Y:01 P:65 SP:FB CYC:  6  C I  -V 
F558  8D 47 06  STA $0647 = 1B                  A:A5 X:02 Y:01 P:E5 SP:FB CYC: 12  C I  -VN
F55B  20 E9 FA  JSR $FAE9                       A:A5 X:02 Y:01 P:E5 SP:FB CYC: 24  C I  -VN
FAE9  24 01     BIT $01 = FF                    A:A5 X:02 Y:01 P:E5 SP:F9 CYC: 42  C I  -VN
FAEB  18        CLC                             A:A5 X:02 Y:01 P:E5 SP:F9 CYC: 51  C I  -VN
FAEC  A9 B2     LDA #$B2                        A:A5 X:02 Y:01 P:E4 SP:F9 CYC: 57    I  -VN
FAEE  60        RTS                             A:B2 X:02 Y:01 P:E4 SP:F9 CYC: 63    I  -VN
F55E  63 45    *RRA ($45,X) @ 47 = 0647 = A5    A:B2 X:02 Y:01 P:E4 SP:FB CYC: 81    I  -VN
F560  EA        NOP                             A:05 X:02 Y:01 P:25 SP:FB CYC:105  C I  -  
F561  EA        NOP                             A:05 X:02 Y:01 P:25 SP:FB CYC:111  C I  -  
F562  EA        NOP                             A:05 X:02 Y:01 P:25 SP:FB CYC:117  C I  -  
F563  EA        NOP                             A:05 X:02 Y:01 P:25 SP:FB CYC:123  C I  -  
F564  20 EF FA  JSR $FAEF                       A:05 X:02 Y:01 P:25 SP:FB CYC:129  C I  -  
FAEF  70 2A     BVS $FB1B                       A:05 X:02 Y:01 P:25 SP:F9 CYC:147  C I  -  
FAF1  90 28     BCC $FB1B                       A:05 X:02 Y:01 P:25 SP:F9 CYC:153  C I  -  
FAF3  30 26     BMI $FB1B                       A:05 X:02 Y:01 P:25 SP:F9 CYC:159  C I  -  
FAF5  C9 05     CMP #$05                        A:05 X:02 Y:01 P:25 SP:F9 CYC:165  C I  -  
FAF7  D0 22     BNE $FB1B                       A:05 X:02 Y:01 P:27 SP:F9 CYC:171  CZI  -  
FAF9  60        RTS                             A:05 X:02 Y:01 P:27 SP:F9 CYC:177  CZI  -  
F567  AD 47 06  LDA $0647 = 52                  A:05 X:02 Y:01 P:27 SP:FB CYC:195  CZI  -  
F56A  C9 52     CMP #$52                        A:52 X:02 Y:01 P:25 SP:FB CYC:207  C I  -  
F56C  F0 02     BEQ $F570                       A:52 X:02 Y:01 P:27 SP:FB CYC:213  CZI  -  
F570  C8        INY                             A:52 X:02 Y:01 P:27 SP:FB CYC:222  CZI  -  
F571  A9 29     LDA #$29                        A:52 X:02 Y:02 P:25 SP:FB CYC:228  C I  -  
F573  8D 47 06  STA $0647 = 52                  A:29 X:02 Y:02 P:25 SP:FB CYC:234  C I  -  
F576  20 FA FA  JSR $FAFA                       A:29 X:02 Y:02 P:25 SP:FB CYC:246  C I  -  
FAFA  B8        CLV                             A:29 X:02 Y:02 P:25 SP:F9 CYC:264  C I  -  
FAFB  18        CLC                             A:29 X:02 Y:02 P:25 SP:F9 CYC:270  C I  -  
FAFC  A9 42     LDA #$42                        A:29 X:02 Y:02 P:24 SP:F9 CYC:276    I  -  
FAFE  60        RTS                             A:42 X:02 Y:02 P:24 SP:F9 CYC:282    I  -  
F579  63 45    *RRA ($45,X) @ 47 = 0647 = 29    A:42 X:02 Y:02 P:24 SP:FB CYC:300    I  -  
F57B  EA        NOP                             A:57 X:02 Y:02 P:24 SP:FB CYC:324    I  -  
F57C  EA        NOP                             A:57 X:02 Y:02 P:24 SP:FB CYC:330    I  -  
F57D  EA        NOP                             A:57 X:02 Y:02 P:24 SP:FB CYC:336    I  -  
F57E  EA        NOP                             A:57 X:02 Y:02 P:24 SP:FB CYC:  1    I  -  
F57F  20 FF FA  JSR $FAFF                       A:57 X:02 Y:02 P:24 SP:FB CYC:  7    I  -  
FAFF  70 1A     BVS $FB1B                       A:57 X:02 Y:02 P:24 SP:F9 CYC: 25    I  -  
FB01  30 18     BMI $FB1B                       A:57 X:02 Y:02 P:24 SP:F9 CYC: 31    I  -  
FB03  B0 16     BCS $FB1B                       A:57 X:02 Y:02 P:24 SP:F9 CYC: 37    I  -  
FB05  C9 57     CMP #$57                        A:57 X:02 Y:02 P:24 SP:F9 CYC: 43    I  -  
FB07  D0 12     BNE $FB1B                       A:57 X:02 Y:02 P:27 SP:F9 CYC: 49  CZI  -  
FB09  60        RTS                             A:57 X:02 Y:02 P:27 SP:F9 CYC: 55  CZI  -  
F582  AD 47 06  LDA $0647 = 14                  A:57 X:02 Y:02 P:27 SP:FB CYC: 73  CZI  -  
F585  C9 14     CMP #$14                        A:14 X:02 Y:02 P:25 SP:FB CYC: 85  C I  -  
F587  F0 02     BEQ $F58B                       A:14 X:02 Y:02 P:27 SP:FB CYC: 91  CZI  -  
F58B  C8        INY                             A:14 X:02 Y:02 P:27 SP:FB CYC:100  CZI  -  
F58C  A9 37     LDA #$37                        A:14 X:02 Y:03 P:25 SP:FB CYC:106  C I  -  
F58E  8D 47 06  STA $0647 = 14                  A:37 X:02 Y:03 P:25 SP:FB CYC:112  C I  -  
F591  20 0A FB  JSR $FB0A                       A:37 X:02 Y:03 P:25 SP:FB CYC:124  C I  -  
FB0A  24 01     BIT $01 = FF                    A:37 X:02 Y:03 P:25 SP:F9 CYC:142  C I  -  
FB0C  38        SEC                             A:37 X:02 Y:03 P:E5 SP:F9 CYC:151  C I  -VN
FB0D  A9 75     LDA #$75                        A:37 X:02 Y:03 P:E5 SP:F9 CYC:157  C I  -VN
FB0F  60        RTS                             A:75 X:02 Y:03 P:65 SP:F9 CYC:163  C I  -V 
F594  63 45    *RRA ($45,X) @ 47 = 0647 = 37    A:75 X:02 Y:03 P:65 SP:FB CYC:181  C I  -V 
F596  EA        NOP                             A:11 X:02 Y:03 P:25 SP:FB CYC:205  C I  -  
F597  EA        NOP                             A:11 X:02 Y:03 P:25 SP:FB CYC:211  C I  -  
F598  EA        NOP                             A:11 X:02 Y:03 P:25 SP:FB CYC:217  C I  -  
F599  EA        NOP                             A:11 X:02 Y:03 P:25 SP:FB CYC:223  C I  -  
F59A  20 10 FB  JSR $FB10                       A:11 X:02 Y:03 P:25 SP:FB CYC:229  C I  -  
FB10  70 09     BVS $FB1B                       A:11 X:02 Y:03 P:25 SP:F9 CYC:247  C I  -  
FB12  30 07     BMI $FB1B                       A:11 X:02 Y:03 P:25 SP:F9 CYC:253  C I  -  
FB14  90 05     BCC $FB1B                       A:11 X:02 Y:03 P:25 SP:F9 CYC:259  C I  -  
FB16  C9 11     CMP #$11                        A:11 X:02 Y:03 P:25 SP:F9 CYC:265  C I  -  
FB18  D0 01     BNE $FB1B                       A:11 X:02 Y:03 P:27 SP:F9 CYC:271  CZI  -  
FB1A  60        RTS                             A:11 X:02 Y:03 P:27 SP:F9 CYC:277  CZI  -  
F59D  AD 47 06  LDA $0647 = 9B                  A:11 X:02 Y:03 P:27 SP:FB CYC:295  CZI  -  
F5A0  C9 9B     CMP #$9B                        A:9B X:02 Y:03 P:A5 SP:FB CYC:307  C I  - N
F5A2  F0 02     BEQ $F5A6                       A:9B X:02 Y:03 P:27 SP:FB CYC:313  CZI  -  
F5A6  C8        INY                             A:9B X:02 Y:03 P:27 SP:FB CYC:322  CZI  -  
F5A7  A9 A5     LDA #$A5                        A:9B X:02 Y:04 P:25 SP:FB CYC:328  C I  -  
F5A9  85 47     STA $47 = 47                    A:A5 X:02 Y:04 P:A5 SP:FB CYC:334  C I  - N
F5AB  20 E9 FA  JSR $FAE9                       A:A5 X:02 Y:04 P:A5 SP:FB CYC:  2  C I  - N
FAE9  24 01     BIT $01 = FF                    A:A5 X:02 Y:04 P:A5 SP:F9 CYC: 20  C I  - N
FAEB  18        CLC                             A:A5 X:02 Y:04 P:E5 SP:F9 CYC: 29  C I  -VN
FAEC  A9 B2     LDA #$B2                        A:A5 X:02 Y:04 P:E4 SP:F9 CYC: 35    I  -VN
FAEE  60        RTS                             A:B2 X:02 Y:04 P:E4 SP:F9 CYC: 41    I  -VN
F5AE  67 47    *RRA $47 = A5                    A:B2 X:02 Y:04 P:E4 SP:FB CYC: 59    I  -VN
F5B0  EA        NOP                             A:05 X:02 Y:04 P:25 SP:FB CYC: 74  C I  -  
F5B1  EA        NOP                             A:05 X:02 Y:04 P:25 SP:FB CYC: 80  C I  -  
F5B2  EA        NOP                             A:05 X:02 Y:04 P:25 SP:FB CYC: 86  C I  -  
F5B3  EA        NOP                             A:05 X:02 Y:04 P:25 SP:FB CYC: 92  C I  -  
F5B4  20 EF FA  JSR $FAEF                       A:05 X:02 Y:04 P:25 SP:FB CYC: 98  C I  -  
FAEF  70 2A     BVS $FB1B                       A:05 X:02 Y:04 P:25 SP:F9 CYC:116  C I  -  
FAF1  90 28     BCC $FB1B                       A:05 X:02 Y:04 P:25 SP:F9 CYC:122  C I  -  
FAF3  30 26     BMI $FB1B                       A:05 X:02 Y:04 P:25 SP:F9 CYC:128  C I  -  
FAF5  C9 05     CMP #$05                        A:05 X:02 Y:04 P:25 SP:F9 CYC:134  C I  -  
FAF7  D0 22     BNE $FB1B                       A:05 X:02 Y:04 P:27 SP:F9 CYC:140  CZI  -  
FAF9  60        RTS                             A:05 X:02 Y:04 P:27 SP:F9 CYC:146  CZI  -  
F5B7  A5 47     LDA $47 = 52                    A:05 X:02 Y:04 P:27 SP:FB CYC:164  CZI  -  
F5B9  C9 52     CMP #$52                        A:52 X:02 Y:04 P:25 SP:FB CYC:173  C I  -  
F5BB  F0 02     BEQ $F5BF                       A:52 X:02 Y:04 P:27 SP:FB CYC:179  CZI  -  
F5BF  C8        INY                             A:52 X:02 Y:04 P:27 SP:FB CYC:188  CZI  -  
F5C0  A9 29     LDA #$29                        A:52 X:02 Y:05 P:25 SP:FB CYC:194  C I  -  
F5C2  85 47     STA $47 = 52                    A:29 X:02 Y:05 P:25 SP:FB CYC:200  C I  -  
F5C4  20 FA FA  JSR $FAFA                       A:29 X:02 Y:05 P:25 SP:FB CYC:209  C I  -  
FAFA  B8        CLV                             A:29 X:02 Y:05 P:25 SP:F9 CYC:227  C I  -  
FAFB  18        CLC                             A:29 X:02 Y:05 P:25 SP:F9 CYC:233  C I  -  
FAFC  A9 42     LDA #$42                        A:29 X:02 Y:05 P:24 SP:F9 CYC:239    I  -  
FAFE  60        RTS                             A:42 X:02 Y:05 P:24 SP:F9 CYC:245    I  -  
F5C7  67 47    *RRA $47 = 29                    A:42 X:02 Y:05 P:24 SP:FB CYC:263    I  -  
F5C9  EA        NOP                             A:57 X:02 Y:05 P:24 SP:FB CYC:278    I  -  
F5CA  EA        NOP                             A:57 X:02 Y:05 P:24 SP:FB CYC:284    I  -  
F5CB  EA        NOP                             A:57 X:02 Y:05 P:24 SP:FB CYC:290    I  -  
F5CC  EA        NOP                             A:57 X:02 Y:05 P:24 SP:FB CYC:296    I  -  
F5CD  20 FF FA  JSR $FAFF                       A:57 X:02 Y:05 P:24 SP:FB CYC:302    I  -  
FAFF  70 1A     BVS $FB1B                       A:57 X:02 Y:05 P:24 SP:F9 CYC:320    I  -  
FB01  30 18     BMI $FB1B                       A:57 X:02 Y:05 P:24 SP:F9 CYC:326    I  -  
FB03  B0 16     BCS $FB1B                       A:57 X:02 Y:05 P:24 SP:F9 CYC:332    I  -  
FB05  C9 57     CMP #$57                        A:57 X:02 Y:05 P:24 SP:F9 CYC:338    I  -  
FB07  D0 12     BNE $FB1B                       A:57 X:02 Y:05 P:27 SP:F9 CYC:  3  CZI  -  
FB09  60        RTS                             A:57 X:02 Y:05 P:27 SP:F9 CYC:  9  CZI  -  
F5D0  A5 47     LDA $47 = 14                    A:57 X:02 Y:05 P:27 SP:FB CYC: 27  CZI  -  
F5D2  C9 14     CMP #$14                        A:14 X:02 Y:05 P:25 SP:FB CYC: 36  C I  -  
F5D4  F0 02     BEQ $F5D8                       A:14 X:02 Y:05 P:27 SP:FB CYC: 42  CZI  -  
F5D8  C8        INY                             A:14 X:02 Y:05 P:27 SP:FB CYC: 51  CZI  -  
F5D9  A9 37     LDA #$37                        A:14 X:02 Y:06 P:25 SP:FB CYC: 57  C I  -  
F5DB  85 47     STA $47 = 14                    A:37 X:02 Y:06 P:25 SP:FB CYC: 63  C I  -  
F5DD  20 0A FB  JSR $FB0A                       A:37 X:02 Y:06 P:25 SP:FB CYC: 72  C I  -  
FB0A  24 01     BIT $01 = FF                    A:37 X:02 Y:06 P:25 SP:F9 CYC: 90  C I  -  
FB0C  38        SEC                             A:37 X:02 Y:06 P:E5 SP:F9 CYC: 99  C I  -VN
FB0D  A9 75     LDA #$75                        A:37 X:02 Y:06 P:E5 SP:F9 CYC:105  C I  -VN
FB0F  60        RTS                             A:75 X:02 Y:06 P:65 SP:F9 CYC:111  C I  -V 
F5E0  67 47    *RRA $47 = 37                    A:75 X:02 Y:06 P:65 SP:FB CYC:129  C I  -V 
F5E2  EA        NOP                             A:11 X:02 Y:06 P:25 SP:FB CYC:144  C I  -  
F5E3  EA        NOP                             A:11 X:02 Y:06 P:25 SP:FB CYC:150  C I  -  
F5E4  EA        NOP                             A:11 X:02 Y:06 P:25 SP:FB CYC:156  C I  -  
F5E5  EA        NOP                             A:11 X:02 Y:06 P:25 SP:FB CYC:162  C I  -  
F5E6  20 10 FB  JSR $FB10                       A:11 X:02 Y:06 P:25 SP:FB CYC:168  C I  -  
FB10  70 09     BVS $FB1B                       A:11 X:02 Y:06 P:25 SP:F9 CYC:186  C I  -  
FB12  30 07     BMI $FB1B                       A:11 X:02 Y:06 P:25 SP:F9 CYC:192  C I  -  
FB14  90 05     BCC $FB1B                       A:11 X:02 Y:06 P:25 SP:F9 CYC:198  C I  -  
FB16  C9 11     CMP #$11                        A:11 X:02 Y:06 P:25 SP:F9 CYC:204  C I  -  
FB18  D0 01     BNE $FB1B                       A:11 X:02 Y:06 P:27 SP:F9 CYC:210  CZI  -  
FB1A  60        RTS                             A:11 X:02 Y:06 P:27 SP:F9 CYC:216  CZI  -  
F5E9  A5 47     LDA $47 = 9B                    A:11 X:02 Y:06 P:27 SP:FB CYC:234  CZI  -  
F5EB  C9 9B     CMP #$9B                        A:9B X:02 Y:06 P:A5 SP:FB CYC:243  C I  - N
F5ED  F0 02     BEQ $F5F1                       A:9B X:02 Y:06 P:27 SP:FB CYC:249  CZI  -  
F5F1  C8        INY                             A:9B X:02 Y:06 P:27 SP:FB CYC:258  CZI  -  
F5F2  A9 A5     LDA #$A5                        A:9B X:02 Y:07 P:25 SP:FB CYC:264  C I  -  
F5F4  8D 47 06  STA $0647 = 9B                  A:A5 X:02 Y:07 P:A5 SP:FB CYC:270  C I  - N
F5F7  20 E9 FA  JSR $FAE9                       A:A5 X:02 Y:07 P:A5 SP:FB CYC:282  C I  - N
FAE9  24 01     BIT $01 = FF                    A:A5 X:02 Y:07 P:A5 SP:F9 CYC:300  C I  - N
FAEB  18        CLC                             A:A5 X:02 Y:07 P:E5 SP:F9 CYC:309  C I  -VN
FAEC  A9 B2     LDA #$B2                        A:A5 X:02 Y:07 P:E4 SP:F9 CYC:315    I  -VN
FAEE  60        RTS                             A:B2 X:02 Y:07 P:E4 SP:F9 CYC:321    I  -VN
F5FA  6F 47 06 *RRA $0647 = A5                  A:B2 X:02 Y:07 P:E4 SP:FB CYC:339    I  -VN
F5FD  EA        NOP                             A:05 X:02 Y:07 P:25 SP:FB CYC: 16  C I  -  
F5FE  EA        NOP                             A:05 X:02 Y:07 P:25 SP:FB CYC: 22  C I  -  
F5FF  EA        NOP                             A:05 X:02 Y:07 P:25 SP:FB CYC: 28  C I  -  
F600  EA        NOP                             A:05 X:02 Y:07 P:25 SP:FB CYC: 34  C I  -  
F601  20 EF FA  JSR $FAEF                       A:05 X:02 Y:07 P:25 SP:FB CYC: 40  C I  -  
FAEF  70 2A     BVS $FB1B                       A:05 X:02 Y:07 P:25 SP:F9 CYC: 58  C I  -  
FAF1  90 28     BCC $FB1B                       A:05 X:02 Y:07 P:25 SP:F9 CYC: 64  C I  -  
FAF3  30 26     BMI $FB1B                       A:05 X:02 Y:07 P:25 SP:F9 CYC: 70  C I  -  
FAF5  C9 05     CMP #$05                        A:05 X:02 Y:07 P:25 SP:F9 CYC: 76  C I  -  
FAF7  D0 22     BNE $FB1B                       A:05 X:02 Y:07 P:27 SP:F9 CYC: 82  CZI  -  
FAF9  60        RTS                             A:05 X:02 Y:07 P:27 SP:F9 CYC: 88  CZI  -  
F604  AD 47 06  LDA $0647 = 52                  A:05 X:02 Y:07 P:27 SP:FB CYC:106  CZI  -  
F607  C9 52     CMP #$52                        A:52 X:02 Y:07 P:25 SP:FB CYC:118  C I  -  
F609  F0 02     BEQ $F60D                       A:52 X:02 Y:07 P:27 SP:FB CYC:124  CZI  -  
F60D  C8        INY                             A:52 X:02 Y:07 P:27 SP:FB CYC:133  CZI  -  
F60E  A9 29     LDA #$29                        A:52 X:02 Y:08 P:25 SP:FB CYC:139  C I  -  
F610  8D 47 06  STA $0647 = 52                  A:29 X:02 Y:08 P:25 SP:FB CYC:145  C I  -  
F613  20 FA FA  JSR $FAFA                       A:29 X:02 Y:08 P:25 SP:FB CYC:157  C I  -  
FAFA  B8        CLV                             A:29 X:02 Y:08 P:25 SP:F9 CYC:175  C I  -  
FAFB  18        CLC                             A:29 X:02 Y:08 P:25 SP:F9 CYC:181  C I  -  
FAFC  A9 42     LDA #$42                        A:29 X:02 Y:08 P:24 SP:F9 CYC:187    I  -  
FAFE  60        RTS                             A:42 X:02 Y:08 P:24 SP:F9 CYC:193    I  -  
F616  6F 47 06 *RRA $0647 = 29                  A:42 X:02 Y:08 P:24 SP:FB CYC:211    I  -  
F619  EA        NOP                             A:57 X:02 Y:08 P:24 SP:FB CYC:229    I  -  
F61A  EA        NOP                             A:57 X:02 Y:08 P:24 SP:FB CYC:235    I  -  
F61B  EA        NOP                             A:57 X:02 Y:08 P:24 SP:FB CYC:241    I  -  
F61C  EA        NOP                             A:57 X:02 Y:08 P:24 SP:FB CYC:247    I  -  
F61D  20 FF FA  JSR $FAFF                       A:57 X:02 Y:08 P:24 SP:FB CYC:253    I  -  
FAFF  70 1A     BVS $FB1B                       A:57 X:02 Y:08 P:24 SP:F9 CYC:271    I  -  
FB01  30 18     BMI $FB1B                       A:57 X:02 Y:08 P:24 SP:F9 CYC:277    I  -  
FB03  B0 16     BCS $FB1B                       A:57 X:02 Y:08 P:24 SP:F9 CYC:283    I  -  
FB05  C9 57     CMP #$57                        A:57 X:02 Y:08 P:24 SP:F9 CYC:289    I  -  
FB07  D0 12     BNE $FB1B                       A:57 X:02 Y:08 P:27 SP:F9 CYC:295  CZI  -  
FB09  60        RTS                             A:57 X:02 Y:08 P:27 SP:F9 CYC:301  CZI  -  
F620  AD 47 06  LDA $0647 = 14                  A:57 X:02 Y:08 P:27 SP:FB CYC:319  CZI  -  
F623  C9 14     CMP #$14                        A:14 X:02 Y:08 P:25 SP:FB CYC:331  C I  -  
F625  F0 02     BEQ $F629                       A:14 X:02 Y:08 P:27 SP:FB CYC:337  CZI  -  
F629  C8        INY                             A:14 X:02 Y:08 P:27 SP:FB CYC:  5  CZI  -  
F62A  A9 37     LDA #$37                        A:14 X:02 Y:09 P:25 SP:FB CYC: 11  C I  -  
F62C  8D 47 06  STA $0647 = 14                  A:37 X:02 Y:09 P:25 SP:FB CYC: 17  C I  -  
F62F  20 0A FB  JSR $FB0A                       A:37 X:02 Y:09 P:25 SP:FB CYC: 29  C I  -  
FB0A  24 01     BIT $01 = FF                    A:37 X:02 Y:09 P:25 SP:F9 CYC: 47  C I  -  
FB0C  38        SEC                             A:37 X:02 Y:09 P:E5 SP:F9 CYC: 56  C I  -VN
FB0D  A9 75     LDA #$75                        A:37 X:02 Y:09 P:E5 SP:F9 CYC: 62  C I  -VN
FB0F  60        RTS                             A:75 X:02 Y:09 P:65 SP:F9 CYC: 68  C I  -V 
F632  6F 47 06 *RRA $0647 = 37                  A:75 X:02 Y:09 P:65 SP:FB CYC: 86  C I  -V 
F635  EA        NOP                             A:11 X:02 Y:09 P:25 SP:FB CYC:104  C I  -  
F636  EA        NOP                             A:11 X:02 Y:09 P:25 SP:FB CYC:110  C I  -  
F637  EA        NOP                             A:11 X:02 Y:09 P:25 SP:FB CYC:116  C I  -  
F638  EA        NOP                             A:11 X:02 Y:09 P:25 SP:FB CYC:122  C I  -  
F639  20 10 FB  JSR $FB10                       A:11 X:02 Y:09 P:25 SP:FB CYC:128  C I  -  
FB10  70 09     BVS $FB1B                       A:11 X:02 Y:09 P:25 SP:F9 CYC:146  C I  -  
FB12  30 07     BMI $FB1B                       A:11 X:02 Y:09 P:25 SP:F9 CYC:152  C I  -  
FB14  90 05     BCC $FB1B                       A:11 X:02 Y:09 P:25 SP:F9 CYC:158  C I  -  
FB16  C9 11     CMP #$11                        A:11 X:02 Y:09 P:25 SP:F9 CYC:164  C I  -  
FB18  D0 01     BNE $FB1B                       A:11 X:02 Y:09 P:27 SP:F9 CYC:170  CZI  -  
FB1A  60        RTS                             A:11 X:02 Y:09 P:27 SP:F9 CYC:176  CZI  -  
F63C  AD 47 06  LDA $0647 = 9B                  A:11 X:02 Y:09 P:27 SP:FB CYC:194  CZI  -  
F63F  C9 9B     CMP #$9B                        A:9B X:02 Y:09 P:A5 SP:FB CYC:206  C I  - N
F641  F0 02     BEQ $F645                       A:9B X:02 Y:09 P:27 SP:FB CYC:212  CZI  -  
F645  A9 A5     LDA #$A5                        A:9B X:02 Y:09 P:27 SP:FB CYC:221  CZI  -  
F647  8D 47 06  STA $0647 = 9B                  A:A5 X:02 Y:09 P:A5 SP:FB CYC:227  C I  - N
F64A  A9 48     LDA #$48                        A:A5 X:02 Y:09 P:A5 SP:FB CYC:239  C I  - N
F64C  85 45     STA $45 = 48                    A:48 X:02 Y:09 P:25 SP:FB CYC:245  C I  -  
F64E  A9 05     LDA #$05                        A:48 X:02 Y:09 P:25 SP:FB CYC:254  C I  -  
F650  85 46     STA $46 = 05                    A:05 X:02 Y:09 P:25 SP:FB CYC:260  C I  -  
F652  A0 FF     LDY #$FF                        A:05 X:02 Y:09 P:25 SP:FB CYC:269  C I  -  
F654  20 E9 FA  JSR $FAE9                       A:05 X:02 Y:FF P:A5 SP:FB CYC:275  C I  - N
FAE9  24 01     BIT $01 = FF                    A:05 X:02 Y:FF P:A5 SP:F9 CYC:293  C I  - N
FAEB  18        CLC                             A:05 X:02 Y:FF P:E5 SP:F9 CYC:302  C I  -VN
FAEC  A9 B2     LDA #$B2                        A:05 X:02 Y:FF P:E4 SP:F9 CYC:308    I  -VN
FAEE  60        RTS                             A:B2 X:02 Y:FF P:E4 SP:F9 CYC:314    I  -VN
F657  73 45    *RRA ($45),Y = 0548 @ 0647 = A5  A:B2 X:02 Y:FF P:E4 SP:FB CYC:332    I  -VN
F659  EA        NOP                             A:05 X:02 Y:FF P:25 SP:FB CYC: 15  C I  -  
F65A  EA        NOP                             A:05 X:02 Y:FF P:25 SP:FB CYC: 21  C I  -  
F65B  08        PHP                             A:05 X:02 Y:FF P:25 SP:FB CYC: 27  C I  -  
F65C  48        PHA                             A:05 X:02 Y:FF P:25 SP:FA CYC: 36  C I  -  
F65D  A0 0A     LDY #$0A                        A:05 X:02 Y:FF P:25 SP:F9 CYC: 45  C I  -  
F65F  68        PLA                             A:05 X:02 Y:0A P:25 SP:F9 CYC: 51  C I  -  
F660  28        PLP                             A:05 X:02 Y:0A P:25 SP:FA CYC: 63  C I  -  
F661  20 EF FA  JSR $FAEF                       A:05 X:02 Y:0A P:25 SP:FB CYC: 75  C I  -  
FAEF  70 2A     BVS $FB1B                       A:05 X:02 Y:0A P:25 SP:F9 CYC: 93  C I  -  
FAF1  90 28     BCC $FB1B                       A:05 X:02 Y:0A P:25 SP:F9 CYC: 99  C I  -  
FAF3  30 26     BMI $FB1B                       A:05 X:02 Y:0A P:25 SP:F9 CYC:105  C I  -  
FAF5  C9 05     CMP #$05                        A:05 X:02 Y:0A P:25 SP:F9 CYC:111  C I  -  
FAF7  D0 22     BNE $FB1B                       A:05 X:02 Y:0A P:27 SP:F9 CYC:117  CZI  -  
FAF9  60        RTS                             A:05 X:02 Y:0A P:27 SP:F9 CYC:123  CZI  -  
F664  AD 47 06  LDA $0647 = 52                  A:05 X:02 Y:0A P:27 SP:FB CYC:141  CZI  -  
F667  C9 52     CMP #$52                        A:52 X:02 Y:0A P:25 SP:FB CYC:153  C I  -  
F669  F0 02     BEQ $F66D                       A:52 X:02 Y:0A P:27 SP:FB CYC:159  CZI  -  
F66D  A0 FF     LDY #$FF                        A:52 X:02 Y:0A P:27 SP:FB CYC:168  CZI  -  
F66F  A9 29     LDA #$29                        A:52 X:02 Y:FF P:A5 SP:FB CYC:174  C I  - N
F671  8D 47 06  STA $0647 = 52                  A:29 X:02 Y:FF P:25 SP:FB CYC:180  C I  -  
F674  20 FA FA  JSR $FAFA                       A:29 X:02 Y:FF P:25 SP:FB CYC:192  C I  -  
FAFA  B8        CLV                             A:29 X:02 Y:FF P:25 SP:F9 CYC:210  C I  -  
FAFB  18        CLC                             A:29 X:02 Y:FF P:25 SP:F9 CYC:216  C I  -  
FAFC  A9 42     LDA #$42                        A:29 X:02 Y:FF P:24 SP:F9 CYC:222    I  -  
FAFE  60        RTS                             A:42 X:02 Y:FF P:24 SP:F9 CYC:228    I  -  
F677  73 45    *RRA ($45),Y = 0548 @ 0647 = 29  A:42 X:02 Y:FF P:24 SP:FB CYC:246    I  -  
F679  EA        NOP                             A:57 X:02 Y:FF P:24 SP:FB CYC:270    I  -  
F67A  EA        NOP                             A:57 X:02 Y:FF P:24 SP:FB CYC:276    I  -  
F67B  08        PHP                             A:57 X:02 Y:FF P:24 SP:FB CYC:282    I  -  
F67C  48        PHA                             A:57 X:02 Y:FF P:24 SP:FA CYC:291    I  -  
F67D  A0 0B     LDY #$0B                        A:57 X:02 Y:FF P:24 SP:F9 CYC:300    I  -  
F67F  68        PLA                             A:57 X:02 Y:0B P:24 SP:F9 CYC:306    I  -  
F680  28        PLP                             A:57 X:02 Y:0B P:24 SP:FA CYC:318    I  -  
F681  20 FF FA  JSR $FAFF                       A:57 X:02 Y:0B P:24 SP:FB CYC:330    I  -  
FAFF  70 1A     BVS $FB1B                       A:57 X:02 Y:0B P:24 SP:F9 CYC:  7    I  -  
FB01  30 18     BMI $FB1B                       A:57 X:02 Y:0B P:24 SP:F9 CYC: 13    I  -  
FB03  B0 16     BCS $FB1B                       A:57 X:02 Y:0B P:24 SP:F9 CYC: 19    I  -  
FB05  C9 57     CMP #$57                        A:57 X:02 Y:0B P:24 SP:F9 CYC: 25    I  -  
FB07  D0 12     BNE $FB1B                       A:57 X:02 Y:0B P:27 SP:F9 CYC: 31  CZI  -  
FB09  60        RTS                             A:57 X:02 Y:0B P:27 SP:F9 CYC: 37  CZI  -  
F684  AD 47 06  LDA $0647 = 14                  A:57 X:02 Y:0B P:27 SP:FB CYC: 55  CZI  -  
F687  C9 14     CMP #$14                        A:14 X:02 Y:0B P:25 SP:FB CYC: 67  C I  -  
F689  F0 02     BEQ $F68D                       A:14 X:02 Y:0B P:27 SP:FB CYC: 73  CZI  -  
F68D  A0 FF     LDY #$FF                        A:14 X:02 Y:0B P:27 SP:FB CYC: 82  CZI  -  
F68F  A9 37     LDA #$37                        A:14 X:02 Y:FF P:A5 SP:FB CYC: 88  C I  - N
F691  8D 47 06  STA $0647 = 14                  A:37 X:02 Y:FF P:25 SP:FB CYC: 94  C I  -  
F694  20 0A FB  JSR $FB0A                       A:37 X:02 Y:FF P:25 SP:FB CYC:106  C I  -  
FB0A  24 01     BIT $01 = FF                    A:37 X:02 Y:FF P:25 SP:F9 CYC:124  C I  -  
FB0C  38        SEC                             A:37 X:02 Y:FF P:E5 SP:F9 CYC:133  C I  -VN
FB0D  A9 75     LDA #$75                        A:37 X:02 Y:FF P:E5 SP:F9 CYC:139  C I  -VN
FB0F  60        RTS                             A:75 X:02 Y:FF P:65 SP:F9 CYC:145  C I  -V 
F697  73 45    *RRA ($45),Y = 0548 @ 0647 = 37  A:75 X:02 Y:FF P:65 SP:FB CYC:163  C I  -V 
F699  EA        NOP                             A:11 X:02 Y:FF P:25 SP:FB CYC:187  C I  -  
F69A  EA        NOP                             A:11 X:02 Y:FF P:25 SP:FB CYC:193  C I  -  
F69B  08        PHP                             A:11 X:02 Y:FF P:25 SP:FB CYC:199  C I  -  
F69C  48        PHA                             A:11 X:02 Y:FF P:25 SP:FA CYC:208  C I  -  
F69D  A0 0C     LDY #$0C                        A:11 X:02 Y:FF P:25 SP:F9 CYC:217  C I  -  
F69F  68        PLA                             A:11 X:02 Y:0C P:25 SP:F9 CYC:223  C I  -  
F6A0  28        PLP                             A:11 X:02 Y:0C P:25 SP:FA CYC:235  C I  -  
F6A1  20 10 FB  JSR $FB10                       A:11 X:02 Y:0C P:25 SP:FB CYC:247  C I  -  
FB10  70 09     BVS $FB1B                       A:11 X:02 Y:0C P:25 SP:F9 CYC:265  C I  -  
FB12  30 07     BMI $FB1B                       A:11 X:02 Y:0C P:25 SP:F9 CYC:271  C I  -  
FB14  90 05     BCC $FB1B                       A:11 X:02 Y:0C P:25 SP:F9 CYC:277  C I  -  
FB16  C9 11     CMP #$11                        A:11 X:02 Y:0C P:25 SP:F9 CYC:283  C I  -  
FB18  D0 01     BNE $FB1B                       A:11 X:02 Y:0C P:27 SP:F9 CYC:289  CZI  -  
FB1A  60        RTS                             A:11 X:02 Y:0C P:27 SP:F9 CYC:295  CZI  -  
F6A4  AD 47 06  LDA $0647 = 9B                  A:11 X:02 Y:0C P:27 SP:FB CYC:313  CZI  -  
F6A7  C9 9B     CMP #$9B                        A:9B X:02 Y:0C P:A5 SP:FB CYC:325  C I  - N
F6A9  F0 02     BEQ $F6AD                       A:9B X:02 Y:0C P:27 SP:FB CYC:331  CZI  -  
F6AD  A0 0D     LDY #$0D                        A:9B X:02 Y:0C P:27 SP:FB CYC:340  CZI  -  
F6AF  A2 FF     LDX #$FF                        A:9B X:02 Y:0D P:25 SP:FB CYC:  5  C I  -  
F6B1  A9 A5     LDA #$A5                        A:9B X:FF Y:0D P:A5 SP:FB CYC: 11  C I  - N
F6B3  85 47     STA $47 = 9B                    A:A5 X:FF Y:0D P:A5 SP:FB CYC: 17  C I  - N
F6B5  20 E9 FA  JSR $FAE9                       A:A5 X:FF Y:0D P:A5 SP:FB CYC: 26  C I  - N
FAE9  24 01     BIT $01 = FF                    A:A5 X:FF Y:0D P:A5 SP:F9 CYC: 44  C I  - N
FAEB  18        CLC                             A:A5 X:FF Y:0D P:E5 SP:F9 CYC: 53  C I  -VN
FAEC  A9 B2     LDA #$B2                        A:A5 X:FF Y:0D P:E4 SP:F9 CYC: 59    I  -VN
FAEE  60        RTS                             A:B2 X:FF Y:0D P:E4 SP:F9 CYC: 65    I  -VN
F6B8  77 48    *RRA $48,X @ 47 = A5             A:B2 X:FF Y:0D P:E4 SP:FB CYC: 83    I  -VN
F6BA  EA        NOP                             A:05 X:FF Y:0D P:25 SP:FB CYC:101  C I  -  
F6BB  EA        NOP                             A:05 X:FF Y:0D P:25 SP:FB CYC:107  C I  -  
F6BC  EA        NOP                             A:05 X:FF Y:0D P:25 SP:FB CYC:113  C I  -  
F6BD  EA        NOP                             A:05 X:FF Y:0D P:25 SP:FB CYC:119  C I  -  
F6BE  20 EF FA  JSR $FAEF                       A:05 X:FF Y:0D P:25 SP:FB CYC:125  C I  -  
FAEF  70 2A     BVS $FB1B                       A:05 X:FF Y:0D P:25 SP:F9 CYC:143  C I  -  
FAF1  90 28     BCC $FB1B                       A:05 X:FF Y:0D P:25 SP:F9 CYC:149  C I  -  
FAF3  30 26     BMI $FB1B                       A:05 X:FF Y:0D P:25 SP:F9 CYC:155  C I  -  
FAF5  C9 05     CMP #$05                        A:05 X:FF Y:0D P:25 SP:F9 CYC:161  C I  -  
FAF7  D0 22     BNE $FB1B                       A:05 X:FF Y:0D P:27 SP:F9 CYC:167  CZI  -  
FAF9  60        RTS                             A:05 X:FF Y:0D P:27 SP:F9 CYC:173  CZI  -  
F6C1  A5 47     LDA $47 = 52                    A:05 X:FF Y:0D P:27 SP:FB CYC:191  CZI  -  
F6C3  C9 52     CMP #$52                        A:52 X:FF Y:0D P:25 SP:FB CYC:200  C I  -  
F6C5  F0 02     BEQ $F6C9                       A:52 X:FF Y:0D P:27 SP:FB CYC:206  CZI  -  
F6C9  C8        INY                             A:52 X:FF Y:0D P:27 SP:FB CYC:215  CZI  -  
F6CA  A9 29     LDA #$29                        A:52 X:FF Y:0E P:25 SP:FB CYC:221  C I  -  
F6CC  85 47     STA $47 = 52                    A:29 X:FF Y:0E P:25 SP:FB CYC:227  C I  -  
F6CE  20 FA FA  JSR $FAFA                       A:29 X:FF Y:0E P:25 SP:FB CYC:236  C I  -  
FAFA  B8        CLV                             A:29 X:FF Y:0E P:25 SP:F9 CYC:254  C I  -  
FAFB  18        CLC                             A:29 X:FF Y:0E P:25 SP:F9 CYC:260  C I  -  
FAFC  A9 42     LDA #$42                        A:29 X:FF Y:0E P:24 SP:F9 CYC:266    I  -  
FAFE  60        RTS                             A:42 X:FF Y:0E P:24 SP:F9 CYC:272    I  -  
F6D1  77 48    *RRA $48,X @ 47 = 29             A:42 X:FF Y:0E P:24 SP:FB CYC:290    I  -  
F6D3  EA        NOP                             A:57 X:FF Y:0E P:24 SP:FB CYC:308    I  -  
F6D4  EA        NOP                             A:57 X:FF Y:0E P:24 SP:FB CYC:314    I  -  
F6D5  EA        NOP                             A:57 X:FF Y:0E P:24 SP:FB CYC:320    I  -  
F6D6  EA        NOP                             A:57 X:FF Y:0E P:24 SP:FB CYC:326    I  -  
F6D7  20 FF FA  JSR $FAFF                       A:57 X:FF Y:0E P:24 SP:FB CYC:332    I  -  
FAFF  70 1A     BVS $FB1B                       A:57 X:FF Y:0E P:24 SP:F9 CYC:  9    I  -  
FB01  30 18     BMI $FB1B                       A:57 X:FF Y:0E P:24 SP:F9 CYC: 15    I  -  
FB03  B0 16     BCS $FB1B                       A:57 X:FF Y:0E P:24 SP:F9 CYC: 21    I  -  
FB05  C9 57     CMP #$57                        A:57 X:FF Y:0E P:24 SP:F9 CYC: 27    I  -  
FB07  D0 12     BNE $FB1B                       A:57 X:FF Y:0E P:27 SP:F9 CYC: 33  CZI  -  
FB09  60        RTS                             A:57 X:FF Y:0E P:27 SP:F9 CYC: 39  CZI  -  
F6DA  A5 47     LDA $47 = 14                    A:57 X:FF Y:0E P:27 SP:FB CYC: 57  CZI  -  
F6DC  C9 14     CMP #$14                        A:14 X:FF Y:0E P:25 SP:FB CYC: 66  C I  -  
F6DE  F0 02     BEQ $F6E2                       A:14 X:FF Y:0E P:27 SP:FB CYC: 72  CZI  -  
F6E2  C8        INY                             A:14 X:FF Y:0E P:27 SP:FB CYC: 81  CZI  -  
F6E3  A9 37     LDA #$37                        A:14 X:FF Y:0F P:25 SP:FB CYC: 87  C I  -  
F6E5  85 47     STA $47 = 14                    A:37 X:FF Y:0F P:25 SP:FB CYC: 93  C I  -  
F6E7  20 0A FB  JSR $FB0A                       A:37 X:FF Y:0F P:25 SP:FB CYC:102  C I  -  
FB0A  24 01     BIT $01 = FF                    A:37 X:FF Y:0F P:25 SP:F9 CYC:120  C I  -  
FB0C  38        SEC                             A:37 X:FF Y:0F P:E5 SP:F9 CYC:129  C I  -VN
FB0D  A9 75     LDA #$75                        A:37 X:FF Y:0F P:E5 SP:F9 CYC:135  C I  -VN
FB0F  60        RTS                             A:75 X:FF Y:0F P:65 SP:F9 CYC:141  C I  -V 
F6EA  77 48    *RRA $48,X @ 47 = 37             A:75 X:FF Y:0F P:65 SP:FB CYC:159  C I  -V 
F6EC  EA        NOP                             A:11 X:FF Y:0F P:25 SP:FB CYC:177  C I  -  
F6ED  EA        NOP                             A:11 X:FF Y:0F P:25 SP:FB CYC:183  C I  -  
F6EE  EA        NOP                             A:11 X:FF Y:0F P:25 SP:FB CYC:189  C I  -  
F6EF  EA        NOP                             A:11 X:FF Y:0F P:25 SP:FB CYC:195  C I  -  
F6F0  20 10 FB  JSR $FB10                       A:11 X:FF Y:0F P:25 SP:FB CYC:201  C I  -  
FB10  70 09     BVS $FB1B                       A:11 X:FF Y:0F P:25 SP:F9 CYC:219  C I  -  
FB12  30 07     BMI $FB1B                       A:11 X:FF Y:0F P:25 SP:F9 CYC:225  C I  -  
FB14  90 05     BCC $FB1B                       A:11 X:FF Y:0F P:25 SP:F9 CYC:231  C I  -  
FB16  C9 11     CMP #$11                        A:11 X:FF Y:0F P:25 SP:F9 CYC:237  C I  -  
FB18  D0 01     BNE $FB1B                       A:11 X:FF Y:0F P:27 SP:F9 CYC:243  CZI  -  
FB1A  60        RTS                             A:11 X:FF Y:0F P:27 SP:F9 CYC:249  CZI  -  
F6F3  A5 47     LDA $47 = 9B                    A:11 X:FF Y:0F P:27 SP:FB CYC:267  CZI  -  
F6F5  C9 9B     CMP #$9B                        A:9B X:FF Y:0F P:A5 SP:FB CYC:276  C I  - N
F6F7  F0 02     BEQ $F6FB                       A:9B X:FF Y:0F P:27 SP:FB CYC:282  CZI  -  
F6FB  A9 A5     LDA #$A5                        A:9B X:FF Y:0F P:27 SP:FB CYC:291  CZI  -  
F6FD  8D 47 06  STA $0647 = 9B                  A:A5 X:FF Y:0F P:A5 SP:FB CYC:297  C I  - N
F700  A0 FF     LDY #$FF                        A:A5 X:FF Y:0F P:A5 SP:FB CYC:309  C I  - N
F702  20 E9 FA  JSR $FAE9                       A:A5 X:FF Y:FF P:A5 SP:FB CYC:315  C I  - N
FAE9  24 01     BIT $01 = FF                    A:A5 X:FF Y:FF P:A5 SP:F9 CYC:333  C I  - N
FAEB  18        CLC                             A:A5 X:FF Y:FF P:E5 SP:F9 CYC:  1  C I  -VN
FAEC  A9 B2     LDA #$B2                        A:A5 X:FF Y:FF P:E4 SP:F9 CYC:  7    I  -VN
FAEE  60        RTS                             A:B2 X:FF Y:FF P:E4 SP:F9 CYC: 13    I  -VN
F705  7B 48 05 *RRA $0548,Y @ 0647 = A5         A:B2 X:FF Y:FF P:E4 SP:FB CYC: 31    I  -VN
F708  EA        NOP                             A:05 X:FF Y:FF P:25 SP:FB CYC: 52  C I  -  
F709  EA        NOP                             A:05 X:FF Y:FF P:25 SP:FB CYC: 58  C I  -  
F70A  08        PHP                             A:05 X:FF Y:FF P:25 SP:FB CYC: 64  C I  -  
F70B  48        PHA                             A:05 X:FF Y:FF P:25 SP:FA CYC: 73  C I  -  
F70C  A0 10     LDY #$10                        A:05 X:FF Y:FF P:25 SP:F9 CYC: 82  C I  -  
F70E  68        PLA                             A:05 X:FF Y:10 P:25 SP:F9 CYC: 88  C I  -  
F70F  28        PLP                             A:05 X:FF Y:10 P:25 SP:FA CYC:100  C I  -  
F710  20 EF FA  JSR $FAEF                       A:05 X:FF Y:10 P:25 SP:FB CYC:112  C I  -  
FAEF  70 2A     BVS $FB1B                       A:05 X:FF Y:10 P:25 SP:F9 CYC:130  C I  -  
FAF1  90 28     BCC $FB1B                       A:05 X:FF Y:10 P:25 SP:F9 CYC:136  C I  -  
FAF3  30 26     BMI $FB1B                       A:05 X:FF Y:10 P:25 SP:F9 CYC:142  C I  -  
FAF5  C9 05     CMP #$05                        A:05 X:FF Y:10 P:25 SP:F9 CYC:148  C I  -  
FAF7  D0 22     BNE $FB1B                       A:05 X:FF Y:10 P:27 SP:F9 CYC:154  CZI  -  
FAF9  60        RTS                             A:05 X:FF Y:10 P:27 SP:F9 CYC:160  CZI  -  
F713  AD 47 06  LDA $0647 = 52                  A:05 X:FF Y:10 P:27 SP:FB CYC:178  CZI  -  
F716  C9 52     CMP #$52                        A:52 X:FF Y:10 P:25 SP:FB CYC:190  C I  -  
F718  F0 02     BEQ $F71C                       A:52 X:FF Y:10 P:27 SP:FB CYC:196  CZI  -  
F71C  A0 FF     LDY #$FF                        A:52 X:FF Y:10 P:27 SP:FB CYC:205  CZI  -  
F71E  A9 29     LDA #$29                        A:52 X:FF Y:FF P:A5 SP:FB CYC:211  C I  - N
F720  8D 47 06  STA $0647 = 52                  A:29 X:FF Y:FF P:25 SP:FB CYC:217  C I  -  
F723  20 FA FA  JSR $FAFA                       A:29 X:FF Y:FF P:25 SP:FB CYC:229  C I  -  
FAFA  B8        CLV                             A:29 X:FF Y:FF P:25 SP:F9 CYC:247  C I  -  
FAFB  18        CLC                             A:29 X:FF Y:FF P:25 SP:F9 CYC:253  C I  -  
FAFC  A9 42     LDA #$42                        A:29 X:FF Y:FF P:24 SP:F9 CYC:259    I  -  
FAFE  60        RTS                             A:42 X:FF Y:FF P:24 SP:F9 CYC:265    I  -  
F726  7B 48 05 *RRA $0548,Y @ 0647 = 29         A:42 X:FF Y:FF P:24 SP:FB CYC:283    I  -  
F729  EA        NOP                             A:57 X:FF Y:FF P:24 SP:FB CYC:304    I  -  
F72A  EA        NOP                             A:57 X:FF Y:FF P:24 SP:FB CYC:310    I  -  
F72B  08        PHP                             A:57 X:FF Y:FF P:24 SP:FB CYC:316    I  -  
F72C  48        PHA                             A:57 X:FF Y:FF P:24 SP:FA CYC:325    I  -  
F72D  A0 11     LDY #$11                        A:57 X:FF Y:FF P:24 SP:F9 CYC:334    I  -  
F72F  68        PLA                             A:57 X:FF Y:11 P:24 SP:F9 CYC:340    I  -  
F730  28        PLP                             A:57 X:FF Y:11 P:24 SP:FA CYC: 11    I  -  
F731  20 FF FA  JSR $FAFF                       A:57 X:FF Y:11 P:24 SP:FB CYC: 23    I  -  
FAFF  70 1A     BVS $FB1B                       A:57 X:FF Y:11 P:24 SP:F9 CYC: 41    I  -  
FB01  30 18     BMI $FB1B                       A:57 X:FF Y:11 P:24 SP:F9 CYC: 47    I  -  
FB03  B0 16     BCS $FB1B                       A:57 X:FF Y:11 P:24 SP:F9 CYC: 53    I  -  
FB05  C9 57     CMP #$57                        A:57 X:FF Y:11 P:24 SP:F9 CYC: 59    I  -  
FB07  D0 12     BNE $FB1B                       A:57 X:FF Y:11 P:27 SP:F9 CYC: 65  CZI  -  
FB09  60        RTS                             A:57 X:FF Y:11 P:27 SP:F9 CYC: 71  CZI  -  
F734  AD 47 06  LDA $0647 = 14                  A:57 X:FF Y:11 P:27 SP:FB CYC: 89  CZI  -  
F737  C9 14     CMP #$14                        A:14 X:FF Y:11 P:25 SP:FB CYC:101  C I  -  
F739  F0 02     BEQ $F73D                       A:14 X:FF Y:11 P:27 SP:FB CYC:107  CZI  -  
F73D  A0 FF     LDY #$FF                        A:14 X:FF Y:11 P:27 SP:FB CYC:116  CZI  -  
F73F  A9 37     LDA #$37                        A:14 X:FF Y:FF P:A5 SP:FB CYC:122  C I  - N
F741  8D 47 06  STA $0647 = 14                  A:37 X:FF Y:FF P:25 SP:FB CYC:128  C I  -  
F744  20 0A FB  JSR $FB0A                       A:37 X:FF Y:FF P:25 SP:FB CYC:140  C I  -  
FB0A  24 01     BIT $01 = FF                    A:37 X:FF Y:FF P:25 SP:F9 CYC:158  C I  -  
FB0C  38        SEC                             A:37 X:FF Y:FF P:E5 SP:F9 CYC:167  C I  -VN
FB0D  A9 75     LDA #$75                        A:37 X:FF Y:FF P:E5 SP:F9 CYC:173  C I  -VN
FB0F  60        RTS                             A:75 X:FF Y:FF P:65 SP:F9 CYC:179  C I  -V 
F747  7B 48 05 *RRA $0548,Y @ 0647 = 37         A:75 X:FF Y:FF P:65 SP:FB CYC:197  C I  -V 
F74A  EA        NOP                             A:11 X:FF Y:FF P:25 SP:FB CYC:218  C I  -  
F74B  EA        NOP                             A:11 X:FF Y:FF P:25 SP:FB CYC:224  C I  -  
F74C  08        PHP                             A:11 X:FF Y:FF P:25 SP:FB CYC:230  C I  -  
F74D  48        PHA                             A:11 X:FF Y:FF P:25 SP:FA CYC:239  C I  -  
F74E  A0 12     LDY #$12                        A:11 X:FF Y:FF P:25 SP:F9 CYC:248  C I  -  
F750  68        PLA                             A:11 X:FF Y:12 P:25 SP:F9 CYC:254  C I  -  
F751  28        PLP                             A:11 X:FF Y:12 P:25 SP:FA CYC:266  C I  -  
F752  20 10 FB  JSR $FB10                       A:11 X:FF Y:12 P:25 SP:FB CYC:278  C I  -  
FB10  70 09     BVS $FB1B                       A:11 X:FF Y:12 P:25 SP:F9 CYC:296  C I  -  
FB12  30 07     BMI $FB1B                       A:11 X:FF Y:12 P:25 SP:F9 CYC:302  C I  -  
FB14  90 05     BCC $FB1B                       A:11 X:FF Y:12 P:25 SP:F9 CYC:308  C I  -  
FB16  C9 11     CMP #$11                        A:11 X:FF Y:12 P:25 SP:F9 CYC:314  C I  -  
FB18  D0 01     BNE $FB1B                       A:11 X:FF Y:12 P:27 SP:F9 CYC:320  CZI  -  
FB1A  60        RTS                             A:11 X:FF Y:12 P:27 SP:F9 CYC:326  CZI  -  
F755  AD 47 06  LDA $0647 = 9B                  A:11 X:FF Y:12 P:27 SP:FB CYC:  3  CZI  -  
F758  C9 9B     CMP #$9B                        A:9B X:FF Y:12 P:A5 SP:FB CYC: 15  C I  - N
F75A  F0 02     BEQ $F75E                       A:9B X:FF Y:12 P:27 SP:FB CYC: 21  CZI  -  
F75E  A0 13     LDY #$13                        A:9B X:FF Y:12 P:27 SP:FB CYC: 30  CZI  -  
F760  A2 FF     LDX #$FF                        A:9B X:FF Y:13 P:25 SP:FB CYC: 36  C I  -  
F762  A9 A5     LDA #$A5                        A:9B X:FF Y:13 P:A5 SP:FB CYC: 42  C I  - N
F764  8D 47 06  STA $0647 = 9B                  A:A5 X:FF Y:13 P:A5 SP:FB CYC: 48  C I  - N
F767  20 E9 FA  JSR $FAE9                       A:A5 X:FF Y:13 P:A5 SP:FB CYC: 60  C I  - N
FAE9  24 01     BIT $01 = FF                    A:A5 X:FF Y:13 P:A5 SP:F9 CYC: 78  C I  - N
FAEB  18        CLC                             A:A5 X:FF Y:13 P:E5 SP:F9 CYC: 87  C I  -VN
FAEC  A9 B2     LDA #$B2                        A:A5 X:FF Y:13 P:E4 SP:F9 CYC: 93    I  -VN
FAEE  60        RTS                             A:B2 X:FF Y:13 P:E4 SP:F9 CYC: 99    I  -VN
F76A  7F 48 05 *RRA $0548,X @ 0647 = A5         A:B2 X:FF Y:13 P:E4 SP:FB CYC:117    I  -VN
F76D  EA        NOP                             A:05 X:FF Y:13 P:25 SP:FB CYC:138  C I  -  
F76E  EA        NOP                             A:05 X:FF Y:13 P:25 SP:FB CYC:144  C I  -  
F76F  EA        NOP                             A:05 X:FF Y:13 P:25 SP:FB CYC:150  C I  -  
F770  EA        NOP                             A:05 X:FF Y:13 P:25 SP:FB CYC:156  C I  -  
F771  20 EF FA  JSR $FAEF                       A:05 X:FF Y:13 P:25 SP:FB CYC:162  C I  -  
FAEF  70 2A     BVS $FB1B                       A:05 X:FF Y:13 P:25 SP:F9 CYC:180  C I  -  
FAF1  90 28     BCC $FB1B                       A:05 X:FF Y:13 P:25 SP:F9 CYC:186  C I  -  
FAF3  30 26     BMI $FB1B                       A:05 X:FF Y:13 P:25 SP:F9 CYC:192  C I  -  
FAF5  C9 05     CMP #$05                        A:05 X:FF Y:13 P:25 SP:F9 CYC:198  C I  -  
FAF7  D0 22     BNE $FB1B                       A:05 X:FF Y:13 P:27 SP:F9 CYC:204  CZI  -  
FAF9  60        RTS                             A:05 X:FF Y:13 P:27 SP:F9 CYC:210  CZI  -  
F774  AD 47 06  LDA $0647 = 52                  A:05 X:FF Y:13 P:27 SP:FB CYC:228  CZI  -  
F777  C9 52     CMP #$52                        A:52 X:FF Y:13 P:25 SP:FB CYC:240  C I  -  
F779  F0 02     BEQ $F77D                       A:52 X:FF Y:13 P:27 SP:FB CYC:246  CZI  -  
F77D  C8        INY                             A:52 X:FF Y:13 P:27 SP:FB CYC:255  CZI  -  
F77E  A9 29     LDA #$29                        A:52 X:FF Y:14 P:25 SP:FB CYC:261  C I  -  
F780  8D 47 06  STA $0647 = 52                  A:29 X:FF Y:14 P:25 SP:FB CYC:267  C I  -  
F783  20 FA FA  JSR $FAFA                       A:29 X:FF Y:14 P:25 SP:FB CYC:279  C I  -  
FAFA  B8        CLV                             A:29 X:FF Y:14 P:25 SP:F9 CYC:297  C I  -  
FAFB  18        CLC                             A:29 X:FF Y:14 P:25 SP:F9 CYC:303  C I  -  
FAFC  A9 42     LDA #$42                        A:29 X:FF Y:14 P:24 SP:F9 CYC:309    I  -  
FAFE  60        RTS                             A:42 X:FF Y:14 P:24 SP:F9 CYC:315    I  -  
F786  7F 48 05 *RRA $0548,X @ 0647 = 29         A:42 X:FF Y:14 P:24 SP:FB CYC:333    I  -  
F789  EA        NOP                             A:57 X:FF Y:14 P:24 SP:FB CYC: 13    I  -  
F78A  EA        NOP                             A:57 X:FF Y:14 P:24 SP:FB CYC: 19    I  -  
F78B  EA        NOP                             A:57 X:FF Y:14 P:24 SP:FB CYC: 25    I  -  
F78C  EA        NOP                             A:57 X:FF Y:14 P:24 SP:FB CYC: 31    I  -  
F78D  20 FF FA  JSR $FAFF                       A:57 X:FF Y:14 P:24 SP:FB CYC: 37    I  -  
FAFF  70 1A     BVS $FB1B                       A:57 X:FF Y:14 P:24 SP:F9 CYC: 55    I  -  
FB01  30 18     BMI $FB1B                       A:57 X:FF Y:14 P:24 SP:F9 CYC: 61    I  -  
FB03  B0 16     BCS $FB1B                       A:57 X:FF Y:14 P:24 SP:F9 CYC: 67    I  -  
FB05  C9 57     CMP #$57                        A:57 X:FF Y:14 P:24 SP:F9 CYC: 73    I  -  
FB07  D0 12     BNE $FB1B                       A:57 X:FF Y:14 P:27 SP:F9 CYC: 79  CZI  -  
FB09  60        RTS                             A:57 X:FF Y:14 P:27 SP:F9 CYC: 85  CZI  -  
F790  AD 47 06  LDA $0647 = 14                  A:57 X:FF Y:14 P:27 SP:FB CYC:103  CZI  -  
F793  C9 14     CMP #$14                        A:14 X:FF Y:14 P:25 SP:FB CYC:115  C I  -  
F795  F0 02     BEQ $F799                       A:14 X:FF Y:14 P:27 SP:FB CYC:121  CZI  -  
F799  C8        INY                             A:14 X:FF Y:14 P:27 SP:FB CYC:130  CZI  -  
F79A  A9 37     LDA #$37                        A:14 X:FF Y:15 P:25 SP:FB CYC:136  C I  -  
F79C  8D 47 06  STA $0647 = 14                  A:37 X:FF Y:15 P:25 SP:FB CYC:142  C I  -  
F79F  20 0A FB  JSR $FB0A                       A:37 X:FF Y:15 P:25 SP:FB CYC:154  C I  -  
FB0A  24 01     BIT $01 = FF                    A:37 X:FF Y:15 P:25 SP:F9 CYC:172  C I  -  
FB0C  38        SEC                             A:37 X:FF Y:15 P:E5 SP:F9 CYC:181  C I  -VN
FB0D  A9 75     LDA #$75                        A:37 X:FF Y:15 P:E5 SP:F9 CYC:187  C I  -VN
FB0F  60        RTS                             A:75 X:FF Y:15 P:65 SP:F9 CYC:193  C I  -V 
F7A2  7F 48 05 *RRA $0548,X @ 0647 = 37         A:75 X:FF Y:15 P:65 SP:FB CYC:211  C I  -V 
F7A5  EA        NOP                             A:11 X:FF Y:15 P:25 SP:FB CYC:232  C I  -  
F7A6  EA        NOP                             A:11 X:FF Y:15 P:25 SP:FB CYC:238  C I  -  
F7A7  EA        NOP                             A:11 X:FF Y:15 P:25 SP:FB CYC:244  C I  -  
F7A8  EA        NOP                             A:11 X:FF Y:15 P:25 SP:FB CYC:250  C I  -  
F7A9  20 10 FB  JSR $FB10                       A:11 X:FF Y:15 P:25 SP:FB CYC:256  C I  -  
FB10  70 09     BVS $FB1B                       A:11 X:FF Y:15 P:25 SP:F9 CYC:274  C I  -  
FB12  30 07     BMI $FB1B                       A:11 X:FF Y:15 P:25 SP:F9 CYC:280  C I  -  
FB14  90 05     BCC $FB1B                       A:11 X:FF Y:15 P:25 SP:F9 CYC:286  C I  -  
FB16  C9 11     CMP #$11                        A:11 X:FF Y:15 P:25 SP:F9 CYC:292  C I  -  
FB18  D0 01     BNE $FB1B                       A:11 X:FF Y:15 P:27 SP:F9 CYC:298  CZI  -  
FB1A  60        RTS                             A:11 X:FF Y:15 P:27 SP:F9 CYC:304  CZI  -  
F7AC  AD 47 06  LDA $0647 = 9B                  A:11 X:FF Y:15 P:27 SP:FB CYC:322  CZI  -  
F7AF  C9 9B     CMP #$9B                        A:9B X:FF Y:15 P:A5 SP:FB CYC:334  C I  - N
F7B1  F0 02     BEQ $F7B5                       A:9B X:FF Y:15 P:27 SP:FB CYC:340  CZI  -  
F7B5  60        RTS                             A:9B X:FF Y:15 P:27 SP:FB CYC:  8  CZI  -  
C655  A5 00     LDA $00 = 00                    A:9B X:FF Y:15 P:27 SP:FD CYC: 26  CZI  -  
C657  05 10     ORA $10 = 00                    A:00 X:FF Y:15 P:27 SP:FD CYC: 35  CZI  -  
C659  05 11     ORA $11 = 00                    A:00 X:FF Y:15 P:27 SP:FD CYC: 44  CZI  -  
C65B  F0 0E     BEQ $C66B                       A:00 X:FF Y:15 P:27 SP:FD CYC: 53  CZI  -  
C66B  20 89 C6  JSR $C689                       A:00 X:FF Y:15 P:27 SP:FD CYC: 62  CZI  -  
C689  A9 02     LDA #$02                        A:00 X:FF Y:15 P:27 SP:FB CYC: 80  CZI  -  
C68B  8D 15 40  STA $4015 = FF                  A:02 X:FF Y:15 P:25 SP:FB CYC: 86  C I  -  
C68E  A9 3F     LDA #$3F                        A:02 X:FF Y:15 P:25 SP:FB CYC: 98  C I  -  
C690  8D 04 40  STA $4004 = FF                  A:3F X:FF Y:15 P:25 SP:FB CYC:104  C I  -  
C693  A9 9A     LDA #$9A                        A:3F X:FF Y:15 P:25 SP:FB CYC:116  C I  -  
C695  8D 05 40  STA $4005 = FF                  A:9A X:FF Y:15 P:A5 SP:FB CYC:122  C I  - N
C698  A9 FF     LDA #$FF                        A:9A X:FF Y:15 P:A5 SP:FB CYC:134  C I  - N
C69A  8D 06 40  STA $4006 = FF                  A:FF X:FF Y:15 P:A5 SP:FB CYC:140  C I  - N
C69D  A9 00     LDA #$00                        A:FF X:FF Y:15 P:A5 SP:FB CYC:152  C I  - N
C69F  8D 07 40  STA $4007 = FF                  A:00 X:FF Y:15 P:27 SP:FB CYC:158  CZI  -  
C6A2  60        RTS                             A:00 X:FF Y:15 P:27 SP:FB CYC:170  CZI  -  
C66E  60        RTS                             A:00 X:FF Y:15 P:27 SP:FD CYC:188  CZI  -  